Archive member included to satisfy reference by file (symbol)

/usr/lib/gcc/arm-none-eabi/13.2.1/../../../arm-none-eabi/lib/thumb/v7-m/nofp/libc_nano.a(libc_a-init.o)
                              /usr/lib/gcc/arm-none-eabi/13.2.1/../../../arm-none-eabi/lib/thumb/v7-m/nofp/crt0.o (__libc_init_array)
/usr/lib/gcc/arm-none-eabi/13.2.1/../../../arm-none-eabi/lib/thumb/v7-m/nofp/libc_nano.a(libc_a-memset.o)
                              /usr/lib/gcc/arm-none-eabi/13.2.1/../../../arm-none-eabi/lib/thumb/v7-m/nofp/crt0.o (memset)
/usr/lib/gcc/arm-none-eabi/13.2.1/../../../arm-none-eabi/lib/thumb/v7-m/nofp/libc_nano.a(libc_a-memcpy.o)
                              /workspaces/qgv/hoverboard-firmware-hack-FOC/build/util.o (memcpy)
/usr/lib/gcc/arm-none-eabi/13.2.1/../../../arm-none-eabi/lib/thumb/v7-m/nofp/libc_nano.a(libc_a-exit.o)
                              /usr/lib/gcc/arm-none-eabi/13.2.1/../../../arm-none-eabi/lib/thumb/v7-m/nofp/crt0.o (exit)
/usr/lib/gcc/arm-none-eabi/13.2.1/../../../arm-none-eabi/lib/thumb/v7-m/nofp/libc_nano.a(libc_a-atexit.o)
                              /usr/lib/gcc/arm-none-eabi/13.2.1/../../../arm-none-eabi/lib/thumb/v7-m/nofp/crt0.o (atexit)
/usr/lib/gcc/arm-none-eabi/13.2.1/../../../arm-none-eabi/lib/thumb/v7-m/nofp/libc_nano.a(libc_a-printf.o)
                              /workspaces/qgv/hoverboard-firmware-hack-FOC/build/util.o (printf)
/usr/lib/gcc/arm-none-eabi/13.2.1/../../../arm-none-eabi/lib/thumb/v7-m/nofp/libc_nano.a(libc_a-nano-vfprintf.o)
                              /usr/lib/gcc/arm-none-eabi/13.2.1/../../../arm-none-eabi/lib/thumb/v7-m/nofp/libc_nano.a(libc_a-printf.o) (_vfprintf_r)
/usr/lib/gcc/arm-none-eabi/13.2.1/../../../arm-none-eabi/lib/thumb/v7-m/nofp/libc_nano.a(libc_a-fini.o)
                              /usr/lib/gcc/arm-none-eabi/13.2.1/../../../arm-none-eabi/lib/thumb/v7-m/nofp/crt0.o (__libc_fini_array)
/usr/lib/gcc/arm-none-eabi/13.2.1/../../../arm-none-eabi/lib/thumb/v7-m/nofp/libc_nano.a(libc_a-wbuf.o)
                              /usr/lib/gcc/arm-none-eabi/13.2.1/../../../arm-none-eabi/lib/thumb/v7-m/nofp/libc_nano.a(libc_a-nano-vfprintf.o) (__swbuf_r)
/usr/lib/gcc/arm-none-eabi/13.2.1/../../../arm-none-eabi/lib/thumb/v7-m/nofp/libc_nano.a(libc_a-impure.o)
                              /usr/lib/gcc/arm-none-eabi/13.2.1/../../../arm-none-eabi/lib/thumb/v7-m/nofp/libc_nano.a(libc_a-printf.o) (_impure_ptr)
/usr/lib/gcc/arm-none-eabi/13.2.1/../../../arm-none-eabi/lib/thumb/v7-m/nofp/libc_nano.a(libc_a-fvwrite.o)
                              /usr/lib/gcc/arm-none-eabi/13.2.1/../../../arm-none-eabi/lib/thumb/v7-m/nofp/libc_nano.a(libc_a-nano-vfprintf.o) (__sfvwrite_r)
/usr/lib/gcc/arm-none-eabi/13.2.1/../../../arm-none-eabi/lib/thumb/v7-m/nofp/libc_nano.a(libc_a-findfp.o)
                              /usr/lib/gcc/arm-none-eabi/13.2.1/../../../arm-none-eabi/lib/thumb/v7-m/nofp/libc_nano.a(libc_a-nano-vfprintf.o) (__sinit)
/usr/lib/gcc/arm-none-eabi/13.2.1/../../../arm-none-eabi/lib/thumb/v7-m/nofp/libc_nano.a(libc_a-fflush.o)
                              /usr/lib/gcc/arm-none-eabi/13.2.1/../../../arm-none-eabi/lib/thumb/v7-m/nofp/libc_nano.a(libc_a-wbuf.o) (_fflush_r)
/usr/lib/gcc/arm-none-eabi/13.2.1/../../../arm-none-eabi/lib/thumb/v7-m/nofp/libc_nano.a(libc_a-mallocr.o)
                              /usr/lib/gcc/arm-none-eabi/13.2.1/../../../arm-none-eabi/lib/thumb/v7-m/nofp/libc_nano.a(libc_a-fvwrite.o) (_malloc_r)
/usr/lib/gcc/arm-none-eabi/13.2.1/../../../arm-none-eabi/lib/thumb/v7-m/nofp/libc_nano.a(libc_a-freer.o)
                              /usr/lib/gcc/arm-none-eabi/13.2.1/../../../arm-none-eabi/lib/thumb/v7-m/nofp/libc_nano.a(libc_a-fvwrite.o) (_free_r)
/usr/lib/gcc/arm-none-eabi/13.2.1/../../../arm-none-eabi/lib/thumb/v7-m/nofp/libc_nano.a(libc_a-memmove.o)
                              /usr/lib/gcc/arm-none-eabi/13.2.1/../../../arm-none-eabi/lib/thumb/v7-m/nofp/libc_nano.a(libc_a-fvwrite.o) (memmove)
/usr/lib/gcc/arm-none-eabi/13.2.1/../../../arm-none-eabi/lib/thumb/v7-m/nofp/libc_nano.a(libc_a-fwalk.o)
                              /usr/lib/gcc/arm-none-eabi/13.2.1/../../../arm-none-eabi/lib/thumb/v7-m/nofp/libc_nano.a(libc_a-findfp.o) (_fwalk_sglue)
/usr/lib/gcc/arm-none-eabi/13.2.1/../../../arm-none-eabi/lib/thumb/v7-m/nofp/libc_nano.a(libc_a-wsetup.o)
                              /usr/lib/gcc/arm-none-eabi/13.2.1/../../../arm-none-eabi/lib/thumb/v7-m/nofp/libc_nano.a(libc_a-nano-vfprintf.o) (__swsetup_r)
/usr/lib/gcc/arm-none-eabi/13.2.1/../../../arm-none-eabi/lib/thumb/v7-m/nofp/libc_nano.a(libc_a-__atexit.o)
                              /usr/lib/gcc/arm-none-eabi/13.2.1/../../../arm-none-eabi/lib/thumb/v7-m/nofp/libc_nano.a(libc_a-atexit.o) (__register_exitproc)
/usr/lib/gcc/arm-none-eabi/13.2.1/../../../arm-none-eabi/lib/thumb/v7-m/nofp/libc_nano.a(libc_a-reallocr.o)
                              /usr/lib/gcc/arm-none-eabi/13.2.1/../../../arm-none-eabi/lib/thumb/v7-m/nofp/libc_nano.a(libc_a-fvwrite.o) (_realloc_r)
/usr/lib/gcc/arm-none-eabi/13.2.1/../../../arm-none-eabi/lib/thumb/v7-m/nofp/libc_nano.a(libc_a-nano-vfprintf_i.o)
                              /usr/lib/gcc/arm-none-eabi/13.2.1/../../../arm-none-eabi/lib/thumb/v7-m/nofp/libc_nano.a(libc_a-nano-vfprintf.o) (_printf_i)
/usr/lib/gcc/arm-none-eabi/13.2.1/../../../arm-none-eabi/lib/thumb/v7-m/nofp/libc_nano.a(libc_a-mlock.o)
                              /usr/lib/gcc/arm-none-eabi/13.2.1/../../../arm-none-eabi/lib/thumb/v7-m/nofp/libc_nano.a(libc_a-mallocr.o) (__malloc_lock)
/usr/lib/gcc/arm-none-eabi/13.2.1/../../../arm-none-eabi/lib/thumb/v7-m/nofp/libc_nano.a(libc_a-makebuf.o)
                              /usr/lib/gcc/arm-none-eabi/13.2.1/../../../arm-none-eabi/lib/thumb/v7-m/nofp/libc_nano.a(libc_a-wsetup.o) (__smakebuf_r)
/usr/lib/gcc/arm-none-eabi/13.2.1/../../../arm-none-eabi/lib/thumb/v7-m/nofp/libc_nano.a(libc_a-memchr-stub.o)
                              /usr/lib/gcc/arm-none-eabi/13.2.1/../../../arm-none-eabi/lib/thumb/v7-m/nofp/libc_nano.a(libc_a-nano-vfprintf.o) (memchr)
/usr/lib/gcc/arm-none-eabi/13.2.1/../../../arm-none-eabi/lib/thumb/v7-m/nofp/libc_nano.a(libc_a-isattyr.o)
                              /usr/lib/gcc/arm-none-eabi/13.2.1/../../../arm-none-eabi/lib/thumb/v7-m/nofp/libc_nano.a(libc_a-makebuf.o) (_isatty_r)
/usr/lib/gcc/arm-none-eabi/13.2.1/../../../arm-none-eabi/lib/thumb/v7-m/nofp/libc_nano.a(libc_a-sbrkr.o)
                              /usr/lib/gcc/arm-none-eabi/13.2.1/../../../arm-none-eabi/lib/thumb/v7-m/nofp/libc_nano.a(libc_a-mallocr.o) (_sbrk_r)
/usr/lib/gcc/arm-none-eabi/13.2.1/../../../arm-none-eabi/lib/thumb/v7-m/nofp/libc_nano.a(libc_a-stdio.o)
                              /usr/lib/gcc/arm-none-eabi/13.2.1/../../../arm-none-eabi/lib/thumb/v7-m/nofp/libc_nano.a(libc_a-findfp.o) (__sread)
/usr/lib/gcc/arm-none-eabi/13.2.1/../../../arm-none-eabi/lib/thumb/v7-m/nofp/libc_nano.a(libc_a-msizer.o)
                              /usr/lib/gcc/arm-none-eabi/13.2.1/../../../arm-none-eabi/lib/thumb/v7-m/nofp/libc_nano.a(libc_a-reallocr.o) (_malloc_usable_size_r)
/usr/lib/gcc/arm-none-eabi/13.2.1/../../../arm-none-eabi/lib/thumb/v7-m/nofp/libc_nano.a(libc_a-closer.o)
                              /usr/lib/gcc/arm-none-eabi/13.2.1/../../../arm-none-eabi/lib/thumb/v7-m/nofp/libc_nano.a(libc_a-stdio.o) (_close_r)
/usr/lib/gcc/arm-none-eabi/13.2.1/../../../arm-none-eabi/lib/thumb/v7-m/nofp/libc_nano.a(libc_a-__call_atexit.o)
                              /usr/lib/gcc/arm-none-eabi/13.2.1/../../../arm-none-eabi/lib/thumb/v7-m/nofp/libc_nano.a(libc_a-__atexit.o) (__call_exitprocs)
/usr/lib/gcc/arm-none-eabi/13.2.1/../../../arm-none-eabi/lib/thumb/v7-m/nofp/libc_nano.a(libc_a-readr.o)
                              /usr/lib/gcc/arm-none-eabi/13.2.1/../../../arm-none-eabi/lib/thumb/v7-m/nofp/libc_nano.a(libc_a-stdio.o) (_read_r)
/usr/lib/gcc/arm-none-eabi/13.2.1/../../../arm-none-eabi/lib/thumb/v7-m/nofp/libc_nano.a(libc_a-reent.o)
                              /usr/lib/gcc/arm-none-eabi/13.2.1/../../../arm-none-eabi/lib/thumb/v7-m/nofp/libc_nano.a(libc_a-isattyr.o) (errno)
/usr/lib/gcc/arm-none-eabi/13.2.1/../../../arm-none-eabi/lib/thumb/v7-m/nofp/libc_nano.a(libc_a-fstatr.o)
                              /usr/lib/gcc/arm-none-eabi/13.2.1/../../../arm-none-eabi/lib/thumb/v7-m/nofp/libc_nano.a(libc_a-makebuf.o) (_fstat_r)
/usr/lib/gcc/arm-none-eabi/13.2.1/../../../arm-none-eabi/lib/thumb/v7-m/nofp/libc_nano.a(libc_a-lseekr.o)
                              /usr/lib/gcc/arm-none-eabi/13.2.1/../../../arm-none-eabi/lib/thumb/v7-m/nofp/libc_nano.a(libc_a-stdio.o) (_lseek_r)
/usr/lib/gcc/arm-none-eabi/13.2.1/../../../arm-none-eabi/lib/thumb/v7-m/nofp/libc_nano.a(libc_a-writer.o)
                              /usr/lib/gcc/arm-none-eabi/13.2.1/../../../arm-none-eabi/lib/thumb/v7-m/nofp/libc_nano.a(libc_a-stdio.o) (_write_r)
/usr/lib/gcc/arm-none-eabi/13.2.1/../../../arm-none-eabi/lib/thumb/v7-m/nofp/libnosys.a(close.o)
                              /usr/lib/gcc/arm-none-eabi/13.2.1/../../../arm-none-eabi/lib/thumb/v7-m/nofp/libc_nano.a(libc_a-closer.o) (_close)
/usr/lib/gcc/arm-none-eabi/13.2.1/../../../arm-none-eabi/lib/thumb/v7-m/nofp/libnosys.a(fstat.o)
                              /usr/lib/gcc/arm-none-eabi/13.2.1/../../../arm-none-eabi/lib/thumb/v7-m/nofp/libc_nano.a(libc_a-fstatr.o) (_fstat)
/usr/lib/gcc/arm-none-eabi/13.2.1/../../../arm-none-eabi/lib/thumb/v7-m/nofp/libnosys.a(isatty.o)
                              /usr/lib/gcc/arm-none-eabi/13.2.1/../../../arm-none-eabi/lib/thumb/v7-m/nofp/libc_nano.a(libc_a-isattyr.o) (_isatty)
/usr/lib/gcc/arm-none-eabi/13.2.1/../../../arm-none-eabi/lib/thumb/v7-m/nofp/libnosys.a(lseek.o)
                              /usr/lib/gcc/arm-none-eabi/13.2.1/../../../arm-none-eabi/lib/thumb/v7-m/nofp/libc_nano.a(libc_a-lseekr.o) (_lseek)
/usr/lib/gcc/arm-none-eabi/13.2.1/../../../arm-none-eabi/lib/thumb/v7-m/nofp/libnosys.a(read.o)
                              /usr/lib/gcc/arm-none-eabi/13.2.1/../../../arm-none-eabi/lib/thumb/v7-m/nofp/libc_nano.a(libc_a-readr.o) (_read)
/usr/lib/gcc/arm-none-eabi/13.2.1/../../../arm-none-eabi/lib/thumb/v7-m/nofp/libnosys.a(sbrk.o)
                              /usr/lib/gcc/arm-none-eabi/13.2.1/../../../arm-none-eabi/lib/thumb/v7-m/nofp/libc_nano.a(libc_a-sbrkr.o) (_sbrk)
/usr/lib/gcc/arm-none-eabi/13.2.1/../../../arm-none-eabi/lib/thumb/v7-m/nofp/libnosys.a(write.o)
                              /usr/lib/gcc/arm-none-eabi/13.2.1/../../../arm-none-eabi/lib/thumb/v7-m/nofp/libc_nano.a(libc_a-writer.o) (_write)
/usr/lib/gcc/arm-none-eabi/13.2.1/../../../arm-none-eabi/lib/thumb/v7-m/nofp/libnosys.a(_exit.o)
                              /usr/lib/gcc/arm-none-eabi/13.2.1/../../../arm-none-eabi/lib/thumb/v7-m/nofp/libc_nano.a(libc_a-exit.o) (_exit)
/usr/lib/gcc/arm-none-eabi/13.2.1/thumb/v7-m/nofp/libgcc.a(_arm_muldf3.o)
                              /workspaces/qgv/hoverboard-firmware-hack-FOC/build/hd44780.o (__aeabi_dmul)
/usr/lib/gcc/arm-none-eabi/13.2.1/thumb/v7-m/nofp/libgcc.a(_arm_addsubdf3.o)
                              /workspaces/qgv/hoverboard-firmware-hack-FOC/build/hd44780.o (__aeabi_dsub)
/usr/lib/gcc/arm-none-eabi/13.2.1/thumb/v7-m/nofp/libgcc.a(_arm_muldivdf3.o)
                              /workspaces/qgv/hoverboard-firmware-hack-FOC/build/hd44780.o (__aeabi_ddiv)
/usr/lib/gcc/arm-none-eabi/13.2.1/thumb/v7-m/nofp/libgcc.a(_arm_cmpdf2.o)
                              /workspaces/qgv/hoverboard-firmware-hack-FOC/build/hd44780.o (__aeabi_dcmplt)
/usr/lib/gcc/arm-none-eabi/13.2.1/thumb/v7-m/nofp/libgcc.a(_arm_fixdfsi.o)
                              /workspaces/qgv/hoverboard-firmware-hack-FOC/build/hd44780.o (__aeabi_d2iz)
/usr/lib/gcc/arm-none-eabi/13.2.1/thumb/v7-m/nofp/libgcc.a(_arm_fixunsdfsi.o)
                              /workspaces/qgv/hoverboard-firmware-hack-FOC/build/hd44780.o (__aeabi_d2uiz)

Discarded input sections

 .text          0x00000000        0x0 /usr/lib/gcc/arm-none-eabi/13.2.1/thumb/v7-m/nofp/crti.o
 .data          0x00000000        0x0 /usr/lib/gcc/arm-none-eabi/13.2.1/thumb/v7-m/nofp/crti.o
 .bss           0x00000000        0x0 /usr/lib/gcc/arm-none-eabi/13.2.1/thumb/v7-m/nofp/crti.o
 .data          0x00000000        0x4 /usr/lib/gcc/arm-none-eabi/13.2.1/thumb/v7-m/nofp/crtbegin.o
 .rodata        0x00000000       0x24 /usr/lib/gcc/arm-none-eabi/13.2.1/thumb/v7-m/nofp/crtbegin.o
 .text          0x00000000       0x70 /usr/lib/gcc/arm-none-eabi/13.2.1/../../../arm-none-eabi/lib/thumb/v7-m/nofp/crt0.o
 .data          0x00000000        0x0 /usr/lib/gcc/arm-none-eabi/13.2.1/../../../arm-none-eabi/lib/thumb/v7-m/nofp/crt0.o
 .bss           0x00000000        0x0 /usr/lib/gcc/arm-none-eabi/13.2.1/../../../arm-none-eabi/lib/thumb/v7-m/nofp/crt0.o
 .ARM.extab     0x00000000        0x0 /usr/lib/gcc/arm-none-eabi/13.2.1/../../../arm-none-eabi/lib/thumb/v7-m/nofp/crt0.o
 .ARM.exidx     0x00000000       0x10 /usr/lib/gcc/arm-none-eabi/13.2.1/../../../arm-none-eabi/lib/thumb/v7-m/nofp/crt0.o
 .debug_line    0x00000000       0x75 /usr/lib/gcc/arm-none-eabi/13.2.1/../../../arm-none-eabi/lib/thumb/v7-m/nofp/crt0.o
 .debug_line_str
                0x00000000       0x7e /usr/lib/gcc/arm-none-eabi/13.2.1/../../../arm-none-eabi/lib/thumb/v7-m/nofp/crt0.o
 .debug_info    0x00000000       0x24 /usr/lib/gcc/arm-none-eabi/13.2.1/../../../arm-none-eabi/lib/thumb/v7-m/nofp/crt0.o
 .debug_abbrev  0x00000000       0x14 /usr/lib/gcc/arm-none-eabi/13.2.1/../../../arm-none-eabi/lib/thumb/v7-m/nofp/crt0.o
 .debug_aranges
                0x00000000       0x20 /usr/lib/gcc/arm-none-eabi/13.2.1/../../../arm-none-eabi/lib/thumb/v7-m/nofp/crt0.o
 .debug_str     0x00000000       0x8a /usr/lib/gcc/arm-none-eabi/13.2.1/../../../arm-none-eabi/lib/thumb/v7-m/nofp/crt0.o
 .ARM.attributes
                0x00000000       0x1b /usr/lib/gcc/arm-none-eabi/13.2.1/../../../arm-none-eabi/lib/thumb/v7-m/nofp/crt0.o
 .text          0x00000000        0x0 /workspaces/qgv/hoverboard-firmware-hack-FOC/build/stm32f1xx_hal_flash.o
 .data          0x00000000        0x0 /workspaces/qgv/hoverboard-firmware-hack-FOC/build/stm32f1xx_hal_flash.o
 .bss           0x00000000        0x0 /workspaces/qgv/hoverboard-firmware-hack-FOC/build/stm32f1xx_hal_flash.o
 .text.HAL_FLASH_Program_IT
                0x00000000       0x6c /workspaces/qgv/hoverboard-firmware-hack-FOC/build/stm32f1xx_hal_flash.o
 .text.HAL_FLASH_EndOfOperationCallback
                0x00000000        0x2 /workspaces/qgv/hoverboard-firmware-hack-FOC/build/stm32f1xx_hal_flash.o
 .text.HAL_FLASH_OperationErrorCallback
                0x00000000        0x2 /workspaces/qgv/hoverboard-firmware-hack-FOC/build/stm32f1xx_hal_flash.o
 .text.HAL_FLASH_IRQHandler
                0x00000000      0x154 /workspaces/qgv/hoverboard-firmware-hack-FOC/build/stm32f1xx_hal_flash.o
 .text.HAL_FLASH_OB_Unlock
                0x00000000       0x28 /workspaces/qgv/hoverboard-firmware-hack-FOC/build/stm32f1xx_hal_flash.o
 .text.HAL_FLASH_OB_Lock
                0x00000000       0x14 /workspaces/qgv/hoverboard-firmware-hack-FOC/build/stm32f1xx_hal_flash.o
 .text.HAL_FLASH_OB_Launch
                0x00000000        0x8 /workspaces/qgv/hoverboard-firmware-hack-FOC/build/stm32f1xx_hal_flash.o
 .text.HAL_FLASH_GetError
                0x00000000        0xc /workspaces/qgv/hoverboard-firmware-hack-FOC/build/stm32f1xx_hal_flash.o
 .text          0x00000000        0x0 /workspaces/qgv/hoverboard-firmware-hack-FOC/build/stm32f1xx_hal_pwr.o
 .data          0x00000000        0x0 /workspaces/qgv/hoverboard-firmware-hack-FOC/build/stm32f1xx_hal_pwr.o
 .bss           0x00000000        0x0 /workspaces/qgv/hoverboard-firmware-hack-FOC/build/stm32f1xx_hal_pwr.o
 .text.PWR_OverloadWfe
                0x00000000        0x6 /workspaces/qgv/hoverboard-firmware-hack-FOC/build/stm32f1xx_hal_pwr.o
 .text.HAL_PWR_DeInit
                0x00000000       0x18 /workspaces/qgv/hoverboard-firmware-hack-FOC/build/stm32f1xx_hal_pwr.o
 .text.HAL_PWR_EnableBkUpAccess
                0x00000000        0xc /workspaces/qgv/hoverboard-firmware-hack-FOC/build/stm32f1xx_hal_pwr.o
 .text.HAL_PWR_DisableBkUpAccess
                0x00000000        0xc /workspaces/qgv/hoverboard-firmware-hack-FOC/build/stm32f1xx_hal_pwr.o
 .text.HAL_PWR_ConfigPVD
                0x00000000       0x84 /workspaces/qgv/hoverboard-firmware-hack-FOC/build/stm32f1xx_hal_pwr.o
 .text.HAL_PWR_EnablePVD
                0x00000000        0xc /workspaces/qgv/hoverboard-firmware-hack-FOC/build/stm32f1xx_hal_pwr.o
 .text.HAL_PWR_DisablePVD
                0x00000000        0xc /workspaces/qgv/hoverboard-firmware-hack-FOC/build/stm32f1xx_hal_pwr.o
 .text.HAL_PWR_EnableWakeUpPin
                0x00000000       0x18 /workspaces/qgv/hoverboard-firmware-hack-FOC/build/stm32f1xx_hal_pwr.o
 .text.HAL_PWR_DisableWakeUpPin
                0x00000000       0x18 /workspaces/qgv/hoverboard-firmware-hack-FOC/build/stm32f1xx_hal_pwr.o
 .text.HAL_PWR_EnterSLEEPMode
                0x00000000       0x20 /workspaces/qgv/hoverboard-firmware-hack-FOC/build/stm32f1xx_hal_pwr.o
 .text.HAL_PWR_EnterSTOPMode
                0x00000000       0x48 /workspaces/qgv/hoverboard-firmware-hack-FOC/build/stm32f1xx_hal_pwr.o
 .text.HAL_PWR_EnterSTANDBYMode
                0x00000000       0x20 /workspaces/qgv/hoverboard-firmware-hack-FOC/build/stm32f1xx_hal_pwr.o
 .text.HAL_PWR_EnableSleepOnExit
                0x00000000       0x10 /workspaces/qgv/hoverboard-firmware-hack-FOC/build/stm32f1xx_hal_pwr.o
 .text.HAL_PWR_DisableSleepOnExit
                0x00000000       0x10 /workspaces/qgv/hoverboard-firmware-hack-FOC/build/stm32f1xx_hal_pwr.o
 .text.HAL_PWR_EnableSEVOnPend
                0x00000000       0x10 /workspaces/qgv/hoverboard-firmware-hack-FOC/build/stm32f1xx_hal_pwr.o
 .text.HAL_PWR_DisableSEVOnPend
                0x00000000       0x10 /workspaces/qgv/hoverboard-firmware-hack-FOC/build/stm32f1xx_hal_pwr.o
 .text.HAL_PWR_PVDCallback
                0x00000000        0x2 /workspaces/qgv/hoverboard-firmware-hack-FOC/build/stm32f1xx_hal_pwr.o
 .text.HAL_PWR_PVD_IRQHandler
                0x00000000       0x20 /workspaces/qgv/hoverboard-firmware-hack-FOC/build/stm32f1xx_hal_pwr.o
 .debug_info    0x00000000      0x7fb /workspaces/qgv/hoverboard-firmware-hack-FOC/build/stm32f1xx_hal_pwr.o
 .debug_abbrev  0x00000000      0x225 /workspaces/qgv/hoverboard-firmware-hack-FOC/build/stm32f1xx_hal_pwr.o
 .debug_loc     0x00000000      0x1b2 /workspaces/qgv/hoverboard-firmware-hack-FOC/build/stm32f1xx_hal_pwr.o
 .debug_aranges
                0x00000000       0xa8 /workspaces/qgv/hoverboard-firmware-hack-FOC/build/stm32f1xx_hal_pwr.o
 .debug_ranges  0x00000000       0x98 /workspaces/qgv/hoverboard-firmware-hack-FOC/build/stm32f1xx_hal_pwr.o
 .debug_line    0x00000000      0x444 /workspaces/qgv/hoverboard-firmware-hack-FOC/build/stm32f1xx_hal_pwr.o
 .debug_str     0x00000000      0x47c /workspaces/qgv/hoverboard-firmware-hack-FOC/build/stm32f1xx_hal_pwr.o
 .comment       0x00000000       0x27 /workspaces/qgv/hoverboard-firmware-hack-FOC/build/stm32f1xx_hal_pwr.o
 .debug_frame   0x00000000      0x140 /workspaces/qgv/hoverboard-firmware-hack-FOC/build/stm32f1xx_hal_pwr.o
 .ARM.attributes
                0x00000000       0x2d /workspaces/qgv/hoverboard-firmware-hack-FOC/build/stm32f1xx_hal_pwr.o
 .text          0x00000000        0x0 /workspaces/qgv/hoverboard-firmware-hack-FOC/build/stm32f1xx_hal_rcc.o
 .data          0x00000000        0x0 /workspaces/qgv/hoverboard-firmware-hack-FOC/build/stm32f1xx_hal_rcc.o
 .bss           0x00000000        0x0 /workspaces/qgv/hoverboard-firmware-hack-FOC/build/stm32f1xx_hal_rcc.o
 .text.HAL_RCC_DeInit
                0x00000000       0x44 /workspaces/qgv/hoverboard-firmware-hack-FOC/build/stm32f1xx_hal_rcc.o
 .text.HAL_RCC_MCOConfig
                0x00000000       0x50 /workspaces/qgv/hoverboard-firmware-hack-FOC/build/stm32f1xx_hal_rcc.o
 .text.HAL_RCC_EnableCSS
                0x00000000        0xc /workspaces/qgv/hoverboard-firmware-hack-FOC/build/stm32f1xx_hal_rcc.o
 .text.HAL_RCC_DisableCSS
                0x00000000        0xc /workspaces/qgv/hoverboard-firmware-hack-FOC/build/stm32f1xx_hal_rcc.o
 .text.HAL_RCC_GetOscConfig
                0x00000000       0xb4 /workspaces/qgv/hoverboard-firmware-hack-FOC/build/stm32f1xx_hal_rcc.o
 .text.HAL_RCC_GetClockConfig
                0x00000000       0x3c /workspaces/qgv/hoverboard-firmware-hack-FOC/build/stm32f1xx_hal_rcc.o
 .text.HAL_RCC_CSSCallback
                0x00000000        0x2 /workspaces/qgv/hoverboard-firmware-hack-FOC/build/stm32f1xx_hal_rcc.o
 .text.HAL_RCC_NMI_IRQHandler
                0x00000000       0x20 /workspaces/qgv/hoverboard-firmware-hack-FOC/build/stm32f1xx_hal_rcc.o
 .text          0x00000000        0x0 /workspaces/qgv/hoverboard-firmware-hack-FOC/build/stm32f1xx_hal_tim.o
 .data          0x00000000        0x0 /workspaces/qgv/hoverboard-firmware-hack-FOC/build/stm32f1xx_hal_tim.o
 .bss           0x00000000        0x0 /workspaces/qgv/hoverboard-firmware-hack-FOC/build/stm32f1xx_hal_tim.o
 .text.TIM_TI2_SetConfig
                0x00000000       0x36 /workspaces/qgv/hoverboard-firmware-hack-FOC/build/stm32f1xx_hal_tim.o
 .text.TIM_TI3_SetConfig
                0x00000000       0x36 /workspaces/qgv/hoverboard-firmware-hack-FOC/build/stm32f1xx_hal_tim.o
 .text.TIM_TI4_SetConfig
                0x00000000       0x36 /workspaces/qgv/hoverboard-firmware-hack-FOC/build/stm32f1xx_hal_tim.o
 .text.TIM_ITRx_SetConfig
                0x00000000       0x10 /workspaces/qgv/hoverboard-firmware-hack-FOC/build/stm32f1xx_hal_tim.o
 .text.HAL_TIM_Base_MspInit
                0x00000000        0x2 /workspaces/qgv/hoverboard-firmware-hack-FOC/build/stm32f1xx_hal_tim.o
 .text.HAL_TIM_Base_MspDeInit
                0x00000000        0x2 /workspaces/qgv/hoverboard-firmware-hack-FOC/build/stm32f1xx_hal_tim.o
 .text.HAL_TIM_Base_DeInit
                0x00000000       0x3a /workspaces/qgv/hoverboard-firmware-hack-FOC/build/stm32f1xx_hal_tim.o
 .text.HAL_TIM_Base_Start
                0x00000000       0x1a /workspaces/qgv/hoverboard-firmware-hack-FOC/build/stm32f1xx_hal_tim.o
 .text.HAL_TIM_Base_Stop
                0x00000000       0x2e /workspaces/qgv/hoverboard-firmware-hack-FOC/build/stm32f1xx_hal_tim.o
 .text.HAL_TIM_Base_Start_IT
                0x00000000       0x18 /workspaces/qgv/hoverboard-firmware-hack-FOC/build/stm32f1xx_hal_tim.o
 .text.HAL_TIM_Base_Stop_IT
                0x00000000       0x2c /workspaces/qgv/hoverboard-firmware-hack-FOC/build/stm32f1xx_hal_tim.o
 .text.HAL_TIM_Base_Start_DMA
                0x00000000       0x60 /workspaces/qgv/hoverboard-firmware-hack-FOC/build/stm32f1xx_hal_tim.o
 .text.HAL_TIM_Base_Stop_DMA
                0x00000000       0x32 /workspaces/qgv/hoverboard-firmware-hack-FOC/build/stm32f1xx_hal_tim.o
 .text.HAL_TIM_OC_MspInit
                0x00000000        0x2 /workspaces/qgv/hoverboard-firmware-hack-FOC/build/stm32f1xx_hal_tim.o
 .text.HAL_TIM_OC_MspDeInit
                0x00000000        0x2 /workspaces/qgv/hoverboard-firmware-hack-FOC/build/stm32f1xx_hal_tim.o
 .text.HAL_TIM_OC_DeInit
                0x00000000       0x3a /workspaces/qgv/hoverboard-firmware-hack-FOC/build/stm32f1xx_hal_tim.o
 .text.HAL_TIM_PWM_MspDeInit
                0x00000000        0x2 /workspaces/qgv/hoverboard-firmware-hack-FOC/build/stm32f1xx_hal_tim.o
 .text.HAL_TIM_PWM_DeInit
                0x00000000       0x3a /workspaces/qgv/hoverboard-firmware-hack-FOC/build/stm32f1xx_hal_tim.o
 .text.HAL_TIM_IC_MspInit
                0x00000000        0x2 /workspaces/qgv/hoverboard-firmware-hack-FOC/build/stm32f1xx_hal_tim.o
 .text.HAL_TIM_IC_MspDeInit
                0x00000000        0x2 /workspaces/qgv/hoverboard-firmware-hack-FOC/build/stm32f1xx_hal_tim.o
 .text.HAL_TIM_IC_DeInit
                0x00000000       0x3a /workspaces/qgv/hoverboard-firmware-hack-FOC/build/stm32f1xx_hal_tim.o
 .text.HAL_TIM_OnePulse_MspInit
                0x00000000        0x2 /workspaces/qgv/hoverboard-firmware-hack-FOC/build/stm32f1xx_hal_tim.o
 .text.HAL_TIM_OnePulse_MspDeInit
                0x00000000        0x2 /workspaces/qgv/hoverboard-firmware-hack-FOC/build/stm32f1xx_hal_tim.o
 .text.HAL_TIM_OnePulse_DeInit
                0x00000000       0x3a /workspaces/qgv/hoverboard-firmware-hack-FOC/build/stm32f1xx_hal_tim.o
 .text.HAL_TIM_Encoder_MspInit
                0x00000000        0x2 /workspaces/qgv/hoverboard-firmware-hack-FOC/build/stm32f1xx_hal_tim.o
 .text.HAL_TIM_Encoder_MspDeInit
                0x00000000        0x2 /workspaces/qgv/hoverboard-firmware-hack-FOC/build/stm32f1xx_hal_tim.o
 .text.HAL_TIM_Encoder_DeInit
                0x00000000       0x3a /workspaces/qgv/hoverboard-firmware-hack-FOC/build/stm32f1xx_hal_tim.o
 .text.HAL_TIM_DMABurst_WriteStart
                0x00000000      0x14c /workspaces/qgv/hoverboard-firmware-hack-FOC/build/stm32f1xx_hal_tim.o
 .text.HAL_TIM_DMABurst_WriteStop
                0x00000000       0x76 /workspaces/qgv/hoverboard-firmware-hack-FOC/build/stm32f1xx_hal_tim.o
 .text.HAL_TIM_DMABurst_ReadStart
                0x00000000      0x14c /workspaces/qgv/hoverboard-firmware-hack-FOC/build/stm32f1xx_hal_tim.o
 .text.HAL_TIM_DMABurst_ReadStop
                0x00000000       0x76 /workspaces/qgv/hoverboard-firmware-hack-FOC/build/stm32f1xx_hal_tim.o
 .text.HAL_TIM_GenerateEvent
                0x00000000       0x2a /workspaces/qgv/hoverboard-firmware-hack-FOC/build/stm32f1xx_hal_tim.o
 .text.HAL_TIM_ConfigOCrefClear
                0x00000000       0xce /workspaces/qgv/hoverboard-firmware-hack-FOC/build/stm32f1xx_hal_tim.o
 .text.HAL_TIM_ConfigClockSource
                0x00000000      0x10a /workspaces/qgv/hoverboard-firmware-hack-FOC/build/stm32f1xx_hal_tim.o
 .text.HAL_TIM_ConfigTI1Input
                0x00000000       0x10 /workspaces/qgv/hoverboard-firmware-hack-FOC/build/stm32f1xx_hal_tim.o
 .text.HAL_TIM_SlaveConfigSynchronization_IT
                0x00000000       0x40 /workspaces/qgv/hoverboard-firmware-hack-FOC/build/stm32f1xx_hal_tim.o
 .text.HAL_TIM_ReadCapturedValue
                0x00000000       0x4c /workspaces/qgv/hoverboard-firmware-hack-FOC/build/stm32f1xx_hal_tim.o
 .text.HAL_TIM_PeriodElapsedCallback
                0x00000000        0x2 /workspaces/qgv/hoverboard-firmware-hack-FOC/build/stm32f1xx_hal_tim.o
 .text.TIM_DMAPeriodElapsedCplt
                0x00000000       0x10 /workspaces/qgv/hoverboard-firmware-hack-FOC/build/stm32f1xx_hal_tim.o
 .text.HAL_TIM_OC_DelayElapsedCallback
                0x00000000        0x2 /workspaces/qgv/hoverboard-firmware-hack-FOC/build/stm32f1xx_hal_tim.o
 .text.HAL_TIM_IC_CaptureCallback
                0x00000000        0x2 /workspaces/qgv/hoverboard-firmware-hack-FOC/build/stm32f1xx_hal_tim.o
 .text.TIM_DMACaptureCplt
                0x00000000       0x44 /workspaces/qgv/hoverboard-firmware-hack-FOC/build/stm32f1xx_hal_tim.o
 .text.HAL_TIM_PWM_PulseFinishedCallback
                0x00000000        0x2 /workspaces/qgv/hoverboard-firmware-hack-FOC/build/stm32f1xx_hal_tim.o
 .text.TIM_DMADelayPulseCplt
                0x00000000       0x44 /workspaces/qgv/hoverboard-firmware-hack-FOC/build/stm32f1xx_hal_tim.o
 .text.HAL_TIM_TriggerCallback
                0x00000000        0x2 /workspaces/qgv/hoverboard-firmware-hack-FOC/build/stm32f1xx_hal_tim.o
 .text.HAL_TIM_IRQHandler
                0x00000000      0x17a /workspaces/qgv/hoverboard-firmware-hack-FOC/build/stm32f1xx_hal_tim.o
 .text.TIM_DMATriggerCplt
                0x00000000       0x10 /workspaces/qgv/hoverboard-firmware-hack-FOC/build/stm32f1xx_hal_tim.o
 .text.HAL_TIM_ErrorCallback
                0x00000000        0x2 /workspaces/qgv/hoverboard-firmware-hack-FOC/build/stm32f1xx_hal_tim.o
 .text.TIM_DMAError
                0x00000000       0x10 /workspaces/qgv/hoverboard-firmware-hack-FOC/build/stm32f1xx_hal_tim.o
 .text.HAL_TIM_Base_GetState
                0x00000000        0x6 /workspaces/qgv/hoverboard-firmware-hack-FOC/build/stm32f1xx_hal_tim.o
 .text.HAL_TIM_OC_GetState
                0x00000000        0x6 /workspaces/qgv/hoverboard-firmware-hack-FOC/build/stm32f1xx_hal_tim.o
 .text.HAL_TIM_PWM_GetState
                0x00000000        0x6 /workspaces/qgv/hoverboard-firmware-hack-FOC/build/stm32f1xx_hal_tim.o
 .text.HAL_TIM_IC_GetState
                0x00000000        0x6 /workspaces/qgv/hoverboard-firmware-hack-FOC/build/stm32f1xx_hal_tim.o
 .text.HAL_TIM_OnePulse_GetState
                0x00000000        0x6 /workspaces/qgv/hoverboard-firmware-hack-FOC/build/stm32f1xx_hal_tim.o
 .text.HAL_TIM_Encoder_GetState
                0x00000000        0x6 /workspaces/qgv/hoverboard-firmware-hack-FOC/build/stm32f1xx_hal_tim.o
 .text.HAL_TIM_Base_Init
                0x00000000       0x34 /workspaces/qgv/hoverboard-firmware-hack-FOC/build/stm32f1xx_hal_tim.o
 .text.HAL_TIM_OC_Init
                0x00000000       0x34 /workspaces/qgv/hoverboard-firmware-hack-FOC/build/stm32f1xx_hal_tim.o
 .text.HAL_TIM_IC_Init
                0x00000000       0x34 /workspaces/qgv/hoverboard-firmware-hack-FOC/build/stm32f1xx_hal_tim.o
 .text.HAL_TIM_OnePulse_Init
                0x00000000       0x48 /workspaces/qgv/hoverboard-firmware-hack-FOC/build/stm32f1xx_hal_tim.o
 .text.HAL_TIM_Encoder_Init
                0x00000000       0x9e /workspaces/qgv/hoverboard-firmware-hack-FOC/build/stm32f1xx_hal_tim.o
 .text.HAL_TIM_OC_ConfigChannel
                0x00000000       0x5e /workspaces/qgv/hoverboard-firmware-hack-FOC/build/stm32f1xx_hal_tim.o
 .text.TIM_TI1_SetConfig
                0x00000000       0x6c /workspaces/qgv/hoverboard-firmware-hack-FOC/build/stm32f1xx_hal_tim.o
 .text.HAL_TIM_IC_ConfigChannel
                0x00000000       0xc0 /workspaces/qgv/hoverboard-firmware-hack-FOC/build/stm32f1xx_hal_tim.o
 .text.HAL_TIM_OnePulse_ConfigChannel
                0x00000000       0xee /workspaces/qgv/hoverboard-firmware-hack-FOC/build/stm32f1xx_hal_tim.o
 .text.HAL_TIM_OC_Start
                0x00000000       0x38 /workspaces/qgv/hoverboard-firmware-hack-FOC/build/stm32f1xx_hal_tim.o
 .text.HAL_TIM_OC_Stop
                0x00000000       0x60 /workspaces/qgv/hoverboard-firmware-hack-FOC/build/stm32f1xx_hal_tim.o
 .text.HAL_TIM_OC_Start_IT
                0x00000000       0x7c /workspaces/qgv/hoverboard-firmware-hack-FOC/build/stm32f1xx_hal_tim.o
 .text.HAL_TIM_OC_Stop_IT
                0x00000000       0xa4 /workspaces/qgv/hoverboard-firmware-hack-FOC/build/stm32f1xx_hal_tim.o
 .text.HAL_TIM_OC_Start_DMA
                0x00000000      0x104 /workspaces/qgv/hoverboard-firmware-hack-FOC/build/stm32f1xx_hal_tim.o
 .text.HAL_TIM_OC_Stop_DMA
                0x00000000       0xac /workspaces/qgv/hoverboard-firmware-hack-FOC/build/stm32f1xx_hal_tim.o
 .text.HAL_TIM_PWM_Stop
                0x00000000       0x68 /workspaces/qgv/hoverboard-firmware-hack-FOC/build/stm32f1xx_hal_tim.o
 .text.HAL_TIM_PWM_Start_IT
                0x00000000       0x7c /workspaces/qgv/hoverboard-firmware-hack-FOC/build/stm32f1xx_hal_tim.o
 .text.HAL_TIM_PWM_Stop_IT
                0x00000000       0xa4 /workspaces/qgv/hoverboard-firmware-hack-FOC/build/stm32f1xx_hal_tim.o
 .text.HAL_TIM_PWM_Start_DMA
                0x00000000      0x104 /workspaces/qgv/hoverboard-firmware-hack-FOC/build/stm32f1xx_hal_tim.o
 .text.HAL_TIM_PWM_Stop_DMA
                0x00000000       0xac /workspaces/qgv/hoverboard-firmware-hack-FOC/build/stm32f1xx_hal_tim.o
 .text.HAL_TIM_IC_Start
                0x00000000       0x1a /workspaces/qgv/hoverboard-firmware-hack-FOC/build/stm32f1xx_hal_tim.o
 .text.HAL_TIM_IC_Stop
                0x00000000       0x2e /workspaces/qgv/hoverboard-firmware-hack-FOC/build/stm32f1xx_hal_tim.o
 .text.HAL_TIM_IC_Start_IT
                0x00000000       0x5e /workspaces/qgv/hoverboard-firmware-hack-FOC/build/stm32f1xx_hal_tim.o
 .text.HAL_TIM_IC_Stop_IT
                0x00000000       0x72 /workspaces/qgv/hoverboard-firmware-hack-FOC/build/stm32f1xx_hal_tim.o
 .text.HAL_TIM_IC_Start_DMA
                0x00000000       0xe8 /workspaces/qgv/hoverboard-firmware-hack-FOC/build/stm32f1xx_hal_tim.o
 .text.HAL_TIM_IC_Stop_DMA
                0x00000000       0x78 /workspaces/qgv/hoverboard-firmware-hack-FOC/build/stm32f1xx_hal_tim.o
 .text.HAL_TIM_OnePulse_Start
                0x00000000       0x38 /workspaces/qgv/hoverboard-firmware-hack-FOC/build/stm32f1xx_hal_tim.o
 .text.HAL_TIM_OnePulse_Stop
                0x00000000       0x6c /workspaces/qgv/hoverboard-firmware-hack-FOC/build/stm32f1xx_hal_tim.o
 .text.HAL_TIM_OnePulse_Start_IT
                0x00000000       0x4c /workspaces/qgv/hoverboard-firmware-hack-FOC/build/stm32f1xx_hal_tim.o
 .text.HAL_TIM_OnePulse_Stop_IT
                0x00000000       0x80 /workspaces/qgv/hoverboard-firmware-hack-FOC/build/stm32f1xx_hal_tim.o
 .text.HAL_TIM_Encoder_Start
                0x00000000       0x44 /workspaces/qgv/hoverboard-firmware-hack-FOC/build/stm32f1xx_hal_tim.o
 .text.HAL_TIM_Encoder_Stop
                0x00000000       0x58 /workspaces/qgv/hoverboard-firmware-hack-FOC/build/stm32f1xx_hal_tim.o
 .text.HAL_TIM_Encoder_Start_IT
                0x00000000       0x6c /workspaces/qgv/hoverboard-firmware-hack-FOC/build/stm32f1xx_hal_tim.o
 .text.HAL_TIM_Encoder_Stop_IT
                0x00000000       0x86 /workspaces/qgv/hoverboard-firmware-hack-FOC/build/stm32f1xx_hal_tim.o
 .text.HAL_TIM_Encoder_Start_DMA
                0x00000000      0x12c /workspaces/qgv/hoverboard-firmware-hack-FOC/build/stm32f1xx_hal_tim.o
 .text.HAL_TIM_Encoder_Stop_DMA
                0x00000000       0x86 /workspaces/qgv/hoverboard-firmware-hack-FOC/build/stm32f1xx_hal_tim.o
 .text          0x00000000        0x0 /workspaces/qgv/hoverboard-firmware-hack-FOC/build/stm32f1xx_hal_tim_ex.o
 .data          0x00000000        0x0 /workspaces/qgv/hoverboard-firmware-hack-FOC/build/stm32f1xx_hal_tim_ex.o
 .bss           0x00000000        0x0 /workspaces/qgv/hoverboard-firmware-hack-FOC/build/stm32f1xx_hal_tim_ex.o
 .text.HAL_TIMEx_HallSensor_MspInit
                0x00000000        0x2 /workspaces/qgv/hoverboard-firmware-hack-FOC/build/stm32f1xx_hal_tim_ex.o
 .text.HAL_TIMEx_HallSensor_Init
                0x00000000       0xc0 /workspaces/qgv/hoverboard-firmware-hack-FOC/build/stm32f1xx_hal_tim_ex.o
 .text.HAL_TIMEx_HallSensor_MspDeInit
                0x00000000        0x2 /workspaces/qgv/hoverboard-firmware-hack-FOC/build/stm32f1xx_hal_tim_ex.o
 .text.HAL_TIMEx_HallSensor_DeInit
                0x00000000       0x3a /workspaces/qgv/hoverboard-firmware-hack-FOC/build/stm32f1xx_hal_tim_ex.o
 .text.HAL_TIMEx_HallSensor_Start
                0x00000000       0x1c /workspaces/qgv/hoverboard-firmware-hack-FOC/build/stm32f1xx_hal_tim_ex.o
 .text.HAL_TIMEx_HallSensor_Stop
                0x00000000       0x30 /workspaces/qgv/hoverboard-firmware-hack-FOC/build/stm32f1xx_hal_tim_ex.o
 .text.HAL_TIMEx_HallSensor_Start_IT
                0x00000000       0x26 /workspaces/qgv/hoverboard-firmware-hack-FOC/build/stm32f1xx_hal_tim_ex.o
 .text.HAL_TIMEx_HallSensor_Stop_IT
                0x00000000       0x3a /workspaces/qgv/hoverboard-firmware-hack-FOC/build/stm32f1xx_hal_tim_ex.o
 .text.HAL_TIMEx_HallSensor_Start_DMA
                0x00000000       0x70 /workspaces/qgv/hoverboard-firmware-hack-FOC/build/stm32f1xx_hal_tim_ex.o
 .text.HAL_TIMEx_HallSensor_Stop_DMA
                0x00000000       0x3a /workspaces/qgv/hoverboard-firmware-hack-FOC/build/stm32f1xx_hal_tim_ex.o
 .text.HAL_TIMEx_OCN_Start
                0x00000000       0x24 /workspaces/qgv/hoverboard-firmware-hack-FOC/build/stm32f1xx_hal_tim_ex.o
 .text.HAL_TIMEx_OCN_Stop
                0x00000000       0x4c /workspaces/qgv/hoverboard-firmware-hack-FOC/build/stm32f1xx_hal_tim_ex.o
 .text.HAL_TIMEx_OCN_Start_IT
                0x00000000       0x72 /workspaces/qgv/hoverboard-firmware-hack-FOC/build/stm32f1xx_hal_tim_ex.o
 .text.HAL_TIMEx_OCN_Stop_IT
                0x00000000       0xa4 /workspaces/qgv/hoverboard-firmware-hack-FOC/build/stm32f1xx_hal_tim_ex.o
 .text.HAL_TIMEx_OCN_Start_DMA
                0x00000000       0xf4 /workspaces/qgv/hoverboard-firmware-hack-FOC/build/stm32f1xx_hal_tim_ex.o
 .text.HAL_TIMEx_OCN_Stop_DMA
                0x00000000       0x96 /workspaces/qgv/hoverboard-firmware-hack-FOC/build/stm32f1xx_hal_tim_ex.o
 .text.HAL_TIMEx_PWMN_Stop
                0x00000000       0x4c /workspaces/qgv/hoverboard-firmware-hack-FOC/build/stm32f1xx_hal_tim_ex.o
 .text.HAL_TIMEx_PWMN_Start_IT
                0x00000000       0x72 /workspaces/qgv/hoverboard-firmware-hack-FOC/build/stm32f1xx_hal_tim_ex.o
 .text.HAL_TIMEx_PWMN_Stop_IT
                0x00000000       0xa4 /workspaces/qgv/hoverboard-firmware-hack-FOC/build/stm32f1xx_hal_tim_ex.o
 .text.HAL_TIMEx_PWMN_Start_DMA
                0x00000000       0xf4 /workspaces/qgv/hoverboard-firmware-hack-FOC/build/stm32f1xx_hal_tim_ex.o
 .text.HAL_TIMEx_PWMN_Stop_DMA
                0x00000000       0x96 /workspaces/qgv/hoverboard-firmware-hack-FOC/build/stm32f1xx_hal_tim_ex.o
 .text.HAL_TIMEx_OnePulseN_Start
                0x00000000       0x1a /workspaces/qgv/hoverboard-firmware-hack-FOC/build/stm32f1xx_hal_tim_ex.o
 .text.HAL_TIMEx_OnePulseN_Stop
                0x00000000       0x4c /workspaces/qgv/hoverboard-firmware-hack-FOC/build/stm32f1xx_hal_tim_ex.o
 .text.HAL_TIMEx_OnePulseN_Start_IT
                0x00000000       0x2e /workspaces/qgv/hoverboard-firmware-hack-FOC/build/stm32f1xx_hal_tim_ex.o
 .text.HAL_TIMEx_OnePulseN_Stop_IT
                0x00000000       0x60 /workspaces/qgv/hoverboard-firmware-hack-FOC/build/stm32f1xx_hal_tim_ex.o
 .text.HAL_TIMEx_ConfigCommutationEvent
                0x00000000       0x60 /workspaces/qgv/hoverboard-firmware-hack-FOC/build/stm32f1xx_hal_tim_ex.o
 .text.HAL_TIMEx_ConfigCommutationEvent_IT
                0x00000000       0x6a /workspaces/qgv/hoverboard-firmware-hack-FOC/build/stm32f1xx_hal_tim_ex.o
 .text.HAL_TIMEx_ConfigCommutationEvent_DMA
                0x00000000       0x80 /workspaces/qgv/hoverboard-firmware-hack-FOC/build/stm32f1xx_hal_tim_ex.o
 .text.HAL_TIMEx_CommutationCallback
                0x00000000        0x2 /workspaces/qgv/hoverboard-firmware-hack-FOC/build/stm32f1xx_hal_tim_ex.o
 .text.TIMEx_DMACommutationCplt
                0x00000000       0x10 /workspaces/qgv/hoverboard-firmware-hack-FOC/build/stm32f1xx_hal_tim_ex.o
 .text.HAL_TIMEx_BreakCallback
                0x00000000        0x2 /workspaces/qgv/hoverboard-firmware-hack-FOC/build/stm32f1xx_hal_tim_ex.o
 .text.HAL_TIMEx_HallSensor_GetState
                0x00000000        0x6 /workspaces/qgv/hoverboard-firmware-hack-FOC/build/stm32f1xx_hal_tim_ex.o
 .text          0x00000000        0x0 /workspaces/qgv/hoverboard-firmware-hack-FOC/build/stm32f1xx_hal_gpio_ex.o
 .data          0x00000000        0x0 /workspaces/qgv/hoverboard-firmware-hack-FOC/build/stm32f1xx_hal_gpio_ex.o
 .bss           0x00000000        0x0 /workspaces/qgv/hoverboard-firmware-hack-FOC/build/stm32f1xx_hal_gpio_ex.o
 .text.HAL_GPIOEx_ConfigEventout
                0x00000000       0x14 /workspaces/qgv/hoverboard-firmware-hack-FOC/build/stm32f1xx_hal_gpio_ex.o
 .text.HAL_GPIOEx_EnableEventout
                0x00000000       0x10 /workspaces/qgv/hoverboard-firmware-hack-FOC/build/stm32f1xx_hal_gpio_ex.o
 .text.HAL_GPIOEx_DisableEventout
                0x00000000       0x10 /workspaces/qgv/hoverboard-firmware-hack-FOC/build/stm32f1xx_hal_gpio_ex.o
 .debug_info    0x00000000      0x171 /workspaces/qgv/hoverboard-firmware-hack-FOC/build/stm32f1xx_hal_gpio_ex.o
 .debug_abbrev  0x00000000       0xdc /workspaces/qgv/hoverboard-firmware-hack-FOC/build/stm32f1xx_hal_gpio_ex.o
 .debug_loc     0x00000000       0x2b /workspaces/qgv/hoverboard-firmware-hack-FOC/build/stm32f1xx_hal_gpio_ex.o
 .debug_aranges
                0x00000000       0x30 /workspaces/qgv/hoverboard-firmware-hack-FOC/build/stm32f1xx_hal_gpio_ex.o
 .debug_ranges  0x00000000       0x20 /workspaces/qgv/hoverboard-firmware-hack-FOC/build/stm32f1xx_hal_gpio_ex.o
 .debug_line    0x00000000      0x118 /workspaces/qgv/hoverboard-firmware-hack-FOC/build/stm32f1xx_hal_gpio_ex.o
 .debug_str     0x00000000      0x230 /workspaces/qgv/hoverboard-firmware-hack-FOC/build/stm32f1xx_hal_gpio_ex.o
 .comment       0x00000000       0x27 /workspaces/qgv/hoverboard-firmware-hack-FOC/build/stm32f1xx_hal_gpio_ex.o
 .debug_frame   0x00000000       0x40 /workspaces/qgv/hoverboard-firmware-hack-FOC/build/stm32f1xx_hal_gpio_ex.o
 .ARM.attributes
                0x00000000       0x2d /workspaces/qgv/hoverboard-firmware-hack-FOC/build/stm32f1xx_hal_gpio_ex.o
 .text          0x00000000        0x0 /workspaces/qgv/hoverboard-firmware-hack-FOC/build/stm32f1xx_hal_adc_ex.o
 .data          0x00000000        0x0 /workspaces/qgv/hoverboard-firmware-hack-FOC/build/stm32f1xx_hal_adc_ex.o
 .bss           0x00000000        0x0 /workspaces/qgv/hoverboard-firmware-hack-FOC/build/stm32f1xx_hal_adc_ex.o
 .text.HAL_ADCEx_Calibration_Start
                0x00000000       0xec /workspaces/qgv/hoverboard-firmware-hack-FOC/build/stm32f1xx_hal_adc_ex.o
 .text.HAL_ADCEx_InjectedStart
                0x00000000       0xb8 /workspaces/qgv/hoverboard-firmware-hack-FOC/build/stm32f1xx_hal_adc_ex.o
 .text.HAL_ADCEx_InjectedStop
                0x00000000       0x54 /workspaces/qgv/hoverboard-firmware-hack-FOC/build/stm32f1xx_hal_adc_ex.o
 .text.HAL_ADCEx_InjectedPollForConversion
                0x00000000      0x168 /workspaces/qgv/hoverboard-firmware-hack-FOC/build/stm32f1xx_hal_adc_ex.o
 .text.HAL_ADCEx_InjectedStart_IT
                0x00000000       0xc0 /workspaces/qgv/hoverboard-firmware-hack-FOC/build/stm32f1xx_hal_adc_ex.o
 .text.HAL_ADCEx_InjectedStop_IT
                0x00000000       0x5e /workspaces/qgv/hoverboard-firmware-hack-FOC/build/stm32f1xx_hal_adc_ex.o
 .text.HAL_ADCEx_MultiModeStart_DMA
                0x00000000       0xf4 /workspaces/qgv/hoverboard-firmware-hack-FOC/build/stm32f1xx_hal_adc_ex.o
 .text.HAL_ADCEx_MultiModeStop_DMA
                0x00000000       0x78 /workspaces/qgv/hoverboard-firmware-hack-FOC/build/stm32f1xx_hal_adc_ex.o
 .text.HAL_ADCEx_InjectedGetValue
                0x00000000       0x24 /workspaces/qgv/hoverboard-firmware-hack-FOC/build/stm32f1xx_hal_adc_ex.o
 .text.HAL_ADCEx_MultiModeGetValue
                0x00000000       0x20 /workspaces/qgv/hoverboard-firmware-hack-FOC/build/stm32f1xx_hal_adc_ex.o
 .text.HAL_ADCEx_InjectedConvCpltCallback
                0x00000000        0x2 /workspaces/qgv/hoverboard-firmware-hack-FOC/build/stm32f1xx_hal_adc_ex.o
 .text.HAL_ADCEx_InjectedConfigChannel
                0x00000000      0x238 /workspaces/qgv/hoverboard-firmware-hack-FOC/build/stm32f1xx_hal_adc_ex.o
 .text          0x00000000        0x0 /workspaces/qgv/hoverboard-firmware-hack-FOC/build/stm32f1xx_hal_cortex.o
 .data          0x00000000        0x0 /workspaces/qgv/hoverboard-firmware-hack-FOC/build/stm32f1xx_hal_cortex.o
 .bss           0x00000000        0x0 /workspaces/qgv/hoverboard-firmware-hack-FOC/build/stm32f1xx_hal_cortex.o
 .text.NVIC_GetPriority
                0x00000000       0x24 /workspaces/qgv/hoverboard-firmware-hack-FOC/build/stm32f1xx_hal_cortex.o
 .text.NVIC_DecodePriority
                0x00000000       0x3e /workspaces/qgv/hoverboard-firmware-hack-FOC/build/stm32f1xx_hal_cortex.o
 .text.NVIC_SystemReset
                0x00000000       0x24 /workspaces/qgv/hoverboard-firmware-hack-FOC/build/stm32f1xx_hal_cortex.o
 .text.HAL_NVIC_DisableIRQ
                0x00000000       0x18 /workspaces/qgv/hoverboard-firmware-hack-FOC/build/stm32f1xx_hal_cortex.o
 .text.HAL_NVIC_SystemReset
                0x00000000        0x6 /workspaces/qgv/hoverboard-firmware-hack-FOC/build/stm32f1xx_hal_cortex.o
 .text.HAL_NVIC_GetPriorityGrouping
                0x00000000       0x10 /workspaces/qgv/hoverboard-firmware-hack-FOC/build/stm32f1xx_hal_cortex.o
 .text.HAL_NVIC_GetPriority
                0x00000000       0x18 /workspaces/qgv/hoverboard-firmware-hack-FOC/build/stm32f1xx_hal_cortex.o
 .text.HAL_NVIC_SetPendingIRQ
                0x00000000       0x18 /workspaces/qgv/hoverboard-firmware-hack-FOC/build/stm32f1xx_hal_cortex.o
 .text.HAL_NVIC_GetPendingIRQ
                0x00000000       0x1c /workspaces/qgv/hoverboard-firmware-hack-FOC/build/stm32f1xx_hal_cortex.o
 .text.HAL_NVIC_ClearPendingIRQ
                0x00000000       0x18 /workspaces/qgv/hoverboard-firmware-hack-FOC/build/stm32f1xx_hal_cortex.o
 .text.HAL_NVIC_GetActive
                0x00000000       0x1c /workspaces/qgv/hoverboard-firmware-hack-FOC/build/stm32f1xx_hal_cortex.o
 .text          0x00000000        0x0 /workspaces/qgv/hoverboard-firmware-hack-FOC/build/stm32f1xx_hal_flash_ex.o
 .data          0x00000000        0x0 /workspaces/qgv/hoverboard-firmware-hack-FOC/build/stm32f1xx_hal_flash_ex.o
 .bss           0x00000000        0x0 /workspaces/qgv/hoverboard-firmware-hack-FOC/build/stm32f1xx_hal_flash_ex.o
 .text.FLASH_OB_GetWRP
                0x00000000        0xc /workspaces/qgv/hoverboard-firmware-hack-FOC/build/stm32f1xx_hal_flash_ex.o
 .text.FLASH_OB_GetRDP
                0x00000000       0x18 /workspaces/qgv/hoverboard-firmware-hack-FOC/build/stm32f1xx_hal_flash_ex.o
 .text.FLASH_OB_GetUser
                0x00000000       0x10 /workspaces/qgv/hoverboard-firmware-hack-FOC/build/stm32f1xx_hal_flash_ex.o
 .text.FLASH_OB_RDP_LevelConfig
                0x00000000       0x68 /workspaces/qgv/hoverboard-firmware-hack-FOC/build/stm32f1xx_hal_flash_ex.o
 .text.FLASH_OB_UserConfig
                0x00000000       0x48 /workspaces/qgv/hoverboard-firmware-hack-FOC/build/stm32f1xx_hal_flash_ex.o
 .text.FLASH_OB_ProgramData
                0x00000000       0x40 /workspaces/qgv/hoverboard-firmware-hack-FOC/build/stm32f1xx_hal_flash_ex.o
 .text.HAL_FLASHEx_OBErase
                0x00000000       0x50 /workspaces/qgv/hoverboard-firmware-hack-FOC/build/stm32f1xx_hal_flash_ex.o
 .text.FLASH_OB_EnableWRP
                0x00000000       0xc4 /workspaces/qgv/hoverboard-firmware-hack-FOC/build/stm32f1xx_hal_flash_ex.o
 .text.FLASH_OB_DisableWRP
                0x00000000       0xc8 /workspaces/qgv/hoverboard-firmware-hack-FOC/build/stm32f1xx_hal_flash_ex.o
 .text.HAL_FLASHEx_OBProgram
                0x00000000       0x9c /workspaces/qgv/hoverboard-firmware-hack-FOC/build/stm32f1xx_hal_flash_ex.o
 .text.HAL_FLASHEx_OBGetConfig
                0x00000000       0x1c /workspaces/qgv/hoverboard-firmware-hack-FOC/build/stm32f1xx_hal_flash_ex.o
 .text.HAL_FLASHEx_OBGetUserData
                0x00000000       0x24 /workspaces/qgv/hoverboard-firmware-hack-FOC/build/stm32f1xx_hal_flash_ex.o
 .text.HAL_FLASHEx_Erase_IT
                0x00000000       0x5c /workspaces/qgv/hoverboard-firmware-hack-FOC/build/stm32f1xx_hal_flash_ex.o
 .text          0x00000000        0x0 /workspaces/qgv/hoverboard-firmware-hack-FOC/build/stm32f1xx_hal_gpio.o
 .data          0x00000000        0x0 /workspaces/qgv/hoverboard-firmware-hack-FOC/build/stm32f1xx_hal_gpio.o
 .bss           0x00000000        0x0 /workspaces/qgv/hoverboard-firmware-hack-FOC/build/stm32f1xx_hal_gpio.o
 .text.HAL_GPIO_DeInit
                0x00000000      0x110 /workspaces/qgv/hoverboard-firmware-hack-FOC/build/stm32f1xx_hal_gpio.o
 .text.HAL_GPIO_LockPin
                0x00000000       0x2e /workspaces/qgv/hoverboard-firmware-hack-FOC/build/stm32f1xx_hal_gpio.o
 .text.HAL_GPIO_EXTI_Callback
                0x00000000        0x2 /workspaces/qgv/hoverboard-firmware-hack-FOC/build/stm32f1xx_hal_gpio.o
 .text.HAL_GPIO_EXTI_IRQHandler
                0x00000000       0x1c /workspaces/qgv/hoverboard-firmware-hack-FOC/build/stm32f1xx_hal_gpio.o
 .text          0x00000000        0x0 /workspaces/qgv/hoverboard-firmware-hack-FOC/build/stm32f1xx_hal_rcc_ex.o
 .data          0x00000000        0x0 /workspaces/qgv/hoverboard-firmware-hack-FOC/build/stm32f1xx_hal_rcc_ex.o
 .bss           0x00000000        0x0 /workspaces/qgv/hoverboard-firmware-hack-FOC/build/stm32f1xx_hal_rcc_ex.o
 .text.HAL_RCCEx_GetPeriphCLKConfig
                0x00000000       0x3c /workspaces/qgv/hoverboard-firmware-hack-FOC/build/stm32f1xx_hal_rcc_ex.o
 .rodata.HAL_RCCEx_GetPeriphCLKFreq.str1.4
                0x00000000       0x11 /workspaces/qgv/hoverboard-firmware-hack-FOC/build/stm32f1xx_hal_rcc_ex.o
 .text.HAL_RCCEx_GetPeriphCLKFreq
                0x00000000      0x118 /workspaces/qgv/hoverboard-firmware-hack-FOC/build/stm32f1xx_hal_rcc_ex.o
 .text          0x00000000        0x0 /workspaces/qgv/hoverboard-firmware-hack-FOC/build/stm32f1xx_hal.o
 .data          0x00000000        0x0 /workspaces/qgv/hoverboard-firmware-hack-FOC/build/stm32f1xx_hal.o
 .bss           0x00000000        0x0 /workspaces/qgv/hoverboard-firmware-hack-FOC/build/stm32f1xx_hal.o
 .text.HAL_MspDeInit
                0x00000000        0x2 /workspaces/qgv/hoverboard-firmware-hack-FOC/build/stm32f1xx_hal.o
 .text.HAL_DeInit
                0x00000000       0x20 /workspaces/qgv/hoverboard-firmware-hack-FOC/build/stm32f1xx_hal.o
 .text.HAL_SuspendTick
                0x00000000        0xe /workspaces/qgv/hoverboard-firmware-hack-FOC/build/stm32f1xx_hal.o
 .text.HAL_ResumeTick
                0x00000000        0xe /workspaces/qgv/hoverboard-firmware-hack-FOC/build/stm32f1xx_hal.o
 .text.HAL_GetHalVersion
                0x00000000        0x8 /workspaces/qgv/hoverboard-firmware-hack-FOC/build/stm32f1xx_hal.o
 .text.HAL_GetREVID
                0x00000000        0xc /workspaces/qgv/hoverboard-firmware-hack-FOC/build/stm32f1xx_hal.o
 .text.HAL_GetDEVID
                0x00000000       0x10 /workspaces/qgv/hoverboard-firmware-hack-FOC/build/stm32f1xx_hal.o
 .text.HAL_DBGMCU_EnableDBGSleepMode
                0x00000000       0x10 /workspaces/qgv/hoverboard-firmware-hack-FOC/build/stm32f1xx_hal.o
 .text.HAL_DBGMCU_DisableDBGSleepMode
                0x00000000       0x10 /workspaces/qgv/hoverboard-firmware-hack-FOC/build/stm32f1xx_hal.o
 .text.HAL_DBGMCU_EnableDBGStopMode
                0x00000000       0x10 /workspaces/qgv/hoverboard-firmware-hack-FOC/build/stm32f1xx_hal.o
 .text.HAL_DBGMCU_DisableDBGStopMode
                0x00000000       0x10 /workspaces/qgv/hoverboard-firmware-hack-FOC/build/stm32f1xx_hal.o
 .text.HAL_DBGMCU_EnableDBGStandbyMode
                0x00000000       0x10 /workspaces/qgv/hoverboard-firmware-hack-FOC/build/stm32f1xx_hal.o
 .text.HAL_DBGMCU_DisableDBGStandbyMode
                0x00000000       0x10 /workspaces/qgv/hoverboard-firmware-hack-FOC/build/stm32f1xx_hal.o
 .text.HAL_GetUID
                0x00000000       0x1c /workspaces/qgv/hoverboard-firmware-hack-FOC/build/stm32f1xx_hal.o
 .text          0x00000000        0x0 /workspaces/qgv/hoverboard-firmware-hack-FOC/build/stm32f1xx_hal_adc.o
 .data          0x00000000        0x0 /workspaces/qgv/hoverboard-firmware-hack-FOC/build/stm32f1xx_hal_adc.o
 .bss           0x00000000        0x0 /workspaces/qgv/hoverboard-firmware-hack-FOC/build/stm32f1xx_hal_adc.o
 .text.HAL_ADC_MspDeInit
                0x00000000        0x2 /workspaces/qgv/hoverboard-firmware-hack-FOC/build/stm32f1xx_hal_adc.o
 .text.HAL_ADC_PollForConversion
                0x00000000      0x170 /workspaces/qgv/hoverboard-firmware-hack-FOC/build/stm32f1xx_hal_adc.o
 .text.HAL_ADC_PollForEvent
                0x00000000       0x54 /workspaces/qgv/hoverboard-firmware-hack-FOC/build/stm32f1xx_hal_adc.o
 .text.HAL_ADC_GetValue
                0x00000000        0x6 /workspaces/qgv/hoverboard-firmware-hack-FOC/build/stm32f1xx_hal_adc.o
 .text.HAL_ADC_ConvCpltCallback
                0x00000000        0x2 /workspaces/qgv/hoverboard-firmware-hack-FOC/build/stm32f1xx_hal_adc.o
 .text.ADC_DMAConvCplt
                0x00000000       0x52 /workspaces/qgv/hoverboard-firmware-hack-FOC/build/stm32f1xx_hal_adc.o
 .text.HAL_ADC_ConvHalfCpltCallback
                0x00000000        0x2 /workspaces/qgv/hoverboard-firmware-hack-FOC/build/stm32f1xx_hal_adc.o
 .text.ADC_DMAHalfConvCplt
                0x00000000        0xa /workspaces/qgv/hoverboard-firmware-hack-FOC/build/stm32f1xx_hal_adc.o
 .text.HAL_ADC_LevelOutOfWindowCallback
                0x00000000        0x2 /workspaces/qgv/hoverboard-firmware-hack-FOC/build/stm32f1xx_hal_adc.o
 .text.HAL_ADC_IRQHandler
                0x00000000      0x10c /workspaces/qgv/hoverboard-firmware-hack-FOC/build/stm32f1xx_hal_adc.o
 .text.HAL_ADC_ErrorCallback
                0x00000000        0x2 /workspaces/qgv/hoverboard-firmware-hack-FOC/build/stm32f1xx_hal_adc.o
 .text.ADC_DMAError
                0x00000000       0x1a /workspaces/qgv/hoverboard-firmware-hack-FOC/build/stm32f1xx_hal_adc.o
 .text.HAL_ADC_AnalogWDGConfig
                0x00000000       0x60 /workspaces/qgv/hoverboard-firmware-hack-FOC/build/stm32f1xx_hal_adc.o
 .text.HAL_ADC_GetState
                0x00000000        0x4 /workspaces/qgv/hoverboard-firmware-hack-FOC/build/stm32f1xx_hal_adc.o
 .text.HAL_ADC_GetError
                0x00000000        0x4 /workspaces/qgv/hoverboard-firmware-hack-FOC/build/stm32f1xx_hal_adc.o
 .text.HAL_ADC_Start_IT
                0x00000000       0xf0 /workspaces/qgv/hoverboard-firmware-hack-FOC/build/stm32f1xx_hal_adc.o
 .text.HAL_ADC_Start_DMA
                0x00000000      0x130 /workspaces/qgv/hoverboard-firmware-hack-FOC/build/stm32f1xx_hal_adc.o
 .text.HAL_ADC_DeInit
                0x00000000       0xe4 /workspaces/qgv/hoverboard-firmware-hack-FOC/build/stm32f1xx_hal_adc.o
 .text.HAL_ADC_Stop
                0x00000000       0x34 /workspaces/qgv/hoverboard-firmware-hack-FOC/build/stm32f1xx_hal_adc.o
 .text.HAL_ADC_Stop_IT
                0x00000000       0x3e /workspaces/qgv/hoverboard-firmware-hack-FOC/build/stm32f1xx_hal_adc.o
 .text.HAL_ADC_Stop_DMA
                0x00000000       0x52 /workspaces/qgv/hoverboard-firmware-hack-FOC/build/stm32f1xx_hal_adc.o
 .text          0x00000000        0x0 /workspaces/qgv/hoverboard-firmware-hack-FOC/build/stm32f1xx_hal_uart.o
 .data          0x00000000        0x0 /workspaces/qgv/hoverboard-firmware-hack-FOC/build/stm32f1xx_hal_uart.o
 .bss           0x00000000        0x0 /workspaces/qgv/hoverboard-firmware-hack-FOC/build/stm32f1xx_hal_uart.o
 .text.UART_WaitOnFlagUntilTimeout
                0x00000000       0x68 /workspaces/qgv/hoverboard-firmware-hack-FOC/build/stm32f1xx_hal_uart.o
 .text.HAL_UART_MspInit
                0x00000000        0x2 /workspaces/qgv/hoverboard-firmware-hack-FOC/build/stm32f1xx_hal_uart.o
 .text.HAL_HalfDuplex_Init
                0x00000000       0x6a /workspaces/qgv/hoverboard-firmware-hack-FOC/build/stm32f1xx_hal_uart.o
 .text.HAL_LIN_Init
                0x00000000       0x78 /workspaces/qgv/hoverboard-firmware-hack-FOC/build/stm32f1xx_hal_uart.o
 .text.HAL_MultiProcessor_Init
                0x00000000       0x7e /workspaces/qgv/hoverboard-firmware-hack-FOC/build/stm32f1xx_hal_uart.o
 .text.HAL_UART_MspDeInit
                0x00000000        0x2 /workspaces/qgv/hoverboard-firmware-hack-FOC/build/stm32f1xx_hal_uart.o
 .text.HAL_UART_DeInit
                0x00000000       0x26 /workspaces/qgv/hoverboard-firmware-hack-FOC/build/stm32f1xx_hal_uart.o
 .text.HAL_UART_Transmit
                0x00000000       0xde /workspaces/qgv/hoverboard-firmware-hack-FOC/build/stm32f1xx_hal_uart.o
 .text.HAL_UART_Receive
                0x00000000       0xe6 /workspaces/qgv/hoverboard-firmware-hack-FOC/build/stm32f1xx_hal_uart.o
 .text.HAL_UART_Transmit_IT
                0x00000000       0x4e /workspaces/qgv/hoverboard-firmware-hack-FOC/build/stm32f1xx_hal_uart.o
 .text.HAL_UART_Receive_IT
                0x00000000       0x62 /workspaces/qgv/hoverboard-firmware-hack-FOC/build/stm32f1xx_hal_uart.o
 .text.HAL_UART_DMAPause
                0x00000000       0x70 /workspaces/qgv/hoverboard-firmware-hack-FOC/build/stm32f1xx_hal_uart.o
 .text.HAL_UART_DMAResume
                0x00000000       0x74 /workspaces/qgv/hoverboard-firmware-hack-FOC/build/stm32f1xx_hal_uart.o
 .text.HAL_UART_DMAStop
                0x00000000       0x64 /workspaces/qgv/hoverboard-firmware-hack-FOC/build/stm32f1xx_hal_uart.o
 .text.HAL_UART_Abort
                0x00000000       0x6c /workspaces/qgv/hoverboard-firmware-hack-FOC/build/stm32f1xx_hal_uart.o
 .text.HAL_UART_AbortTransmit
                0x00000000       0x3a /workspaces/qgv/hoverboard-firmware-hack-FOC/build/stm32f1xx_hal_uart.o
 .text.HAL_UART_AbortReceive
                0x00000000       0x44 /workspaces/qgv/hoverboard-firmware-hack-FOC/build/stm32f1xx_hal_uart.o
 .text.HAL_UART_AbortCpltCallback
                0x00000000        0x2 /workspaces/qgv/hoverboard-firmware-hack-FOC/build/stm32f1xx_hal_uart.o
 .text.HAL_UART_Abort_IT
                0x00000000       0xc4 /workspaces/qgv/hoverboard-firmware-hack-FOC/build/stm32f1xx_hal_uart.o
 .text.UART_DMARxAbortCallback
                0x00000000       0x2a /workspaces/qgv/hoverboard-firmware-hack-FOC/build/stm32f1xx_hal_uart.o
 .text.UART_DMATxAbortCallback
                0x00000000       0x2a /workspaces/qgv/hoverboard-firmware-hack-FOC/build/stm32f1xx_hal_uart.o
 .text.HAL_UART_AbortTransmitCpltCallback
                0x00000000        0x2 /workspaces/qgv/hoverboard-firmware-hack-FOC/build/stm32f1xx_hal_uart.o
 .text.HAL_UART_AbortTransmit_IT
                0x00000000       0x60 /workspaces/qgv/hoverboard-firmware-hack-FOC/build/stm32f1xx_hal_uart.o
 .text.UART_DMATxOnlyAbortCallback
                0x00000000       0x14 /workspaces/qgv/hoverboard-firmware-hack-FOC/build/stm32f1xx_hal_uart.o
 .text.HAL_UART_AbortReceiveCpltCallback
                0x00000000        0x2 /workspaces/qgv/hoverboard-firmware-hack-FOC/build/stm32f1xx_hal_uart.o
 .text.HAL_UART_AbortReceive_IT
                0x00000000       0x68 /workspaces/qgv/hoverboard-firmware-hack-FOC/build/stm32f1xx_hal_uart.o
 .text.UART_DMARxOnlyAbortCallback
                0x00000000       0x14 /workspaces/qgv/hoverboard-firmware-hack-FOC/build/stm32f1xx_hal_uart.o
 .text.HAL_LIN_SendBreak
                0x00000000       0x32 /workspaces/qgv/hoverboard-firmware-hack-FOC/build/stm32f1xx_hal_uart.o
 .text.HAL_MultiProcessor_EnterMuteMode
                0x00000000       0x32 /workspaces/qgv/hoverboard-firmware-hack-FOC/build/stm32f1xx_hal_uart.o
 .text.HAL_MultiProcessor_ExitMuteMode
                0x00000000       0x32 /workspaces/qgv/hoverboard-firmware-hack-FOC/build/stm32f1xx_hal_uart.o
 .text.HAL_HalfDuplex_EnableTransmitter
                0x00000000       0x36 /workspaces/qgv/hoverboard-firmware-hack-FOC/build/stm32f1xx_hal_uart.o
 .text.HAL_HalfDuplex_EnableReceiver
                0x00000000       0x36 /workspaces/qgv/hoverboard-firmware-hack-FOC/build/stm32f1xx_hal_uart.o
 .text.HAL_UART_GetState
                0x00000000        0xc /workspaces/qgv/hoverboard-firmware-hack-FOC/build/stm32f1xx_hal_uart.o
 .text.HAL_UART_GetError
                0x00000000        0x4 /workspaces/qgv/hoverboard-firmware-hack-FOC/build/stm32f1xx_hal_uart.o
 .text          0x00000000        0x0 /workspaces/qgv/hoverboard-firmware-hack-FOC/build/stm32f1xx_hal_i2c.o
 .data          0x00000000        0x0 /workspaces/qgv/hoverboard-firmware-hack-FOC/build/stm32f1xx_hal_i2c.o
 .bss           0x00000000        0x0 /workspaces/qgv/hoverboard-firmware-hack-FOC/build/stm32f1xx_hal_i2c.o
 .text.I2C_Master_SB
                0x00000000       0x88 /workspaces/qgv/hoverboard-firmware-hack-FOC/build/stm32f1xx_hal_i2c.o
 .text.I2C_Master_ADD10
                0x00000000        0xc /workspaces/qgv/hoverboard-firmware-hack-FOC/build/stm32f1xx_hal_i2c.o
 .text.I2C_Master_ADDR
                0x00000000      0x1da /workspaces/qgv/hoverboard-firmware-hack-FOC/build/stm32f1xx_hal_i2c.o
 .text.I2C_SlaveTransmit_BTF
                0x00000000       0x20 /workspaces/qgv/hoverboard-firmware-hack-FOC/build/stm32f1xx_hal_i2c.o
 .text.I2C_SlaveReceive_BTF
                0x00000000       0x20 /workspaces/qgv/hoverboard-firmware-hack-FOC/build/stm32f1xx_hal_i2c.o
 .text.I2C_IsAcknowledgeFailed
                0x00000000       0x2a /workspaces/qgv/hoverboard-firmware-hack-FOC/build/stm32f1xx_hal_i2c.o
 .text.I2C_WaitOnFlagUntilTimeout
                0x00000000       0x74 /workspaces/qgv/hoverboard-firmware-hack-FOC/build/stm32f1xx_hal_i2c.o
 .text.I2C_WaitOnMasterAddressFlagUntilTimeout
                0x00000000       0x96 /workspaces/qgv/hoverboard-firmware-hack-FOC/build/stm32f1xx_hal_i2c.o
 .text.I2C_MasterRequestWrite
                0x00000000       0xb8 /workspaces/qgv/hoverboard-firmware-hack-FOC/build/stm32f1xx_hal_i2c.o
 .text.I2C_MasterRequestRead
                0x00000000      0x11c /workspaces/qgv/hoverboard-firmware-hack-FOC/build/stm32f1xx_hal_i2c.o
 .text.I2C_WaitOnTXEFlagUntilTimeout
                0x00000000       0x4e /workspaces/qgv/hoverboard-firmware-hack-FOC/build/stm32f1xx_hal_i2c.o
 .text.I2C_RequestMemoryWrite
                0x00000000       0xd8 /workspaces/qgv/hoverboard-firmware-hack-FOC/build/stm32f1xx_hal_i2c.o
 .text.I2C_RequestMemoryRead
                0x00000000      0x148 /workspaces/qgv/hoverboard-firmware-hack-FOC/build/stm32f1xx_hal_i2c.o
 .text.I2C_WaitOnBTFFlagUntilTimeout
                0x00000000       0x4e /workspaces/qgv/hoverboard-firmware-hack-FOC/build/stm32f1xx_hal_i2c.o
 .text.I2C_WaitOnRXNEFlagUntilTimeout
                0x00000000       0x5c /workspaces/qgv/hoverboard-firmware-hack-FOC/build/stm32f1xx_hal_i2c.o
 .text.I2C_WaitOnSTOPFlagUntilTimeout
                0x00000000       0x48 /workspaces/qgv/hoverboard-firmware-hack-FOC/build/stm32f1xx_hal_i2c.o
 .text.HAL_I2C_MspInit
                0x00000000        0x2 /workspaces/qgv/hoverboard-firmware-hack-FOC/build/stm32f1xx_hal_i2c.o
 .text.HAL_I2C_Init
                0x00000000      0x11c /workspaces/qgv/hoverboard-firmware-hack-FOC/build/stm32f1xx_hal_i2c.o
 .text.HAL_I2C_MspDeInit
                0x00000000        0x2 /workspaces/qgv/hoverboard-firmware-hack-FOC/build/stm32f1xx_hal_i2c.o
 .text.HAL_I2C_DeInit
                0x00000000       0x32 /workspaces/qgv/hoverboard-firmware-hack-FOC/build/stm32f1xx_hal_i2c.o
 .text.HAL_I2C_Master_Transmit
                0x00000000      0x18c /workspaces/qgv/hoverboard-firmware-hack-FOC/build/stm32f1xx_hal_i2c.o
 .text.HAL_I2C_Master_Receive
                0x00000000      0x30c /workspaces/qgv/hoverboard-firmware-hack-FOC/build/stm32f1xx_hal_i2c.o
 .text.HAL_I2C_Slave_Transmit
                0x00000000      0x1ac /workspaces/qgv/hoverboard-firmware-hack-FOC/build/stm32f1xx_hal_i2c.o
 .text.HAL_I2C_Slave_Receive
                0x00000000      0x190 /workspaces/qgv/hoverboard-firmware-hack-FOC/build/stm32f1xx_hal_i2c.o
 .text.HAL_I2C_Master_Transmit_IT
                0x00000000       0xcc /workspaces/qgv/hoverboard-firmware-hack-FOC/build/stm32f1xx_hal_i2c.o
 .text.HAL_I2C_Master_Receive_IT
                0x00000000       0xd4 /workspaces/qgv/hoverboard-firmware-hack-FOC/build/stm32f1xx_hal_i2c.o
 .text.HAL_I2C_Master_Sequential_Transmit_IT
                0x00000000       0xf8 /workspaces/qgv/hoverboard-firmware-hack-FOC/build/stm32f1xx_hal_i2c.o
 .text.HAL_I2C_Master_Sequential_Receive_IT
                0x00000000      0x10c /workspaces/qgv/hoverboard-firmware-hack-FOC/build/stm32f1xx_hal_i2c.o
 .text.HAL_I2C_Slave_Transmit_IT
                0x00000000       0xd8 /workspaces/qgv/hoverboard-firmware-hack-FOC/build/stm32f1xx_hal_i2c.o
 .text.HAL_I2C_Slave_Receive_IT
                0x00000000       0xd4 /workspaces/qgv/hoverboard-firmware-hack-FOC/build/stm32f1xx_hal_i2c.o
 .text.HAL_I2C_Slave_Sequential_Transmit_IT
                0x00000000       0x90 /workspaces/qgv/hoverboard-firmware-hack-FOC/build/stm32f1xx_hal_i2c.o
 .text.HAL_I2C_Slave_Sequential_Receive_IT
                0x00000000       0x90 /workspaces/qgv/hoverboard-firmware-hack-FOC/build/stm32f1xx_hal_i2c.o
 .text.HAL_I2C_EnableListen_IT
                0x00000000       0x3e /workspaces/qgv/hoverboard-firmware-hack-FOC/build/stm32f1xx_hal_i2c.o
 .text.HAL_I2C_DisableListen_IT
                0x00000000       0x42 /workspaces/qgv/hoverboard-firmware-hack-FOC/build/stm32f1xx_hal_i2c.o
 .text.HAL_I2C_Master_Transmit_DMA
                0x00000000      0x138 /workspaces/qgv/hoverboard-firmware-hack-FOC/build/stm32f1xx_hal_i2c.o
 .text.HAL_I2C_Master_Receive_DMA
                0x00000000      0x138 /workspaces/qgv/hoverboard-firmware-hack-FOC/build/stm32f1xx_hal_i2c.o
 .text.HAL_I2C_Slave_Transmit_DMA
                0x00000000      0x10c /workspaces/qgv/hoverboard-firmware-hack-FOC/build/stm32f1xx_hal_i2c.o
 .text.HAL_I2C_Slave_Receive_DMA
                0x00000000      0x10c /workspaces/qgv/hoverboard-firmware-hack-FOC/build/stm32f1xx_hal_i2c.o
 .text.HAL_I2C_Mem_Write
                0x00000000      0x17c /workspaces/qgv/hoverboard-firmware-hack-FOC/build/stm32f1xx_hal_i2c.o
 .text.HAL_I2C_Mem_Read
                0x00000000      0x314 /workspaces/qgv/hoverboard-firmware-hack-FOC/build/stm32f1xx_hal_i2c.o
 .text.HAL_I2C_Mem_Write_IT
                0x00000000       0xd8 /workspaces/qgv/hoverboard-firmware-hack-FOC/build/stm32f1xx_hal_i2c.o
 .text.HAL_I2C_Mem_Read_IT
                0x00000000       0xe8 /workspaces/qgv/hoverboard-firmware-hack-FOC/build/stm32f1xx_hal_i2c.o
 .text.HAL_I2C_Mem_Write_DMA
                0x00000000      0x154 /workspaces/qgv/hoverboard-firmware-hack-FOC/build/stm32f1xx_hal_i2c.o
 .text.HAL_I2C_Mem_Read_DMA
                0x00000000      0x1c0 /workspaces/qgv/hoverboard-firmware-hack-FOC/build/stm32f1xx_hal_i2c.o
 .text.HAL_I2C_IsDeviceReady
                0x00000000      0x188 /workspaces/qgv/hoverboard-firmware-hack-FOC/build/stm32f1xx_hal_i2c.o
 .text.HAL_I2C_MasterTxCpltCallback
                0x00000000        0x2 /workspaces/qgv/hoverboard-firmware-hack-FOC/build/stm32f1xx_hal_i2c.o
 .text.HAL_I2C_MasterRxCpltCallback
                0x00000000        0x2 /workspaces/qgv/hoverboard-firmware-hack-FOC/build/stm32f1xx_hal_i2c.o
 .text.HAL_I2C_SlaveTxCpltCallback
                0x00000000        0x2 /workspaces/qgv/hoverboard-firmware-hack-FOC/build/stm32f1xx_hal_i2c.o
 .text.I2C_SlaveTransmit_TXE
                0x00000000       0x4c /workspaces/qgv/hoverboard-firmware-hack-FOC/build/stm32f1xx_hal_i2c.o
 .text.HAL_I2C_SlaveRxCpltCallback
                0x00000000        0x2 /workspaces/qgv/hoverboard-firmware-hack-FOC/build/stm32f1xx_hal_i2c.o
 .text.I2C_SlaveReceive_RXNE
                0x00000000       0x50 /workspaces/qgv/hoverboard-firmware-hack-FOC/build/stm32f1xx_hal_i2c.o
 .text.HAL_I2C_AddrCallback
                0x00000000        0x2 /workspaces/qgv/hoverboard-firmware-hack-FOC/build/stm32f1xx_hal_i2c.o
 .text.I2C_Slave_ADDR
                0x00000000       0x28 /workspaces/qgv/hoverboard-firmware-hack-FOC/build/stm32f1xx_hal_i2c.o
 .text.HAL_I2C_ListenCpltCallback
                0x00000000        0x2 /workspaces/qgv/hoverboard-firmware-hack-FOC/build/stm32f1xx_hal_i2c.o
 .text.I2C_Slave_AF
                0x00000000       0x94 /workspaces/qgv/hoverboard-firmware-hack-FOC/build/stm32f1xx_hal_i2c.o
 .text.HAL_I2C_MemTxCpltCallback
                0x00000000        0x2 /workspaces/qgv/hoverboard-firmware-hack-FOC/build/stm32f1xx_hal_i2c.o
 .text.I2C_MasterTransmit_TXE
                0x00000000      0x14e /workspaces/qgv/hoverboard-firmware-hack-FOC/build/stm32f1xx_hal_i2c.o
 .text.I2C_MasterTransmit_BTF
                0x00000000       0x9e /workspaces/qgv/hoverboard-firmware-hack-FOC/build/stm32f1xx_hal_i2c.o
 .text.HAL_I2C_MemRxCpltCallback
                0x00000000        0x2 /workspaces/qgv/hoverboard-firmware-hack-FOC/build/stm32f1xx_hal_i2c.o
 .text.I2C_MasterReceive_RXNE
                0x00000000       0xd0 /workspaces/qgv/hoverboard-firmware-hack-FOC/build/stm32f1xx_hal_i2c.o
 .text.I2C_MasterReceive_BTF
                0x00000000       0xfe /workspaces/qgv/hoverboard-firmware-hack-FOC/build/stm32f1xx_hal_i2c.o
 .text.HAL_I2C_ErrorCallback
                0x00000000        0x2 /workspaces/qgv/hoverboard-firmware-hack-FOC/build/stm32f1xx_hal_i2c.o
 .text.I2C_DMAError
                0x00000000       0x2a /workspaces/qgv/hoverboard-firmware-hack-FOC/build/stm32f1xx_hal_i2c.o
 .text.I2C_DMAXferCplt
                0x00000000       0x94 /workspaces/qgv/hoverboard-firmware-hack-FOC/build/stm32f1xx_hal_i2c.o
 .text.HAL_I2C_AbortCpltCallback
                0x00000000        0x2 /workspaces/qgv/hoverboard-firmware-hack-FOC/build/stm32f1xx_hal_i2c.o
 .text.I2C_ITError
                0x00000000      0x148 /workspaces/qgv/hoverboard-firmware-hack-FOC/build/stm32f1xx_hal_i2c.o
 .text.HAL_I2C_Master_Abort_IT
                0x00000000       0x58 /workspaces/qgv/hoverboard-firmware-hack-FOC/build/stm32f1xx_hal_i2c.o
 .text.I2C_Slave_STOPF
                0x00000000      0x104 /workspaces/qgv/hoverboard-firmware-hack-FOC/build/stm32f1xx_hal_i2c.o
 .text.HAL_I2C_EV_IRQHandler
                0x00000000      0x168 /workspaces/qgv/hoverboard-firmware-hack-FOC/build/stm32f1xx_hal_i2c.o
 .text.HAL_I2C_ER_IRQHandler
                0x00000000       0xdc /workspaces/qgv/hoverboard-firmware-hack-FOC/build/stm32f1xx_hal_i2c.o
 .text.I2C_DMAAbort
                0x00000000       0x5e /workspaces/qgv/hoverboard-firmware-hack-FOC/build/stm32f1xx_hal_i2c.o
 .text.HAL_I2C_GetState
                0x00000000        0x6 /workspaces/qgv/hoverboard-firmware-hack-FOC/build/stm32f1xx_hal_i2c.o
 .text.HAL_I2C_GetMode
                0x00000000        0x6 /workspaces/qgv/hoverboard-firmware-hack-FOC/build/stm32f1xx_hal_i2c.o
 .text.HAL_I2C_GetError
                0x00000000        0x4 /workspaces/qgv/hoverboard-firmware-hack-FOC/build/stm32f1xx_hal_i2c.o
 .debug_info    0x00000000     0x36df /workspaces/qgv/hoverboard-firmware-hack-FOC/build/stm32f1xx_hal_i2c.o
 .debug_abbrev  0x00000000      0x2df /workspaces/qgv/hoverboard-firmware-hack-FOC/build/stm32f1xx_hal_i2c.o
 .debug_loc     0x00000000     0x490e /workspaces/qgv/hoverboard-firmware-hack-FOC/build/stm32f1xx_hal_i2c.o
 .debug_aranges
                0x00000000      0x268 /workspaces/qgv/hoverboard-firmware-hack-FOC/build/stm32f1xx_hal_i2c.o
 .debug_ranges  0x00000000      0x258 /workspaces/qgv/hoverboard-firmware-hack-FOC/build/stm32f1xx_hal_i2c.o
 .debug_line    0x00000000     0x47f1 /workspaces/qgv/hoverboard-firmware-hack-FOC/build/stm32f1xx_hal_i2c.o
 .debug_str     0x00000000      0xe82 /workspaces/qgv/hoverboard-firmware-hack-FOC/build/stm32f1xx_hal_i2c.o
 .comment       0x00000000       0x27 /workspaces/qgv/hoverboard-firmware-hack-FOC/build/stm32f1xx_hal_i2c.o
 .debug_frame   0x00000000      0x880 /workspaces/qgv/hoverboard-firmware-hack-FOC/build/stm32f1xx_hal_i2c.o
 .ARM.attributes
                0x00000000       0x2d /workspaces/qgv/hoverboard-firmware-hack-FOC/build/stm32f1xx_hal_i2c.o
 .text          0x00000000        0x0 /workspaces/qgv/hoverboard-firmware-hack-FOC/build/stm32f1xx_hal_dma.o
 .data          0x00000000        0x0 /workspaces/qgv/hoverboard-firmware-hack-FOC/build/stm32f1xx_hal_dma.o
 .bss           0x00000000        0x0 /workspaces/qgv/hoverboard-firmware-hack-FOC/build/stm32f1xx_hal_dma.o
 .text.HAL_DMA_DeInit
                0x00000000       0x88 /workspaces/qgv/hoverboard-firmware-hack-FOC/build/stm32f1xx_hal_dma.o
 .text.HAL_DMA_Start
                0x00000000       0x50 /workspaces/qgv/hoverboard-firmware-hack-FOC/build/stm32f1xx_hal_dma.o
 .text.HAL_DMA_Abort
                0x00000000       0x2e /workspaces/qgv/hoverboard-firmware-hack-FOC/build/stm32f1xx_hal_dma.o
 .text.HAL_DMA_PollForTransfer
                0x00000000      0x548 /workspaces/qgv/hoverboard-firmware-hack-FOC/build/stm32f1xx_hal_dma.o
 .text.HAL_DMA_RegisterCallback
                0x00000000       0x4a /workspaces/qgv/hoverboard-firmware-hack-FOC/build/stm32f1xx_hal_dma.o
 .text.HAL_DMA_UnRegisterCallback
                0x00000000       0x5a /workspaces/qgv/hoverboard-firmware-hack-FOC/build/stm32f1xx_hal_dma.o
 .text.HAL_DMA_GetState
                0x00000000        0x6 /workspaces/qgv/hoverboard-firmware-hack-FOC/build/stm32f1xx_hal_dma.o
 .text.HAL_DMA_GetError
                0x00000000        0x4 /workspaces/qgv/hoverboard-firmware-hack-FOC/build/stm32f1xx_hal_dma.o
 .text          0x00000000        0x0 /workspaces/qgv/hoverboard-firmware-hack-FOC/build/system_stm32f1xx.o
 .data          0x00000000        0x0 /workspaces/qgv/hoverboard-firmware-hack-FOC/build/system_stm32f1xx.o
 .bss           0x00000000        0x0 /workspaces/qgv/hoverboard-firmware-hack-FOC/build/system_stm32f1xx.o
 .text.SystemCoreClockUpdate
                0x00000000       0x94 /workspaces/qgv/hoverboard-firmware-hack-FOC/build/system_stm32f1xx.o
 .text          0x00000000        0x0 /workspaces/qgv/hoverboard-firmware-hack-FOC/build/setup.o
 .data          0x00000000        0x0 /workspaces/qgv/hoverboard-firmware-hack-FOC/build/setup.o
 .bss           0x00000000        0x0 /workspaces/qgv/hoverboard-firmware-hack-FOC/build/setup.o
 .text.HAL_UART_MspDeInit
                0x00000000       0x78 /workspaces/qgv/hoverboard-firmware-hack-FOC/build/setup.o
 .text.I2C_Init
                0x00000000       0x8c /workspaces/qgv/hoverboard-firmware-hack-FOC/build/setup.o
 .bss.hdma_i2c2_tx
                0x00000000       0x44 /workspaces/qgv/hoverboard-firmware-hack-FOC/build/setup.o
 .bss.hdma_i2c2_rx
                0x00000000       0x44 /workspaces/qgv/hoverboard-firmware-hack-FOC/build/setup.o
 .bss.huart2    0x00000000       0x40 /workspaces/qgv/hoverboard-firmware-hack-FOC/build/setup.o
 .bss.hi2c2     0x00000000       0x54 /workspaces/qgv/hoverboard-firmware-hack-FOC/build/setup.o
 .text          0x00000000        0x0 /workspaces/qgv/hoverboard-firmware-hack-FOC/build/control.o
 .data          0x00000000        0x0 /workspaces/qgv/hoverboard-firmware-hack-FOC/build/control.o
 .bss           0x00000000        0x0 /workspaces/qgv/hoverboard-firmware-hack-FOC/build/control.o
 .text.Nunchuk_tx
                0x00000000       0x28 /workspaces/qgv/hoverboard-firmware-hack-FOC/build/control.o
 .text.Nunchuk_rx
                0x00000000       0x28 /workspaces/qgv/hoverboard-firmware-hack-FOC/build/control.o
 .text.Nunchuk_Init
                0x00000000       0x40 /workspaces/qgv/hoverboard-firmware-hack-FOC/build/control.o
 .text.Nunchuk_Connect
                0x00000000       0x20 /workspaces/qgv/hoverboard-firmware-hack-FOC/build/control.o
 .text.Nunchuk_Read
                0x00000000      0x104 /workspaces/qgv/hoverboard-firmware-hack-FOC/build/control.o
 .bss.delay_counter.0
                0x00000000        0x1 /workspaces/qgv/hoverboard-firmware-hack-FOC/build/control.o
 .bss.nunchukState
                0x00000000        0x1 /workspaces/qgv/hoverboard-firmware-hack-FOC/build/control.o
 .bss.i2cBuffer
                0x00000000        0x2 /workspaces/qgv/hoverboard-firmware-hack-FOC/build/control.o
 .bss.nunchuk_data
                0x00000000        0x6 /workspaces/qgv/hoverboard-firmware-hack-FOC/build/control.o
 .data.timeoutCntGen
                0x00000000        0x4 /workspaces/qgv/hoverboard-firmware-hack-FOC/build/control.o
 .bss.pwm_count
                0x00000000        0x1 /workspaces/qgv/hoverboard-firmware-hack-FOC/build/control.o
 .bss.ppm_count
                0x00000000        0x1 /workspaces/qgv/hoverboard-firmware-hack-FOC/build/control.o
 .bss.TimHandle2
                0x00000000       0x40 /workspaces/qgv/hoverboard-firmware-hack-FOC/build/control.o
 .bss.TimHandle
                0x00000000       0x40 /workspaces/qgv/hoverboard-firmware-hack-FOC/build/control.o
 .text          0x00000000        0x0 /workspaces/qgv/hoverboard-firmware-hack-FOC/build/comms.o
 .data          0x00000000        0x0 /workspaces/qgv/hoverboard-firmware-hack-FOC/build/comms.o
 .bss           0x00000000        0x0 /workspaces/qgv/hoverboard-firmware-hack-FOC/build/comms.o
 .debug_info    0x00000000       0x80 /workspaces/qgv/hoverboard-firmware-hack-FOC/build/comms.o
 .debug_abbrev  0x00000000       0x26 /workspaces/qgv/hoverboard-firmware-hack-FOC/build/comms.o
 .debug_aranges
                0x00000000       0x18 /workspaces/qgv/hoverboard-firmware-hack-FOC/build/comms.o
 .debug_line    0x00000000       0x2c /workspaces/qgv/hoverboard-firmware-hack-FOC/build/comms.o
 .debug_str     0x00000000      0x16b /workspaces/qgv/hoverboard-firmware-hack-FOC/build/comms.o
 .comment       0x00000000       0x27 /workspaces/qgv/hoverboard-firmware-hack-FOC/build/comms.o
 .ARM.attributes
                0x00000000       0x2d /workspaces/qgv/hoverboard-firmware-hack-FOC/build/comms.o
 .text          0x00000000        0x0 /workspaces/qgv/hoverboard-firmware-hack-FOC/build/util.o
 .data          0x00000000        0x0 /workspaces/qgv/hoverboard-firmware-hack-FOC/build/util.o
 .bss           0x00000000        0x0 /workspaces/qgv/hoverboard-firmware-hack-FOC/build/util.o
 .text.standstillHold
                0x00000000        0x2 /workspaces/qgv/hoverboard-firmware-hack-FOC/build/util.o
 .text.electricBrake
                0x00000000        0x2 /workspaces/qgv/hoverboard-firmware-hack-FOC/build/util.o
 .text.usart2_rx_check
                0x00000000        0x2 /workspaces/qgv/hoverboard-firmware-hack-FOC/build/util.o
 .text          0x00000000        0x0 /workspaces/qgv/hoverboard-firmware-hack-FOC/build/main.o
 .data          0x00000000        0x0 /workspaces/qgv/hoverboard-firmware-hack-FOC/build/main.o
 .bss           0x00000000        0x0 /workspaces/qgv/hoverboard-firmware-hack-FOC/build/main.o
 .bss.uart_buf  0x00000000       0xc8 /workspaces/qgv/hoverboard-firmware-hack-FOC/build/main.o
 .text          0x00000000        0x0 /workspaces/qgv/hoverboard-firmware-hack-FOC/build/bldc.o
 .data          0x00000000        0x0 /workspaces/qgv/hoverboard-firmware-hack-FOC/build/bldc.o
 .bss           0x00000000        0x0 /workspaces/qgv/hoverboard-firmware-hack-FOC/build/bldc.o
 .text          0x00000000        0x0 /workspaces/qgv/hoverboard-firmware-hack-FOC/build/eeprom.o
 .data          0x00000000        0x0 /workspaces/qgv/hoverboard-firmware-hack-FOC/build/eeprom.o
 .bss           0x00000000        0x0 /workspaces/qgv/hoverboard-firmware-hack-FOC/build/eeprom.o
 .text          0x00000000        0x0 /workspaces/qgv/hoverboard-firmware-hack-FOC/build/hd44780.o
 .data          0x00000000        0x0 /workspaces/qgv/hoverboard-firmware-hack-FOC/build/hd44780.o
 .bss           0x00000000        0x0 /workspaces/qgv/hoverboard-firmware-hack-FOC/build/hd44780.o
 .text.LCD_I2C_WriteOut
                0x00000000       0x28 /workspaces/qgv/hoverboard-firmware-hack-FOC/build/hd44780.o
 .text.LCD_StateWriteBit
                0x00000000       0x38 /workspaces/qgv/hoverboard-firmware-hack-FOC/build/hd44780.o
 .text.LCD_StateLEDControl
                0x00000000        0xe /workspaces/qgv/hoverboard-firmware-hack-FOC/build/hd44780.o
 .text.LCD_WriteToDataBus
                0x00000000       0xc8 /workspaces/qgv/hoverboard-firmware-hack-FOC/build/hd44780.o
 .text.LCD_GetBusyFlag
                0x00000000       0x56 /workspaces/qgv/hoverboard-firmware-hack-FOC/build/hd44780.o
 .text.LCD_WaitForBusyFlag
                0x00000000       0x12 /workspaces/qgv/hoverboard-firmware-hack-FOC/build/hd44780.o
 .text.LCD_WriteCMD
                0x00000000       0x68 /workspaces/qgv/hoverboard-firmware-hack-FOC/build/hd44780.o
 .text.LCD_WriteDATA
                0x00000000       0x5a /workspaces/qgv/hoverboard-firmware-hack-FOC/build/hd44780.o
 .text.LCD_SetLocation
                0x00000000       0x14 /workspaces/qgv/hoverboard-firmware-hack-FOC/build/hd44780.o
 .text.LCD_WriteString
                0x00000000       0x2e /workspaces/qgv/hoverboard-firmware-hack-FOC/build/hd44780.o
 .text.LCD_ClearDisplay
                0x00000000        0xa /workspaces/qgv/hoverboard-firmware-hack-FOC/build/hd44780.o
 .text.LCD_DisplayON
                0x00000000       0x1c /workspaces/qgv/hoverboard-firmware-hack-FOC/build/hd44780.o
 .text.LCD_DisplayOFF
                0x00000000       0x1c /workspaces/qgv/hoverboard-firmware-hack-FOC/build/hd44780.o
 .text.LCD_CursorON
                0x00000000       0x1e /workspaces/qgv/hoverboard-firmware-hack-FOC/build/hd44780.o
 .text.LCD_CursorOFF
                0x00000000       0x1c /workspaces/qgv/hoverboard-firmware-hack-FOC/build/hd44780.o
 .text.LCD_ShiftCursor
                0x00000000       0x2e /workspaces/qgv/hoverboard-firmware-hack-FOC/build/hd44780.o
 .text.LCD_ShiftDisplay
                0x00000000       0x2e /workspaces/qgv/hoverboard-firmware-hack-FOC/build/hd44780.o
 .text.LCD_WriteNumber
                0x00000000       0x4e /workspaces/qgv/hoverboard-firmware-hack-FOC/build/hd44780.o
 .rodata.LCD_WriteFloat.str1.4
                0x00000000        0x6 /workspaces/qgv/hoverboard-firmware-hack-FOC/build/hd44780.o
 .text.LCD_WriteFloat
                0x00000000       0xdc /workspaces/qgv/hoverboard-firmware-hack-FOC/build/hd44780.o
 .text.LCD_EntryModeSet
                0x00000000       0x12 /workspaces/qgv/hoverboard-firmware-hack-FOC/build/hd44780.o
 .text.LCD_Init
                0x00000000      0x134 /workspaces/qgv/hoverboard-firmware-hack-FOC/build/hd44780.o
 .text.LCD_CustomChar
                0x00000000       0x28 /workspaces/qgv/hoverboard-firmware-hack-FOC/build/hd44780.o
 .bss.LCDerrorFlag
                0x00000000        0x1 /workspaces/qgv/hoverboard-firmware-hack-FOC/build/hd44780.o
 .data.PCF8574_Type0Pins
                0x00000000       0x20 /workspaces/qgv/hoverboard-firmware-hack-FOC/build/hd44780.o
 .debug_info    0x00000000     0x1aaf /workspaces/qgv/hoverboard-firmware-hack-FOC/build/hd44780.o
 .debug_abbrev  0x00000000      0x2d1 /workspaces/qgv/hoverboard-firmware-hack-FOC/build/hd44780.o
 .debug_loc     0x00000000     0x12f4 /workspaces/qgv/hoverboard-firmware-hack-FOC/build/hd44780.o
 .debug_aranges
                0x00000000       0xc8 /workspaces/qgv/hoverboard-firmware-hack-FOC/build/hd44780.o
 .debug_ranges  0x00000000       0xf0 /workspaces/qgv/hoverboard-firmware-hack-FOC/build/hd44780.o
 .debug_line    0x00000000      0x828 /workspaces/qgv/hoverboard-firmware-hack-FOC/build/hd44780.o
 .debug_str     0x00000000      0xa62 /workspaces/qgv/hoverboard-firmware-hack-FOC/build/hd44780.o
 .comment       0x00000000       0x27 /workspaces/qgv/hoverboard-firmware-hack-FOC/build/hd44780.o
 .debug_frame   0x00000000      0x264 /workspaces/qgv/hoverboard-firmware-hack-FOC/build/hd44780.o
 .ARM.attributes
                0x00000000       0x2d /workspaces/qgv/hoverboard-firmware-hack-FOC/build/hd44780.o
 .text          0x00000000        0x0 /workspaces/qgv/hoverboard-firmware-hack-FOC/build/pcf8574.o
 .data          0x00000000        0x0 /workspaces/qgv/hoverboard-firmware-hack-FOC/build/pcf8574.o
 .bss           0x00000000        0x0 /workspaces/qgv/hoverboard-firmware-hack-FOC/build/pcf8574.o
 .text.PCF8574_Init
                0x00000000        0xc /workspaces/qgv/hoverboard-firmware-hack-FOC/build/pcf8574.o
 .text.PCF8574_DeInit
                0x00000000        0xc /workspaces/qgv/hoverboard-firmware-hack-FOC/build/pcf8574.o
 .text.PCF8574_Write
                0x00000000       0x2e /workspaces/qgv/hoverboard-firmware-hack-FOC/build/pcf8574.o
 .text.PCF8574_Read
                0x00000000       0x2a /workspaces/qgv/hoverboard-firmware-hack-FOC/build/pcf8574.o
 .debug_info    0x00000000      0x89a /workspaces/qgv/hoverboard-firmware-hack-FOC/build/pcf8574.o
 .debug_abbrev  0x00000000      0x190 /workspaces/qgv/hoverboard-firmware-hack-FOC/build/pcf8574.o
 .debug_loc     0x00000000      0x204 /workspaces/qgv/hoverboard-firmware-hack-FOC/build/pcf8574.o
 .debug_aranges
                0x00000000       0x38 /workspaces/qgv/hoverboard-firmware-hack-FOC/build/pcf8574.o
 .debug_ranges  0x00000000       0x28 /workspaces/qgv/hoverboard-firmware-hack-FOC/build/pcf8574.o
 .debug_line    0x00000000      0x1bf /workspaces/qgv/hoverboard-firmware-hack-FOC/build/pcf8574.o
 .debug_str     0x00000000      0x6f0 /workspaces/qgv/hoverboard-firmware-hack-FOC/build/pcf8574.o
 .comment       0x00000000       0x27 /workspaces/qgv/hoverboard-firmware-hack-FOC/build/pcf8574.o
 .debug_frame   0x00000000       0x78 /workspaces/qgv/hoverboard-firmware-hack-FOC/build/pcf8574.o
 .ARM.attributes
                0x00000000       0x2d /workspaces/qgv/hoverboard-firmware-hack-FOC/build/pcf8574.o
 .text          0x00000000        0x0 /workspaces/qgv/hoverboard-firmware-hack-FOC/build/stm32f1xx_it.o
 .data          0x00000000        0x0 /workspaces/qgv/hoverboard-firmware-hack-FOC/build/stm32f1xx_it.o
 .bss           0x00000000        0x0 /workspaces/qgv/hoverboard-firmware-hack-FOC/build/stm32f1xx_it.o
 .text          0x00000000        0x0 /workspaces/qgv/hoverboard-firmware-hack-FOC/build/BLDC_controller_data.o
 .data          0x00000000        0x0 /workspaces/qgv/hoverboard-firmware-hack-FOC/build/BLDC_controller_data.o
 .bss           0x00000000        0x0 /workspaces/qgv/hoverboard-firmware-hack-FOC/build/BLDC_controller_data.o
 .text          0x00000000        0x0 /workspaces/qgv/hoverboard-firmware-hack-FOC/build/BLDC_controller.o
 .data          0x00000000        0x0 /workspaces/qgv/hoverboard-firmware-hack-FOC/build/BLDC_controller.o
 .bss           0x00000000        0x0 /workspaces/qgv/hoverboard-firmware-hack-FOC/build/BLDC_controller.o
 .text          0x00000000       0x14 /workspaces/qgv/hoverboard-firmware-hack-FOC/build/startup_stm32f103xe.o
 .data          0x00000000        0x0 /workspaces/qgv/hoverboard-firmware-hack-FOC/build/startup_stm32f103xe.o
 .bss           0x00000000        0x0 /workspaces/qgv/hoverboard-firmware-hack-FOC/build/startup_stm32f103xe.o
 .data          0x00000000        0x0 /usr/lib/gcc/arm-none-eabi/13.2.1/../../../arm-none-eabi/lib/thumb/v7-m/nofp/libc_nano.a(libc_a-init.o)
 .bss           0x00000000        0x0 /usr/lib/gcc/arm-none-eabi/13.2.1/../../../arm-none-eabi/lib/thumb/v7-m/nofp/libc_nano.a(libc_a-init.o)
 .data          0x00000000        0x0 /usr/lib/gcc/arm-none-eabi/13.2.1/../../../arm-none-eabi/lib/thumb/v7-m/nofp/libc_nano.a(libc_a-memset.o)
 .bss           0x00000000        0x0 /usr/lib/gcc/arm-none-eabi/13.2.1/../../../arm-none-eabi/lib/thumb/v7-m/nofp/libc_nano.a(libc_a-memset.o)
 .data          0x00000000        0x0 /usr/lib/gcc/arm-none-eabi/13.2.1/../../../arm-none-eabi/lib/thumb/v7-m/nofp/libc_nano.a(libc_a-memcpy.o)
 .bss           0x00000000        0x0 /usr/lib/gcc/arm-none-eabi/13.2.1/../../../arm-none-eabi/lib/thumb/v7-m/nofp/libc_nano.a(libc_a-memcpy.o)
 .ARM.extab     0x00000000        0x0 /usr/lib/gcc/arm-none-eabi/13.2.1/../../../arm-none-eabi/lib/thumb/v7-m/nofp/libc_nano.a(libc_a-memcpy.o)
 .eh_frame      0x00000000       0x2c /usr/lib/gcc/arm-none-eabi/13.2.1/../../../arm-none-eabi/lib/thumb/v7-m/nofp/libc_nano.a(libc_a-memcpy.o)
 .text          0x00000000       0x24 /usr/lib/gcc/arm-none-eabi/13.2.1/../../../arm-none-eabi/lib/thumb/v7-m/nofp/libc_nano.a(libc_a-exit.o)
 .data          0x00000000        0x0 /usr/lib/gcc/arm-none-eabi/13.2.1/../../../arm-none-eabi/lib/thumb/v7-m/nofp/libc_nano.a(libc_a-exit.o)
 .bss           0x00000000        0x0 /usr/lib/gcc/arm-none-eabi/13.2.1/../../../arm-none-eabi/lib/thumb/v7-m/nofp/libc_nano.a(libc_a-exit.o)
 .debug_info    0x00000000      0x11b /usr/lib/gcc/arm-none-eabi/13.2.1/../../../arm-none-eabi/lib/thumb/v7-m/nofp/libc_nano.a(libc_a-exit.o)
 .debug_abbrev  0x00000000       0xd8 /usr/lib/gcc/arm-none-eabi/13.2.1/../../../arm-none-eabi/lib/thumb/v7-m/nofp/libc_nano.a(libc_a-exit.o)
 .debug_loclists
                0x00000000       0x1b /usr/lib/gcc/arm-none-eabi/13.2.1/../../../arm-none-eabi/lib/thumb/v7-m/nofp/libc_nano.a(libc_a-exit.o)
 .debug_aranges
                0x00000000       0x20 /usr/lib/gcc/arm-none-eabi/13.2.1/../../../arm-none-eabi/lib/thumb/v7-m/nofp/libc_nano.a(libc_a-exit.o)
 .debug_line    0x00000000      0x12d /usr/lib/gcc/arm-none-eabi/13.2.1/../../../arm-none-eabi/lib/thumb/v7-m/nofp/libc_nano.a(libc_a-exit.o)
 .debug_str     0x00000000      0x1b7 /usr/lib/gcc/arm-none-eabi/13.2.1/../../../arm-none-eabi/lib/thumb/v7-m/nofp/libc_nano.a(libc_a-exit.o)
 .comment       0x00000000       0x27 /usr/lib/gcc/arm-none-eabi/13.2.1/../../../arm-none-eabi/lib/thumb/v7-m/nofp/libc_nano.a(libc_a-exit.o)
 .debug_frame   0x00000000       0x28 /usr/lib/gcc/arm-none-eabi/13.2.1/../../../arm-none-eabi/lib/thumb/v7-m/nofp/libc_nano.a(libc_a-exit.o)
 .ARM.attributes
                0x00000000       0x2d /usr/lib/gcc/arm-none-eabi/13.2.1/../../../arm-none-eabi/lib/thumb/v7-m/nofp/libc_nano.a(libc_a-exit.o)
 .text          0x00000000        0xc /usr/lib/gcc/arm-none-eabi/13.2.1/../../../arm-none-eabi/lib/thumb/v7-m/nofp/libc_nano.a(libc_a-atexit.o)
 .data          0x00000000        0x0 /usr/lib/gcc/arm-none-eabi/13.2.1/../../../arm-none-eabi/lib/thumb/v7-m/nofp/libc_nano.a(libc_a-atexit.o)
 .bss           0x00000000        0x0 /usr/lib/gcc/arm-none-eabi/13.2.1/../../../arm-none-eabi/lib/thumb/v7-m/nofp/libc_nano.a(libc_a-atexit.o)
 .debug_info    0x00000000      0x11e /usr/lib/gcc/arm-none-eabi/13.2.1/../../../arm-none-eabi/lib/thumb/v7-m/nofp/libc_nano.a(libc_a-atexit.o)
 .debug_abbrev  0x00000000       0xc1 /usr/lib/gcc/arm-none-eabi/13.2.1/../../../arm-none-eabi/lib/thumb/v7-m/nofp/libc_nano.a(libc_a-atexit.o)
 .debug_loclists
                0x00000000       0x2b /usr/lib/gcc/arm-none-eabi/13.2.1/../../../arm-none-eabi/lib/thumb/v7-m/nofp/libc_nano.a(libc_a-atexit.o)
 .debug_aranges
                0x00000000       0x20 /usr/lib/gcc/arm-none-eabi/13.2.1/../../../arm-none-eabi/lib/thumb/v7-m/nofp/libc_nano.a(libc_a-atexit.o)
 .debug_line    0x00000000       0xc3 /usr/lib/gcc/arm-none-eabi/13.2.1/../../../arm-none-eabi/lib/thumb/v7-m/nofp/libc_nano.a(libc_a-atexit.o)
 .debug_str     0x00000000      0x1ce /usr/lib/gcc/arm-none-eabi/13.2.1/../../../arm-none-eabi/lib/thumb/v7-m/nofp/libc_nano.a(libc_a-atexit.o)
 .comment       0x00000000       0x27 /usr/lib/gcc/arm-none-eabi/13.2.1/../../../arm-none-eabi/lib/thumb/v7-m/nofp/libc_nano.a(libc_a-atexit.o)
 .debug_frame   0x00000000       0x20 /usr/lib/gcc/arm-none-eabi/13.2.1/../../../arm-none-eabi/lib/thumb/v7-m/nofp/libc_nano.a(libc_a-atexit.o)
 .ARM.attributes
                0x00000000       0x2d /usr/lib/gcc/arm-none-eabi/13.2.1/../../../arm-none-eabi/lib/thumb/v7-m/nofp/libc_nano.a(libc_a-atexit.o)
 .data          0x00000000        0x0 /usr/lib/gcc/arm-none-eabi/13.2.1/../../../arm-none-eabi/lib/thumb/v7-m/nofp/libc_nano.a(libc_a-printf.o)
 .bss           0x00000000        0x0 /usr/lib/gcc/arm-none-eabi/13.2.1/../../../arm-none-eabi/lib/thumb/v7-m/nofp/libc_nano.a(libc_a-printf.o)
 .data          0x00000000        0x0 /usr/lib/gcc/arm-none-eabi/13.2.1/../../../arm-none-eabi/lib/thumb/v7-m/nofp/libc_nano.a(libc_a-nano-vfprintf.o)
 .bss           0x00000000        0x0 /usr/lib/gcc/arm-none-eabi/13.2.1/../../../arm-none-eabi/lib/thumb/v7-m/nofp/libc_nano.a(libc_a-nano-vfprintf.o)
 .text          0x00000000       0x28 /usr/lib/gcc/arm-none-eabi/13.2.1/../../../arm-none-eabi/lib/thumb/v7-m/nofp/libc_nano.a(libc_a-fini.o)
 .data          0x00000000        0x0 /usr/lib/gcc/arm-none-eabi/13.2.1/../../../arm-none-eabi/lib/thumb/v7-m/nofp/libc_nano.a(libc_a-fini.o)
 .bss           0x00000000        0x0 /usr/lib/gcc/arm-none-eabi/13.2.1/../../../arm-none-eabi/lib/thumb/v7-m/nofp/libc_nano.a(libc_a-fini.o)
 .debug_info    0x00000000       0xf7 /usr/lib/gcc/arm-none-eabi/13.2.1/../../../arm-none-eabi/lib/thumb/v7-m/nofp/libc_nano.a(libc_a-fini.o)
 .debug_abbrev  0x00000000       0xcc /usr/lib/gcc/arm-none-eabi/13.2.1/../../../arm-none-eabi/lib/thumb/v7-m/nofp/libc_nano.a(libc_a-fini.o)
 .debug_loclists
                0x00000000       0x42 /usr/lib/gcc/arm-none-eabi/13.2.1/../../../arm-none-eabi/lib/thumb/v7-m/nofp/libc_nano.a(libc_a-fini.o)
 .debug_aranges
                0x00000000       0x20 /usr/lib/gcc/arm-none-eabi/13.2.1/../../../arm-none-eabi/lib/thumb/v7-m/nofp/libc_nano.a(libc_a-fini.o)
 .debug_line    0x00000000       0xd2 /usr/lib/gcc/arm-none-eabi/13.2.1/../../../arm-none-eabi/lib/thumb/v7-m/nofp/libc_nano.a(libc_a-fini.o)
 .debug_str     0x00000000      0x1c8 /usr/lib/gcc/arm-none-eabi/13.2.1/../../../arm-none-eabi/lib/thumb/v7-m/nofp/libc_nano.a(libc_a-fini.o)
 .comment       0x00000000       0x27 /usr/lib/gcc/arm-none-eabi/13.2.1/../../../arm-none-eabi/lib/thumb/v7-m/nofp/libc_nano.a(libc_a-fini.o)
 .debug_frame   0x00000000       0x34 /usr/lib/gcc/arm-none-eabi/13.2.1/../../../arm-none-eabi/lib/thumb/v7-m/nofp/libc_nano.a(libc_a-fini.o)
 .ARM.attributes
                0x00000000       0x2d /usr/lib/gcc/arm-none-eabi/13.2.1/../../../arm-none-eabi/lib/thumb/v7-m/nofp/libc_nano.a(libc_a-fini.o)
 .data          0x00000000        0x0 /usr/lib/gcc/arm-none-eabi/13.2.1/../../../arm-none-eabi/lib/thumb/v7-m/nofp/libc_nano.a(libc_a-wbuf.o)
 .bss           0x00000000        0x0 /usr/lib/gcc/arm-none-eabi/13.2.1/../../../arm-none-eabi/lib/thumb/v7-m/nofp/libc_nano.a(libc_a-wbuf.o)
 .text          0x00000000        0x0 /usr/lib/gcc/arm-none-eabi/13.2.1/../../../arm-none-eabi/lib/thumb/v7-m/nofp/libc_nano.a(libc_a-impure.o)
 .bss           0x00000000        0x0 /usr/lib/gcc/arm-none-eabi/13.2.1/../../../arm-none-eabi/lib/thumb/v7-m/nofp/libc_nano.a(libc_a-impure.o)
 .data          0x00000000        0x0 /usr/lib/gcc/arm-none-eabi/13.2.1/../../../arm-none-eabi/lib/thumb/v7-m/nofp/libc_nano.a(libc_a-fvwrite.o)
 .bss           0x00000000        0x0 /usr/lib/gcc/arm-none-eabi/13.2.1/../../../arm-none-eabi/lib/thumb/v7-m/nofp/libc_nano.a(libc_a-fvwrite.o)
 .data          0x00000000        0x0 /usr/lib/gcc/arm-none-eabi/13.2.1/../../../arm-none-eabi/lib/thumb/v7-m/nofp/libc_nano.a(libc_a-fflush.o)
 .bss           0x00000000        0x0 /usr/lib/gcc/arm-none-eabi/13.2.1/../../../arm-none-eabi/lib/thumb/v7-m/nofp/libc_nano.a(libc_a-fflush.o)
 .data          0x00000000        0x0 /usr/lib/gcc/arm-none-eabi/13.2.1/../../../arm-none-eabi/lib/thumb/v7-m/nofp/libc_nano.a(libc_a-mallocr.o)
 .data          0x00000000        0x0 /usr/lib/gcc/arm-none-eabi/13.2.1/../../../arm-none-eabi/lib/thumb/v7-m/nofp/libc_nano.a(libc_a-freer.o)
 .bss           0x00000000        0x0 /usr/lib/gcc/arm-none-eabi/13.2.1/../../../arm-none-eabi/lib/thumb/v7-m/nofp/libc_nano.a(libc_a-freer.o)
 .data          0x00000000        0x0 /usr/lib/gcc/arm-none-eabi/13.2.1/../../../arm-none-eabi/lib/thumb/v7-m/nofp/libc_nano.a(libc_a-memmove.o)
 .bss           0x00000000        0x0 /usr/lib/gcc/arm-none-eabi/13.2.1/../../../arm-none-eabi/lib/thumb/v7-m/nofp/libc_nano.a(libc_a-memmove.o)
 .data          0x00000000        0x0 /usr/lib/gcc/arm-none-eabi/13.2.1/../../../arm-none-eabi/lib/thumb/v7-m/nofp/libc_nano.a(libc_a-fwalk.o)
 .bss           0x00000000        0x0 /usr/lib/gcc/arm-none-eabi/13.2.1/../../../arm-none-eabi/lib/thumb/v7-m/nofp/libc_nano.a(libc_a-fwalk.o)
 .data          0x00000000        0x0 /usr/lib/gcc/arm-none-eabi/13.2.1/../../../arm-none-eabi/lib/thumb/v7-m/nofp/libc_nano.a(libc_a-wsetup.o)
 .bss           0x00000000        0x0 /usr/lib/gcc/arm-none-eabi/13.2.1/../../../arm-none-eabi/lib/thumb/v7-m/nofp/libc_nano.a(libc_a-wsetup.o)
 .text          0x00000000       0xa4 /usr/lib/gcc/arm-none-eabi/13.2.1/../../../arm-none-eabi/lib/thumb/v7-m/nofp/libc_nano.a(libc_a-__atexit.o)
 .data          0x00000000        0x4 /usr/lib/gcc/arm-none-eabi/13.2.1/../../../arm-none-eabi/lib/thumb/v7-m/nofp/libc_nano.a(libc_a-__atexit.o)
 .bss           0x00000000       0x8c /usr/lib/gcc/arm-none-eabi/13.2.1/../../../arm-none-eabi/lib/thumb/v7-m/nofp/libc_nano.a(libc_a-__atexit.o)
 .debug_info    0x00000000      0x284 /usr/lib/gcc/arm-none-eabi/13.2.1/../../../arm-none-eabi/lib/thumb/v7-m/nofp/libc_nano.a(libc_a-__atexit.o)
 .debug_abbrev  0x00000000      0x1d4 /usr/lib/gcc/arm-none-eabi/13.2.1/../../../arm-none-eabi/lib/thumb/v7-m/nofp/libc_nano.a(libc_a-__atexit.o)
 .debug_loclists
                0x00000000       0xf3 /usr/lib/gcc/arm-none-eabi/13.2.1/../../../arm-none-eabi/lib/thumb/v7-m/nofp/libc_nano.a(libc_a-__atexit.o)
 .debug_aranges
                0x00000000       0x20 /usr/lib/gcc/arm-none-eabi/13.2.1/../../../arm-none-eabi/lib/thumb/v7-m/nofp/libc_nano.a(libc_a-__atexit.o)
 .debug_line    0x00000000      0x242 /usr/lib/gcc/arm-none-eabi/13.2.1/../../../arm-none-eabi/lib/thumb/v7-m/nofp/libc_nano.a(libc_a-__atexit.o)
 .debug_str     0x00000000      0x288 /usr/lib/gcc/arm-none-eabi/13.2.1/../../../arm-none-eabi/lib/thumb/v7-m/nofp/libc_nano.a(libc_a-__atexit.o)
 .comment       0x00000000       0x27 /usr/lib/gcc/arm-none-eabi/13.2.1/../../../arm-none-eabi/lib/thumb/v7-m/nofp/libc_nano.a(libc_a-__atexit.o)
 .debug_frame   0x00000000       0x38 /usr/lib/gcc/arm-none-eabi/13.2.1/../../../arm-none-eabi/lib/thumb/v7-m/nofp/libc_nano.a(libc_a-__atexit.o)
 .ARM.attributes
                0x00000000       0x2d /usr/lib/gcc/arm-none-eabi/13.2.1/../../../arm-none-eabi/lib/thumb/v7-m/nofp/libc_nano.a(libc_a-__atexit.o)
 .data          0x00000000        0x0 /usr/lib/gcc/arm-none-eabi/13.2.1/../../../arm-none-eabi/lib/thumb/v7-m/nofp/libc_nano.a(libc_a-reallocr.o)
 .bss           0x00000000        0x0 /usr/lib/gcc/arm-none-eabi/13.2.1/../../../arm-none-eabi/lib/thumb/v7-m/nofp/libc_nano.a(libc_a-reallocr.o)
 .data          0x00000000        0x0 /usr/lib/gcc/arm-none-eabi/13.2.1/../../../arm-none-eabi/lib/thumb/v7-m/nofp/libc_nano.a(libc_a-nano-vfprintf_i.o)
 .bss           0x00000000        0x0 /usr/lib/gcc/arm-none-eabi/13.2.1/../../../arm-none-eabi/lib/thumb/v7-m/nofp/libc_nano.a(libc_a-nano-vfprintf_i.o)
 .data          0x00000000        0x0 /usr/lib/gcc/arm-none-eabi/13.2.1/../../../arm-none-eabi/lib/thumb/v7-m/nofp/libc_nano.a(libc_a-mlock.o)
 .bss           0x00000000        0x0 /usr/lib/gcc/arm-none-eabi/13.2.1/../../../arm-none-eabi/lib/thumb/v7-m/nofp/libc_nano.a(libc_a-mlock.o)
 .data          0x00000000        0x0 /usr/lib/gcc/arm-none-eabi/13.2.1/../../../arm-none-eabi/lib/thumb/v7-m/nofp/libc_nano.a(libc_a-makebuf.o)
 .bss           0x00000000        0x0 /usr/lib/gcc/arm-none-eabi/13.2.1/../../../arm-none-eabi/lib/thumb/v7-m/nofp/libc_nano.a(libc_a-makebuf.o)
 .data          0x00000000        0x0 /usr/lib/gcc/arm-none-eabi/13.2.1/../../../arm-none-eabi/lib/thumb/v7-m/nofp/libc_nano.a(libc_a-memchr-stub.o)
 .bss           0x00000000        0x0 /usr/lib/gcc/arm-none-eabi/13.2.1/../../../arm-none-eabi/lib/thumb/v7-m/nofp/libc_nano.a(libc_a-memchr-stub.o)
 .data          0x00000000        0x0 /usr/lib/gcc/arm-none-eabi/13.2.1/../../../arm-none-eabi/lib/thumb/v7-m/nofp/libc_nano.a(libc_a-isattyr.o)
 .bss           0x00000000        0x0 /usr/lib/gcc/arm-none-eabi/13.2.1/../../../arm-none-eabi/lib/thumb/v7-m/nofp/libc_nano.a(libc_a-isattyr.o)
 .data          0x00000000        0x0 /usr/lib/gcc/arm-none-eabi/13.2.1/../../../arm-none-eabi/lib/thumb/v7-m/nofp/libc_nano.a(libc_a-sbrkr.o)
 .bss           0x00000000        0x0 /usr/lib/gcc/arm-none-eabi/13.2.1/../../../arm-none-eabi/lib/thumb/v7-m/nofp/libc_nano.a(libc_a-sbrkr.o)
 .data          0x00000000        0x0 /usr/lib/gcc/arm-none-eabi/13.2.1/../../../arm-none-eabi/lib/thumb/v7-m/nofp/libc_nano.a(libc_a-stdio.o)
 .bss           0x00000000        0x0 /usr/lib/gcc/arm-none-eabi/13.2.1/../../../arm-none-eabi/lib/thumb/v7-m/nofp/libc_nano.a(libc_a-stdio.o)
 .data          0x00000000        0x0 /usr/lib/gcc/arm-none-eabi/13.2.1/../../../arm-none-eabi/lib/thumb/v7-m/nofp/libc_nano.a(libc_a-msizer.o)
 .bss           0x00000000        0x0 /usr/lib/gcc/arm-none-eabi/13.2.1/../../../arm-none-eabi/lib/thumb/v7-m/nofp/libc_nano.a(libc_a-msizer.o)
 .data          0x00000000        0x0 /usr/lib/gcc/arm-none-eabi/13.2.1/../../../arm-none-eabi/lib/thumb/v7-m/nofp/libc_nano.a(libc_a-closer.o)
 .bss           0x00000000        0x0 /usr/lib/gcc/arm-none-eabi/13.2.1/../../../arm-none-eabi/lib/thumb/v7-m/nofp/libc_nano.a(libc_a-closer.o)
 .text          0x00000000       0xc4 /usr/lib/gcc/arm-none-eabi/13.2.1/../../../arm-none-eabi/lib/thumb/v7-m/nofp/libc_nano.a(libc_a-__call_atexit.o)
 .data          0x00000000        0x0 /usr/lib/gcc/arm-none-eabi/13.2.1/../../../arm-none-eabi/lib/thumb/v7-m/nofp/libc_nano.a(libc_a-__call_atexit.o)
 .bss           0x00000000        0x4 /usr/lib/gcc/arm-none-eabi/13.2.1/../../../arm-none-eabi/lib/thumb/v7-m/nofp/libc_nano.a(libc_a-__call_atexit.o)
 .debug_info    0x00000000      0x235 /usr/lib/gcc/arm-none-eabi/13.2.1/../../../arm-none-eabi/lib/thumb/v7-m/nofp/libc_nano.a(libc_a-__call_atexit.o)
 .debug_abbrev  0x00000000      0x179 /usr/lib/gcc/arm-none-eabi/13.2.1/../../../arm-none-eabi/lib/thumb/v7-m/nofp/libc_nano.a(libc_a-__call_atexit.o)
 .debug_loclists
                0x00000000       0xff /usr/lib/gcc/arm-none-eabi/13.2.1/../../../arm-none-eabi/lib/thumb/v7-m/nofp/libc_nano.a(libc_a-__call_atexit.o)
 .debug_aranges
                0x00000000       0x20 /usr/lib/gcc/arm-none-eabi/13.2.1/../../../arm-none-eabi/lib/thumb/v7-m/nofp/libc_nano.a(libc_a-__call_atexit.o)
 .debug_rnglists
                0x00000000       0x2c /usr/lib/gcc/arm-none-eabi/13.2.1/../../../arm-none-eabi/lib/thumb/v7-m/nofp/libc_nano.a(libc_a-__call_atexit.o)
 .debug_line    0x00000000      0x24b /usr/lib/gcc/arm-none-eabi/13.2.1/../../../arm-none-eabi/lib/thumb/v7-m/nofp/libc_nano.a(libc_a-__call_atexit.o)
 .debug_str     0x00000000      0x23a /usr/lib/gcc/arm-none-eabi/13.2.1/../../../arm-none-eabi/lib/thumb/v7-m/nofp/libc_nano.a(libc_a-__call_atexit.o)
 .comment       0x00000000       0x27 /usr/lib/gcc/arm-none-eabi/13.2.1/../../../arm-none-eabi/lib/thumb/v7-m/nofp/libc_nano.a(libc_a-__call_atexit.o)
 .debug_frame   0x00000000       0x40 /usr/lib/gcc/arm-none-eabi/13.2.1/../../../arm-none-eabi/lib/thumb/v7-m/nofp/libc_nano.a(libc_a-__call_atexit.o)
 .ARM.attributes
                0x00000000       0x2d /usr/lib/gcc/arm-none-eabi/13.2.1/../../../arm-none-eabi/lib/thumb/v7-m/nofp/libc_nano.a(libc_a-__call_atexit.o)
 .data          0x00000000        0x0 /usr/lib/gcc/arm-none-eabi/13.2.1/../../../arm-none-eabi/lib/thumb/v7-m/nofp/libc_nano.a(libc_a-readr.o)
 .bss           0x00000000        0x0 /usr/lib/gcc/arm-none-eabi/13.2.1/../../../arm-none-eabi/lib/thumb/v7-m/nofp/libc_nano.a(libc_a-readr.o)
 .text          0x00000000       0xd4 /usr/lib/gcc/arm-none-eabi/13.2.1/../../../arm-none-eabi/lib/thumb/v7-m/nofp/libc_nano.a(libc_a-reent.o)
 .data          0x00000000        0x0 /usr/lib/gcc/arm-none-eabi/13.2.1/../../../arm-none-eabi/lib/thumb/v7-m/nofp/libc_nano.a(libc_a-reent.o)
 .data          0x00000000        0x0 /usr/lib/gcc/arm-none-eabi/13.2.1/../../../arm-none-eabi/lib/thumb/v7-m/nofp/libc_nano.a(libc_a-fstatr.o)
 .bss           0x00000000        0x0 /usr/lib/gcc/arm-none-eabi/13.2.1/../../../arm-none-eabi/lib/thumb/v7-m/nofp/libc_nano.a(libc_a-fstatr.o)
 .data          0x00000000        0x0 /usr/lib/gcc/arm-none-eabi/13.2.1/../../../arm-none-eabi/lib/thumb/v7-m/nofp/libc_nano.a(libc_a-lseekr.o)
 .bss           0x00000000        0x0 /usr/lib/gcc/arm-none-eabi/13.2.1/../../../arm-none-eabi/lib/thumb/v7-m/nofp/libc_nano.a(libc_a-lseekr.o)
 .data          0x00000000        0x0 /usr/lib/gcc/arm-none-eabi/13.2.1/../../../arm-none-eabi/lib/thumb/v7-m/nofp/libc_nano.a(libc_a-writer.o)
 .bss           0x00000000        0x0 /usr/lib/gcc/arm-none-eabi/13.2.1/../../../arm-none-eabi/lib/thumb/v7-m/nofp/libc_nano.a(libc_a-writer.o)
 .data          0x00000000        0x0 /usr/lib/gcc/arm-none-eabi/13.2.1/../../../arm-none-eabi/lib/thumb/v7-m/nofp/libnosys.a(close.o)
 .bss           0x00000000        0x0 /usr/lib/gcc/arm-none-eabi/13.2.1/../../../arm-none-eabi/lib/thumb/v7-m/nofp/libnosys.a(close.o)
 .gnu.warning._close
                0x00000000        0x0 /usr/lib/gcc/arm-none-eabi/13.2.1/../../../arm-none-eabi/lib/thumb/v7-m/nofp/libnosys.a(close.o)
 .data          0x00000000        0x0 /usr/lib/gcc/arm-none-eabi/13.2.1/../../../arm-none-eabi/lib/thumb/v7-m/nofp/libnosys.a(fstat.o)
 .bss           0x00000000        0x0 /usr/lib/gcc/arm-none-eabi/13.2.1/../../../arm-none-eabi/lib/thumb/v7-m/nofp/libnosys.a(fstat.o)
 .gnu.warning._fstat
                0x00000000        0x0 /usr/lib/gcc/arm-none-eabi/13.2.1/../../../arm-none-eabi/lib/thumb/v7-m/nofp/libnosys.a(fstat.o)
 .data          0x00000000        0x0 /usr/lib/gcc/arm-none-eabi/13.2.1/../../../arm-none-eabi/lib/thumb/v7-m/nofp/libnosys.a(isatty.o)
 .bss           0x00000000        0x0 /usr/lib/gcc/arm-none-eabi/13.2.1/../../../arm-none-eabi/lib/thumb/v7-m/nofp/libnosys.a(isatty.o)
 .gnu.warning._isatty
                0x00000000        0x0 /usr/lib/gcc/arm-none-eabi/13.2.1/../../../arm-none-eabi/lib/thumb/v7-m/nofp/libnosys.a(isatty.o)
 .data          0x00000000        0x0 /usr/lib/gcc/arm-none-eabi/13.2.1/../../../arm-none-eabi/lib/thumb/v7-m/nofp/libnosys.a(lseek.o)
 .bss           0x00000000        0x0 /usr/lib/gcc/arm-none-eabi/13.2.1/../../../arm-none-eabi/lib/thumb/v7-m/nofp/libnosys.a(lseek.o)
 .gnu.warning._lseek
                0x00000000        0x0 /usr/lib/gcc/arm-none-eabi/13.2.1/../../../arm-none-eabi/lib/thumb/v7-m/nofp/libnosys.a(lseek.o)
 .data          0x00000000        0x0 /usr/lib/gcc/arm-none-eabi/13.2.1/../../../arm-none-eabi/lib/thumb/v7-m/nofp/libnosys.a(read.o)
 .bss           0x00000000        0x0 /usr/lib/gcc/arm-none-eabi/13.2.1/../../../arm-none-eabi/lib/thumb/v7-m/nofp/libnosys.a(read.o)
 .gnu.warning._read
                0x00000000        0x0 /usr/lib/gcc/arm-none-eabi/13.2.1/../../../arm-none-eabi/lib/thumb/v7-m/nofp/libnosys.a(read.o)
 .data          0x00000000        0x0 /usr/lib/gcc/arm-none-eabi/13.2.1/../../../arm-none-eabi/lib/thumb/v7-m/nofp/libnosys.a(sbrk.o)
 .data          0x00000000        0x0 /usr/lib/gcc/arm-none-eabi/13.2.1/../../../arm-none-eabi/lib/thumb/v7-m/nofp/libnosys.a(write.o)
 .bss           0x00000000        0x0 /usr/lib/gcc/arm-none-eabi/13.2.1/../../../arm-none-eabi/lib/thumb/v7-m/nofp/libnosys.a(write.o)
 .gnu.warning._write
                0x00000000        0x0 /usr/lib/gcc/arm-none-eabi/13.2.1/../../../arm-none-eabi/lib/thumb/v7-m/nofp/libnosys.a(write.o)
 .text          0x00000000        0x4 /usr/lib/gcc/arm-none-eabi/13.2.1/../../../arm-none-eabi/lib/thumb/v7-m/nofp/libnosys.a(_exit.o)
 .data          0x00000000        0x0 /usr/lib/gcc/arm-none-eabi/13.2.1/../../../arm-none-eabi/lib/thumb/v7-m/nofp/libnosys.a(_exit.o)
 .bss           0x00000000        0x0 /usr/lib/gcc/arm-none-eabi/13.2.1/../../../arm-none-eabi/lib/thumb/v7-m/nofp/libnosys.a(_exit.o)
 .debug_info    0x00000000       0xa4 /usr/lib/gcc/arm-none-eabi/13.2.1/../../../arm-none-eabi/lib/thumb/v7-m/nofp/libnosys.a(_exit.o)
 .debug_abbrev  0x00000000       0x69 /usr/lib/gcc/arm-none-eabi/13.2.1/../../../arm-none-eabi/lib/thumb/v7-m/nofp/libnosys.a(_exit.o)
 .debug_loclists
                0x00000000       0x14 /usr/lib/gcc/arm-none-eabi/13.2.1/../../../arm-none-eabi/lib/thumb/v7-m/nofp/libnosys.a(_exit.o)
 .debug_aranges
                0x00000000       0x20 /usr/lib/gcc/arm-none-eabi/13.2.1/../../../arm-none-eabi/lib/thumb/v7-m/nofp/libnosys.a(_exit.o)
 .debug_line    0x00000000       0x61 /usr/lib/gcc/arm-none-eabi/13.2.1/../../../arm-none-eabi/lib/thumb/v7-m/nofp/libnosys.a(_exit.o)
 .debug_str     0x00000000      0x161 /usr/lib/gcc/arm-none-eabi/13.2.1/../../../arm-none-eabi/lib/thumb/v7-m/nofp/libnosys.a(_exit.o)
 .comment       0x00000000       0x27 /usr/lib/gcc/arm-none-eabi/13.2.1/../../../arm-none-eabi/lib/thumb/v7-m/nofp/libnosys.a(_exit.o)
 .debug_frame   0x00000000       0x20 /usr/lib/gcc/arm-none-eabi/13.2.1/../../../arm-none-eabi/lib/thumb/v7-m/nofp/libnosys.a(_exit.o)
 .ARM.attributes
                0x00000000       0x2d /usr/lib/gcc/arm-none-eabi/13.2.1/../../../arm-none-eabi/lib/thumb/v7-m/nofp/libnosys.a(_exit.o)
 .text          0x00000000      0x254 /usr/lib/gcc/arm-none-eabi/13.2.1/thumb/v7-m/nofp/libgcc.a(_arm_muldf3.o)
 .data          0x00000000        0x0 /usr/lib/gcc/arm-none-eabi/13.2.1/thumb/v7-m/nofp/libgcc.a(_arm_muldf3.o)
 .bss           0x00000000        0x0 /usr/lib/gcc/arm-none-eabi/13.2.1/thumb/v7-m/nofp/libgcc.a(_arm_muldf3.o)
 .debug_line    0x00000000       0xf5 /usr/lib/gcc/arm-none-eabi/13.2.1/thumb/v7-m/nofp/libgcc.a(_arm_muldf3.o)
 .debug_line_str
                0x00000000       0x98 /usr/lib/gcc/arm-none-eabi/13.2.1/thumb/v7-m/nofp/libgcc.a(_arm_muldf3.o)
 .debug_info    0x00000000       0x3f /usr/lib/gcc/arm-none-eabi/13.2.1/thumb/v7-m/nofp/libgcc.a(_arm_muldf3.o)
 .debug_abbrev  0x00000000       0x26 /usr/lib/gcc/arm-none-eabi/13.2.1/thumb/v7-m/nofp/libgcc.a(_arm_muldf3.o)
 .debug_aranges
                0x00000000       0x20 /usr/lib/gcc/arm-none-eabi/13.2.1/thumb/v7-m/nofp/libgcc.a(_arm_muldf3.o)
 .debug_str     0x00000000       0xba /usr/lib/gcc/arm-none-eabi/13.2.1/thumb/v7-m/nofp/libgcc.a(_arm_muldf3.o)
 .debug_frame   0x00000000       0x30 /usr/lib/gcc/arm-none-eabi/13.2.1/thumb/v7-m/nofp/libgcc.a(_arm_muldf3.o)
 .ARM.attributes
                0x00000000       0x1d /usr/lib/gcc/arm-none-eabi/13.2.1/thumb/v7-m/nofp/libgcc.a(_arm_muldf3.o)
 .text          0x00000000      0x378 /usr/lib/gcc/arm-none-eabi/13.2.1/thumb/v7-m/nofp/libgcc.a(_arm_addsubdf3.o)
 .data          0x00000000        0x0 /usr/lib/gcc/arm-none-eabi/13.2.1/thumb/v7-m/nofp/libgcc.a(_arm_addsubdf3.o)
 .bss           0x00000000        0x0 /usr/lib/gcc/arm-none-eabi/13.2.1/thumb/v7-m/nofp/libgcc.a(_arm_addsubdf3.o)
 .debug_line    0x00000000      0x16f /usr/lib/gcc/arm-none-eabi/13.2.1/thumb/v7-m/nofp/libgcc.a(_arm_addsubdf3.o)
 .debug_line_str
                0x00000000       0x98 /usr/lib/gcc/arm-none-eabi/13.2.1/thumb/v7-m/nofp/libgcc.a(_arm_addsubdf3.o)
 .debug_info    0x00000000       0xd3 /usr/lib/gcc/arm-none-eabi/13.2.1/thumb/v7-m/nofp/libgcc.a(_arm_addsubdf3.o)
 .debug_abbrev  0x00000000       0x28 /usr/lib/gcc/arm-none-eabi/13.2.1/thumb/v7-m/nofp/libgcc.a(_arm_addsubdf3.o)
 .debug_aranges
                0x00000000       0x20 /usr/lib/gcc/arm-none-eabi/13.2.1/thumb/v7-m/nofp/libgcc.a(_arm_addsubdf3.o)
 .debug_str     0x00000000      0x150 /usr/lib/gcc/arm-none-eabi/13.2.1/thumb/v7-m/nofp/libgcc.a(_arm_addsubdf3.o)
 .debug_frame   0x00000000       0xac /usr/lib/gcc/arm-none-eabi/13.2.1/thumb/v7-m/nofp/libgcc.a(_arm_addsubdf3.o)
 .ARM.attributes
                0x00000000       0x1d /usr/lib/gcc/arm-none-eabi/13.2.1/thumb/v7-m/nofp/libgcc.a(_arm_addsubdf3.o)
 .text          0x00000000      0x424 /usr/lib/gcc/arm-none-eabi/13.2.1/thumb/v7-m/nofp/libgcc.a(_arm_muldivdf3.o)
 .data          0x00000000        0x0 /usr/lib/gcc/arm-none-eabi/13.2.1/thumb/v7-m/nofp/libgcc.a(_arm_muldivdf3.o)
 .bss           0x00000000        0x0 /usr/lib/gcc/arm-none-eabi/13.2.1/thumb/v7-m/nofp/libgcc.a(_arm_muldivdf3.o)
 .debug_line    0x00000000      0x184 /usr/lib/gcc/arm-none-eabi/13.2.1/thumb/v7-m/nofp/libgcc.a(_arm_muldivdf3.o)
 .debug_line_str
                0x00000000       0x98 /usr/lib/gcc/arm-none-eabi/13.2.1/thumb/v7-m/nofp/libgcc.a(_arm_muldivdf3.o)
 .debug_info    0x00000000       0x57 /usr/lib/gcc/arm-none-eabi/13.2.1/thumb/v7-m/nofp/libgcc.a(_arm_muldivdf3.o)
 .debug_abbrev  0x00000000       0x28 /usr/lib/gcc/arm-none-eabi/13.2.1/thumb/v7-m/nofp/libgcc.a(_arm_muldivdf3.o)
 .debug_aranges
                0x00000000       0x20 /usr/lib/gcc/arm-none-eabi/13.2.1/thumb/v7-m/nofp/libgcc.a(_arm_muldivdf3.o)
 .debug_str     0x00000000       0xd0 /usr/lib/gcc/arm-none-eabi/13.2.1/thumb/v7-m/nofp/libgcc.a(_arm_muldivdf3.o)
 .debug_frame   0x00000000       0x50 /usr/lib/gcc/arm-none-eabi/13.2.1/thumb/v7-m/nofp/libgcc.a(_arm_muldivdf3.o)
 .ARM.attributes
                0x00000000       0x1d /usr/lib/gcc/arm-none-eabi/13.2.1/thumb/v7-m/nofp/libgcc.a(_arm_muldivdf3.o)
 .text          0x00000000      0x110 /usr/lib/gcc/arm-none-eabi/13.2.1/thumb/v7-m/nofp/libgcc.a(_arm_cmpdf2.o)
 .data          0x00000000        0x0 /usr/lib/gcc/arm-none-eabi/13.2.1/thumb/v7-m/nofp/libgcc.a(_arm_cmpdf2.o)
 .bss           0x00000000        0x0 /usr/lib/gcc/arm-none-eabi/13.2.1/thumb/v7-m/nofp/libgcc.a(_arm_cmpdf2.o)
 .debug_line    0x00000000       0xa6 /usr/lib/gcc/arm-none-eabi/13.2.1/thumb/v7-m/nofp/libgcc.a(_arm_cmpdf2.o)
 .debug_line_str
                0x00000000       0x98 /usr/lib/gcc/arm-none-eabi/13.2.1/thumb/v7-m/nofp/libgcc.a(_arm_cmpdf2.o)
 .debug_info    0x00000000       0xdf /usr/lib/gcc/arm-none-eabi/13.2.1/thumb/v7-m/nofp/libgcc.a(_arm_cmpdf2.o)
 .debug_abbrev  0x00000000       0x28 /usr/lib/gcc/arm-none-eabi/13.2.1/thumb/v7-m/nofp/libgcc.a(_arm_cmpdf2.o)
 .debug_aranges
                0x00000000       0x20 /usr/lib/gcc/arm-none-eabi/13.2.1/thumb/v7-m/nofp/libgcc.a(_arm_cmpdf2.o)
 .debug_str     0x00000000      0x159 /usr/lib/gcc/arm-none-eabi/13.2.1/thumb/v7-m/nofp/libgcc.a(_arm_cmpdf2.o)
 .debug_frame   0x00000000       0xc4 /usr/lib/gcc/arm-none-eabi/13.2.1/thumb/v7-m/nofp/libgcc.a(_arm_cmpdf2.o)
 .ARM.attributes
                0x00000000       0x1d /usr/lib/gcc/arm-none-eabi/13.2.1/thumb/v7-m/nofp/libgcc.a(_arm_cmpdf2.o)
 .text          0x00000000       0x50 /usr/lib/gcc/arm-none-eabi/13.2.1/thumb/v7-m/nofp/libgcc.a(_arm_fixdfsi.o)
 .data          0x00000000        0x0 /usr/lib/gcc/arm-none-eabi/13.2.1/thumb/v7-m/nofp/libgcc.a(_arm_fixdfsi.o)
 .bss           0x00000000        0x0 /usr/lib/gcc/arm-none-eabi/13.2.1/thumb/v7-m/nofp/libgcc.a(_arm_fixdfsi.o)
 .debug_line    0x00000000       0x62 /usr/lib/gcc/arm-none-eabi/13.2.1/thumb/v7-m/nofp/libgcc.a(_arm_fixdfsi.o)
 .debug_line_str
                0x00000000       0x98 /usr/lib/gcc/arm-none-eabi/13.2.1/thumb/v7-m/nofp/libgcc.a(_arm_fixdfsi.o)
 .debug_info    0x00000000       0x3c /usr/lib/gcc/arm-none-eabi/13.2.1/thumb/v7-m/nofp/libgcc.a(_arm_fixdfsi.o)
 .debug_abbrev  0x00000000       0x28 /usr/lib/gcc/arm-none-eabi/13.2.1/thumb/v7-m/nofp/libgcc.a(_arm_fixdfsi.o)
 .debug_aranges
                0x00000000       0x20 /usr/lib/gcc/arm-none-eabi/13.2.1/thumb/v7-m/nofp/libgcc.a(_arm_fixdfsi.o)
 .debug_str     0x00000000       0xbb /usr/lib/gcc/arm-none-eabi/13.2.1/thumb/v7-m/nofp/libgcc.a(_arm_fixdfsi.o)
 .debug_frame   0x00000000       0x24 /usr/lib/gcc/arm-none-eabi/13.2.1/thumb/v7-m/nofp/libgcc.a(_arm_fixdfsi.o)
 .ARM.attributes
                0x00000000       0x1d /usr/lib/gcc/arm-none-eabi/13.2.1/thumb/v7-m/nofp/libgcc.a(_arm_fixdfsi.o)
 .text          0x00000000       0x40 /usr/lib/gcc/arm-none-eabi/13.2.1/thumb/v7-m/nofp/libgcc.a(_arm_fixunsdfsi.o)
 .data          0x00000000        0x0 /usr/lib/gcc/arm-none-eabi/13.2.1/thumb/v7-m/nofp/libgcc.a(_arm_fixunsdfsi.o)
 .bss           0x00000000        0x0 /usr/lib/gcc/arm-none-eabi/13.2.1/thumb/v7-m/nofp/libgcc.a(_arm_fixunsdfsi.o)
 .debug_line    0x00000000       0x5e /usr/lib/gcc/arm-none-eabi/13.2.1/thumb/v7-m/nofp/libgcc.a(_arm_fixunsdfsi.o)
 .debug_line_str
                0x00000000       0x98 /usr/lib/gcc/arm-none-eabi/13.2.1/thumb/v7-m/nofp/libgcc.a(_arm_fixunsdfsi.o)
 .debug_info    0x00000000       0x3c /usr/lib/gcc/arm-none-eabi/13.2.1/thumb/v7-m/nofp/libgcc.a(_arm_fixunsdfsi.o)
 .debug_abbrev  0x00000000       0x28 /usr/lib/gcc/arm-none-eabi/13.2.1/thumb/v7-m/nofp/libgcc.a(_arm_fixunsdfsi.o)
 .debug_aranges
                0x00000000       0x20 /usr/lib/gcc/arm-none-eabi/13.2.1/thumb/v7-m/nofp/libgcc.a(_arm_fixunsdfsi.o)
 .debug_str     0x00000000       0xbf /usr/lib/gcc/arm-none-eabi/13.2.1/thumb/v7-m/nofp/libgcc.a(_arm_fixunsdfsi.o)
 .debug_frame   0x00000000       0x24 /usr/lib/gcc/arm-none-eabi/13.2.1/thumb/v7-m/nofp/libgcc.a(_arm_fixunsdfsi.o)
 .ARM.attributes
                0x00000000       0x1d /usr/lib/gcc/arm-none-eabi/13.2.1/thumb/v7-m/nofp/libgcc.a(_arm_fixunsdfsi.o)
 .text          0x00000000        0x0 /usr/lib/gcc/arm-none-eabi/13.2.1/thumb/v7-m/nofp/crtend.o
 .data          0x00000000        0x0 /usr/lib/gcc/arm-none-eabi/13.2.1/thumb/v7-m/nofp/crtend.o
 .bss           0x00000000        0x0 /usr/lib/gcc/arm-none-eabi/13.2.1/thumb/v7-m/nofp/crtend.o
 .rodata        0x00000000       0x24 /usr/lib/gcc/arm-none-eabi/13.2.1/thumb/v7-m/nofp/crtend.o
 .eh_frame      0x00000000        0x4 /usr/lib/gcc/arm-none-eabi/13.2.1/thumb/v7-m/nofp/crtend.o
 .text          0x00000000        0x0 /usr/lib/gcc/arm-none-eabi/13.2.1/thumb/v7-m/nofp/crtn.o
 .data          0x00000000        0x0 /usr/lib/gcc/arm-none-eabi/13.2.1/thumb/v7-m/nofp/crtn.o
 .bss           0x00000000        0x0 /usr/lib/gcc/arm-none-eabi/13.2.1/thumb/v7-m/nofp/crtn.o

Memory Configuration

Name             Origin             Length             Attributes
RAM              0x20000000         0x0000c000         xrw
FLASH            0x08000000         0x00040000         xr
*default*        0x00000000         0xffffffff

Linker script and memory map

LOAD /usr/lib/gcc/arm-none-eabi/13.2.1/thumb/v7-m/nofp/crti.o
LOAD /usr/lib/gcc/arm-none-eabi/13.2.1/thumb/v7-m/nofp/crtbegin.o
LOAD /usr/lib/gcc/arm-none-eabi/13.2.1/../../../arm-none-eabi/lib/thumb/v7-m/nofp/crt0.o
LOAD /workspaces/qgv/hoverboard-firmware-hack-FOC/build/stm32f1xx_hal_flash.o
LOAD /workspaces/qgv/hoverboard-firmware-hack-FOC/build/stm32f1xx_hal_pwr.o
LOAD /workspaces/qgv/hoverboard-firmware-hack-FOC/build/stm32f1xx_hal_rcc.o
LOAD /workspaces/qgv/hoverboard-firmware-hack-FOC/build/stm32f1xx_hal_tim.o
LOAD /workspaces/qgv/hoverboard-firmware-hack-FOC/build/stm32f1xx_hal_tim_ex.o
LOAD /workspaces/qgv/hoverboard-firmware-hack-FOC/build/stm32f1xx_hal_gpio_ex.o
LOAD /workspaces/qgv/hoverboard-firmware-hack-FOC/build/stm32f1xx_hal_adc_ex.o
LOAD /workspaces/qgv/hoverboard-firmware-hack-FOC/build/stm32f1xx_hal_cortex.o
LOAD /workspaces/qgv/hoverboard-firmware-hack-FOC/build/stm32f1xx_hal_flash_ex.o
LOAD /workspaces/qgv/hoverboard-firmware-hack-FOC/build/stm32f1xx_hal_gpio.o
LOAD /workspaces/qgv/hoverboard-firmware-hack-FOC/build/stm32f1xx_hal_rcc_ex.o
LOAD /workspaces/qgv/hoverboard-firmware-hack-FOC/build/stm32f1xx_hal.o
LOAD /workspaces/qgv/hoverboard-firmware-hack-FOC/build/stm32f1xx_hal_adc.o
LOAD /workspaces/qgv/hoverboard-firmware-hack-FOC/build/stm32f1xx_hal_uart.o
LOAD /workspaces/qgv/hoverboard-firmware-hack-FOC/build/stm32f1xx_hal_i2c.o
LOAD /workspaces/qgv/hoverboard-firmware-hack-FOC/build/stm32f1xx_hal_dma.o
LOAD /workspaces/qgv/hoverboard-firmware-hack-FOC/build/system_stm32f1xx.o
LOAD /workspaces/qgv/hoverboard-firmware-hack-FOC/build/setup.o
LOAD /workspaces/qgv/hoverboard-firmware-hack-FOC/build/control.o
LOAD /workspaces/qgv/hoverboard-firmware-hack-FOC/build/comms.o
LOAD /workspaces/qgv/hoverboard-firmware-hack-FOC/build/util.o
LOAD /workspaces/qgv/hoverboard-firmware-hack-FOC/build/main.o
LOAD /workspaces/qgv/hoverboard-firmware-hack-FOC/build/bldc.o
LOAD /workspaces/qgv/hoverboard-firmware-hack-FOC/build/eeprom.o
LOAD /workspaces/qgv/hoverboard-firmware-hack-FOC/build/hd44780.o
LOAD /workspaces/qgv/hoverboard-firmware-hack-FOC/build/pcf8574.o
LOAD /workspaces/qgv/hoverboard-firmware-hack-FOC/build/stm32f1xx_it.o
LOAD /workspaces/qgv/hoverboard-firmware-hack-FOC/build/BLDC_controller_data.o
LOAD /workspaces/qgv/hoverboard-firmware-hack-FOC/build/BLDC_controller.o
LOAD /workspaces/qgv/hoverboard-firmware-hack-FOC/build/startup_stm32f103xe.o
LOAD /usr/lib/gcc/arm-none-eabi/13.2.1/../../../arm-none-eabi/lib/thumb/v7-m/nofp/libc_nano.a
LOAD /usr/lib/gcc/arm-none-eabi/13.2.1/../../../arm-none-eabi/lib/thumb/v7-m/nofp/libm.a
LOAD /usr/lib/gcc/arm-none-eabi/13.2.1/../../../arm-none-eabi/lib/thumb/v7-m/nofp/libnosys.a
START GROUP
LOAD /usr/lib/gcc/arm-none-eabi/13.2.1/thumb/v7-m/nofp/libgcc.a
LOAD /usr/lib/gcc/arm-none-eabi/13.2.1/../../../arm-none-eabi/lib/thumb/v7-m/nofp/libc_nano.a
END GROUP
START GROUP
LOAD /usr/lib/gcc/arm-none-eabi/13.2.1/thumb/v7-m/nofp/libgcc.a
LOAD /usr/lib/gcc/arm-none-eabi/13.2.1/../../../arm-none-eabi/lib/thumb/v7-m/nofp/libc_nano.a
END GROUP
LOAD /usr/lib/gcc/arm-none-eabi/13.2.1/thumb/v7-m/nofp/crtend.o
LOAD /usr/lib/gcc/arm-none-eabi/13.2.1/thumb/v7-m/nofp/crtn.o
                0x2000c000                        _estack = 0x2000c000
                0x00000200                        _Min_Heap_Size = 0x200
                0x00000400                        _Min_Stack_Size = 0x400

.isr_vector     0x08000000      0x1e4
                0x08000000                        . = ALIGN (0x4)
 *(.isr_vector)
 .isr_vector    0x08000000      0x1e4 /workspaces/qgv/hoverboard-firmware-hack-FOC/build/startup_stm32f103xe.o
                0x08000000                g_pfnVectors
                0x080001e4                        . = ALIGN (0x4)

.text           0x080001e4     0x8298
                0x080001e4                        . = ALIGN (0x4)
 *(.text)
 .text          0x080001e4       0x88 /usr/lib/gcc/arm-none-eabi/13.2.1/thumb/v7-m/nofp/crtbegin.o
 .text          0x0800026c       0x50 /usr/lib/gcc/arm-none-eabi/13.2.1/../../../arm-none-eabi/lib/thumb/v7-m/nofp/libc_nano.a(libc_a-init.o)
                0x0800026c                __libc_init_array
 .text          0x080002bc       0xa0 /usr/lib/gcc/arm-none-eabi/13.2.1/../../../arm-none-eabi/lib/thumb/v7-m/nofp/libc_nano.a(libc_a-memset.o)
                0x080002bc                memset
 .text          0x0800035c       0xec /usr/lib/gcc/arm-none-eabi/13.2.1/../../../arm-none-eabi/lib/thumb/v7-m/nofp/libc_nano.a(libc_a-memcpy.o)
                0x0800035c                memcpy
 .text          0x08000448       0x48 /usr/lib/gcc/arm-none-eabi/13.2.1/../../../arm-none-eabi/lib/thumb/v7-m/nofp/libc_nano.a(libc_a-printf.o)
                0x08000448                _printf_r
                0x08000448                _iprintf_r
                0x08000468                printf
                0x08000468                iprintf
 .text          0x08000490      0x2ec /usr/lib/gcc/arm-none-eabi/13.2.1/../../../arm-none-eabi/lib/thumb/v7-m/nofp/libc_nano.a(libc_a-nano-vfprintf.o)
                0x080004b8                __sfputs_r
                0x080004e8                __sprint_r
                0x08000508                _vfiprintf_r
                0x08000508                _vfprintf_r
                0x08000760                vfiprintf
                0x08000760                vfprintf
 .text          0x0800077c       0x9c /usr/lib/gcc/arm-none-eabi/13.2.1/../../../arm-none-eabi/lib/thumb/v7-m/nofp/libc_nano.a(libc_a-wbuf.o)
                0x0800077c                __swbuf_r
                0x08000804                __swbuf
 .text          0x08000818      0x2ec /usr/lib/gcc/arm-none-eabi/13.2.1/../../../arm-none-eabi/lib/thumb/v7-m/nofp/libc_nano.a(libc_a-fvwrite.o)
                0x08000818                __sfvwrite_r
 .text          0x08000b04      0x224 /usr/lib/gcc/arm-none-eabi/13.2.1/../../../arm-none-eabi/lib/thumb/v7-m/nofp/libc_nano.a(libc_a-findfp.o)
                0x08000c34                __sfp
                0x08000cd8                __sinit
                0x08000cf8                __sfp_lock_acquire
                0x08000cfc                __sfp_lock_release
                0x08000d00                __fp_lock_all
                0x08000d14                __fp_unlock_all
 .text          0x08000d28      0x198 /usr/lib/gcc/arm-none-eabi/13.2.1/../../../arm-none-eabi/lib/thumb/v7-m/nofp/libc_nano.a(libc_a-fflush.o)
                0x08000d28                __sflush_r
                0x08000e3c                _fflush_r
                0x08000e74                fflush
 .text          0x08000ec0      0x14c /usr/lib/gcc/arm-none-eabi/13.2.1/../../../arm-none-eabi/lib/thumb/v7-m/nofp/libc_nano.a(libc_a-mallocr.o)
                0x08000f0c                _malloc_r
 .text          0x0800100c       0xbc /usr/lib/gcc/arm-none-eabi/13.2.1/../../../arm-none-eabi/lib/thumb/v7-m/nofp/libc_nano.a(libc_a-freer.o)
                0x0800100c                _free_r
 .text          0x080010c8       0xfc /usr/lib/gcc/arm-none-eabi/13.2.1/../../../arm-none-eabi/lib/thumb/v7-m/nofp/libc_nano.a(libc_a-memmove.o)
                0x080010c8                memmove
 .text          0x080011c4       0x44 /usr/lib/gcc/arm-none-eabi/13.2.1/../../../arm-none-eabi/lib/thumb/v7-m/nofp/libc_nano.a(libc_a-fwalk.o)
                0x080011c4                _fwalk_sglue
 .text          0x08001208       0xc4 /usr/lib/gcc/arm-none-eabi/13.2.1/../../../arm-none-eabi/lib/thumb/v7-m/nofp/libc_nano.a(libc_a-wsetup.o)
                0x08001208                __swsetup_r
 .text          0x080012cc       0x64 /usr/lib/gcc/arm-none-eabi/13.2.1/../../../arm-none-eabi/lib/thumb/v7-m/nofp/libc_nano.a(libc_a-reallocr.o)
                0x080012cc                _realloc_r
 .text          0x08001330      0x3a8 /usr/lib/gcc/arm-none-eabi/13.2.1/../../../arm-none-eabi/lib/thumb/v7-m/nofp/libc_nano.a(libc_a-nano-vfprintf_i.o)
                0x08001330                _printf_common
                0x08001454                _printf_i
 .text          0x080016d8        0x8 /usr/lib/gcc/arm-none-eabi/13.2.1/../../../arm-none-eabi/lib/thumb/v7-m/nofp/libc_nano.a(libc_a-mlock.o)
                0x080016d8                __malloc_lock
                0x080016dc                __malloc_unlock
 .text          0x080016e0      0x110 /usr/lib/gcc/arm-none-eabi/13.2.1/../../../arm-none-eabi/lib/thumb/v7-m/nofp/libc_nano.a(libc_a-makebuf.o)
                0x080016e0                __smakebuf_r
                0x080017a4                __swhatbuf_r
 .text          0x080017f0       0x98 /usr/lib/gcc/arm-none-eabi/13.2.1/../../../arm-none-eabi/lib/thumb/v7-m/nofp/libc_nano.a(libc_a-memchr-stub.o)
                0x080017f0                memchr
 .text          0x08001888       0x24 /usr/lib/gcc/arm-none-eabi/13.2.1/../../../arm-none-eabi/lib/thumb/v7-m/nofp/libc_nano.a(libc_a-isattyr.o)
                0x08001888                _isatty_r
 .text          0x080018ac       0x24 /usr/lib/gcc/arm-none-eabi/13.2.1/../../../arm-none-eabi/lib/thumb/v7-m/nofp/libc_nano.a(libc_a-sbrkr.o)
                0x080018ac                _sbrk_r
 .text          0x080018d0       0x94 /usr/lib/gcc/arm-none-eabi/13.2.1/../../../arm-none-eabi/lib/thumb/v7-m/nofp/libc_nano.a(libc_a-stdio.o)
                0x080018d0                __sread
                0x080018f4                __seofread
                0x080018f8                __swrite
                0x08001938                __sseek
                0x0800195c                __sclose
 .text          0x08001964       0x10 /usr/lib/gcc/arm-none-eabi/13.2.1/../../../arm-none-eabi/lib/thumb/v7-m/nofp/libc_nano.a(libc_a-msizer.o)
                0x08001964                _malloc_usable_size_r
 .text          0x08001974       0x24 /usr/lib/gcc/arm-none-eabi/13.2.1/../../../arm-none-eabi/lib/thumb/v7-m/nofp/libc_nano.a(libc_a-closer.o)
                0x08001974                _close_r
 .text          0x08001998       0x2c /usr/lib/gcc/arm-none-eabi/13.2.1/../../../arm-none-eabi/lib/thumb/v7-m/nofp/libc_nano.a(libc_a-readr.o)
                0x08001998                _read_r
 .text          0x080019c4       0x28 /usr/lib/gcc/arm-none-eabi/13.2.1/../../../arm-none-eabi/lib/thumb/v7-m/nofp/libc_nano.a(libc_a-fstatr.o)
                0x080019c4                _fstat_r
 .text          0x080019ec       0x2c /usr/lib/gcc/arm-none-eabi/13.2.1/../../../arm-none-eabi/lib/thumb/v7-m/nofp/libc_nano.a(libc_a-lseekr.o)
                0x080019ec                _lseek_r
 .text          0x08001a18       0x2c /usr/lib/gcc/arm-none-eabi/13.2.1/../../../arm-none-eabi/lib/thumb/v7-m/nofp/libc_nano.a(libc_a-writer.o)
                0x08001a18                _write_r
 .text          0x08001a44       0x10 /usr/lib/gcc/arm-none-eabi/13.2.1/../../../arm-none-eabi/lib/thumb/v7-m/nofp/libnosys.a(close.o)
                0x08001a44                _close
 .text          0x08001a54       0x10 /usr/lib/gcc/arm-none-eabi/13.2.1/../../../arm-none-eabi/lib/thumb/v7-m/nofp/libnosys.a(fstat.o)
                0x08001a54                _fstat
 .text          0x08001a64       0x10 /usr/lib/gcc/arm-none-eabi/13.2.1/../../../arm-none-eabi/lib/thumb/v7-m/nofp/libnosys.a(isatty.o)
                0x08001a64                _isatty
 .text          0x08001a74       0x10 /usr/lib/gcc/arm-none-eabi/13.2.1/../../../arm-none-eabi/lib/thumb/v7-m/nofp/libnosys.a(lseek.o)
                0x08001a74                _lseek
 .text          0x08001a84       0x10 /usr/lib/gcc/arm-none-eabi/13.2.1/../../../arm-none-eabi/lib/thumb/v7-m/nofp/libnosys.a(read.o)
                0x08001a84                _read
 .text          0x08001a94       0x1c /usr/lib/gcc/arm-none-eabi/13.2.1/../../../arm-none-eabi/lib/thumb/v7-m/nofp/libnosys.a(sbrk.o)
                0x08001a94                _sbrk
 .text          0x08001ab0       0x10 /usr/lib/gcc/arm-none-eabi/13.2.1/../../../arm-none-eabi/lib/thumb/v7-m/nofp/libnosys.a(write.o)
                0x08001ab0                _write
 *(.text*)
 .text.FLASH_Program_HalfWord
                0x08001ac0       0x1c /workspaces/qgv/hoverboard-firmware-hack-FOC/build/stm32f1xx_hal_flash.o
 .text.FLASH_SetErrorCode
                0x08001adc       0x70 /workspaces/qgv/hoverboard-firmware-hack-FOC/build/stm32f1xx_hal_flash.o
 .text.HAL_FLASH_Unlock
                0x08001b4c       0x28 /workspaces/qgv/hoverboard-firmware-hack-FOC/build/stm32f1xx_hal_flash.o
                0x08001b4c                HAL_FLASH_Unlock
 .text.HAL_FLASH_Lock
                0x08001b74       0x14 /workspaces/qgv/hoverboard-firmware-hack-FOC/build/stm32f1xx_hal_flash.o
                0x08001b74                HAL_FLASH_Lock
 .text.FLASH_WaitForLastOperation
                0x08001b88       0x68 /workspaces/qgv/hoverboard-firmware-hack-FOC/build/stm32f1xx_hal_flash.o
                0x08001b88                FLASH_WaitForLastOperation
 .text.HAL_FLASH_Program
                0x08001bf0       0xa0 /workspaces/qgv/hoverboard-firmware-hack-FOC/build/stm32f1xx_hal_flash.o
                0x08001bf0                HAL_FLASH_Program
 .text.RCC_Delay
                0x08001c90       0x2c /workspaces/qgv/hoverboard-firmware-hack-FOC/build/stm32f1xx_hal_rcc.o
 .text.HAL_RCC_OscConfig
                0x08001cbc      0x3e0 /workspaces/qgv/hoverboard-firmware-hack-FOC/build/stm32f1xx_hal_rcc.o
                0x08001cbc                HAL_RCC_OscConfig
 .text.HAL_RCC_GetSysClockFreq
                0x0800209c       0x70 /workspaces/qgv/hoverboard-firmware-hack-FOC/build/stm32f1xx_hal_rcc.o
                0x0800209c                HAL_RCC_GetSysClockFreq
 .text.HAL_RCC_ClockConfig
                0x0800210c      0x17c /workspaces/qgv/hoverboard-firmware-hack-FOC/build/stm32f1xx_hal_rcc.o
                0x0800210c                HAL_RCC_ClockConfig
 .text.HAL_RCC_GetHCLKFreq
                0x08002288        0xc /workspaces/qgv/hoverboard-firmware-hack-FOC/build/stm32f1xx_hal_rcc.o
                0x08002288                HAL_RCC_GetHCLKFreq
 .text.HAL_RCC_GetPCLK1Freq
                0x08002294       0x20 /workspaces/qgv/hoverboard-firmware-hack-FOC/build/stm32f1xx_hal_rcc.o
                0x08002294                HAL_RCC_GetPCLK1Freq
 .text.HAL_RCC_GetPCLK2Freq
                0x080022b4       0x20 /workspaces/qgv/hoverboard-firmware-hack-FOC/build/stm32f1xx_hal_rcc.o
                0x080022b4                HAL_RCC_GetPCLK2Freq
 .text.TIM_OC1_SetConfig
                0x080022d4       0x70 /workspaces/qgv/hoverboard-firmware-hack-FOC/build/stm32f1xx_hal_tim.o
 .text.TIM_OC3_SetConfig
                0x08002344       0x70 /workspaces/qgv/hoverboard-firmware-hack-FOC/build/stm32f1xx_hal_tim.o
 .text.TIM_OC4_SetConfig
                0x080023b4       0x50 /workspaces/qgv/hoverboard-firmware-hack-FOC/build/stm32f1xx_hal_tim.o
 .text.TIM_TI1_ConfigInputStage
                0x08002404       0x24 /workspaces/qgv/hoverboard-firmware-hack-FOC/build/stm32f1xx_hal_tim.o
 .text.TIM_TI2_ConfigInputStage
                0x08002428       0x26 /workspaces/qgv/hoverboard-firmware-hack-FOC/build/stm32f1xx_hal_tim.o
 .text.TIM_ETR_SetConfig
                0x0800244e       0x18 /workspaces/qgv/hoverboard-firmware-hack-FOC/build/stm32f1xx_hal_tim.o
 .text.TIM_SlaveTimer_SetConfig
                0x08002466       0x74 /workspaces/qgv/hoverboard-firmware-hack-FOC/build/stm32f1xx_hal_tim.o
 .text.HAL_TIM_PWM_MspInit
                0x080024da        0x2 /workspaces/qgv/hoverboard-firmware-hack-FOC/build/stm32f1xx_hal_tim.o
                0x080024da                HAL_TIM_PWM_MspInit
 .text.HAL_TIM_SlaveConfigSynchronization
                0x080024dc       0x40 /workspaces/qgv/hoverboard-firmware-hack-FOC/build/stm32f1xx_hal_tim.o
                0x080024dc                HAL_TIM_SlaveConfigSynchronization
 .text.TIM_Base_SetConfig
                0x0800251c       0x98 /workspaces/qgv/hoverboard-firmware-hack-FOC/build/stm32f1xx_hal_tim.o
                0x0800251c                TIM_Base_SetConfig
 .text.HAL_TIM_PWM_Init
                0x080025b4       0x34 /workspaces/qgv/hoverboard-firmware-hack-FOC/build/stm32f1xx_hal_tim.o
                0x080025b4                HAL_TIM_PWM_Init
 .text.TIM_OC2_SetConfig
                0x080025e8       0x70 /workspaces/qgv/hoverboard-firmware-hack-FOC/build/stm32f1xx_hal_tim.o
                0x080025e8                TIM_OC2_SetConfig
 .text.HAL_TIM_PWM_ConfigChannel
                0x08002658       0xdc /workspaces/qgv/hoverboard-firmware-hack-FOC/build/stm32f1xx_hal_tim.o
                0x08002658                HAL_TIM_PWM_ConfigChannel
 .text.TIM_CCxChannelCmd
                0x08002734       0x1a /workspaces/qgv/hoverboard-firmware-hack-FOC/build/stm32f1xx_hal_tim.o
                0x08002734                TIM_CCxChannelCmd
 *fill*         0x0800274e        0x2 
 .text.HAL_TIM_PWM_Start
                0x08002750       0x38 /workspaces/qgv/hoverboard-firmware-hack-FOC/build/stm32f1xx_hal_tim.o
                0x08002750                HAL_TIM_PWM_Start
 .text.TIM_CCxNChannelCmd
                0x08002788       0x1a /workspaces/qgv/hoverboard-firmware-hack-FOC/build/stm32f1xx_hal_tim_ex.o
 .text.HAL_TIMEx_PWMN_Start
                0x080027a2       0x24 /workspaces/qgv/hoverboard-firmware-hack-FOC/build/stm32f1xx_hal_tim_ex.o
                0x080027a2                HAL_TIMEx_PWMN_Start
 .text.HAL_TIMEx_ConfigBreakDeadTime
                0x080027c6       0x52 /workspaces/qgv/hoverboard-firmware-hack-FOC/build/stm32f1xx_hal_tim_ex.o
                0x080027c6                HAL_TIMEx_ConfigBreakDeadTime
 .text.HAL_TIMEx_MasterConfigSynchronization
                0x08002818       0x52 /workspaces/qgv/hoverboard-firmware-hack-FOC/build/stm32f1xx_hal_tim_ex.o
                0x08002818                HAL_TIMEx_MasterConfigSynchronization
 *fill*         0x0800286a        0x2 
 .text.HAL_ADCEx_MultiModeConfigChannel
                0x0800286c       0x60 /workspaces/qgv/hoverboard-firmware-hack-FOC/build/stm32f1xx_hal_adc_ex.o
                0x0800286c                HAL_ADCEx_MultiModeConfigChannel
 .text.NVIC_SetPriority
                0x080028cc       0x28 /workspaces/qgv/hoverboard-firmware-hack-FOC/build/stm32f1xx_hal_cortex.o
 .text.NVIC_EncodePriority
                0x080028f4       0x3e /workspaces/qgv/hoverboard-firmware-hack-FOC/build/stm32f1xx_hal_cortex.o
 *fill*         0x08002932        0x2 
 .text.HAL_NVIC_SetPriorityGrouping
                0x08002934       0x24 /workspaces/qgv/hoverboard-firmware-hack-FOC/build/stm32f1xx_hal_cortex.o
                0x08002934                HAL_NVIC_SetPriorityGrouping
 .text.HAL_NVIC_SetPriority
                0x08002958       0x20 /workspaces/qgv/hoverboard-firmware-hack-FOC/build/stm32f1xx_hal_cortex.o
                0x08002958                HAL_NVIC_SetPriority
 .text.HAL_NVIC_EnableIRQ
                0x08002978       0x18 /workspaces/qgv/hoverboard-firmware-hack-FOC/build/stm32f1xx_hal_cortex.o
                0x08002978                HAL_NVIC_EnableIRQ
 .text.HAL_SYSTICK_Config
                0x08002990       0x28 /workspaces/qgv/hoverboard-firmware-hack-FOC/build/stm32f1xx_hal_cortex.o
                0x08002990                HAL_SYSTICK_Config
 .text.HAL_SYSTICK_CLKSourceConfig
                0x080029b8       0x20 /workspaces/qgv/hoverboard-firmware-hack-FOC/build/stm32f1xx_hal_cortex.o
                0x080029b8                HAL_SYSTICK_CLKSourceConfig
 .text.HAL_SYSTICK_Callback
                0x080029d8        0x2 /workspaces/qgv/hoverboard-firmware-hack-FOC/build/stm32f1xx_hal_cortex.o
                0x080029d8                HAL_SYSTICK_Callback
 .text.HAL_SYSTICK_IRQHandler
                0x080029da        0x8 /workspaces/qgv/hoverboard-firmware-hack-FOC/build/stm32f1xx_hal_cortex.o
                0x080029da                HAL_SYSTICK_IRQHandler
 *fill*         0x080029e2        0x2 
 .text.FLASH_MassErase
                0x080029e4       0x24 /workspaces/qgv/hoverboard-firmware-hack-FOC/build/stm32f1xx_hal_flash_ex.o
 .text.FLASH_PageErase
                0x08002a08       0x24 /workspaces/qgv/hoverboard-firmware-hack-FOC/build/stm32f1xx_hal_flash_ex.o
                0x08002a08                FLASH_PageErase
 .text.HAL_FLASHEx_Erase
                0x08002a2c       0xa4 /workspaces/qgv/hoverboard-firmware-hack-FOC/build/stm32f1xx_hal_flash_ex.o
                0x08002a2c                HAL_FLASHEx_Erase
 .text.HAL_GPIO_Init
                0x08002ad0      0x238 /workspaces/qgv/hoverboard-firmware-hack-FOC/build/stm32f1xx_hal_gpio.o
                0x08002ad0                HAL_GPIO_Init
 .text.HAL_GPIO_ReadPin
                0x08002d08        0xe /workspaces/qgv/hoverboard-firmware-hack-FOC/build/stm32f1xx_hal_gpio.o
                0x08002d08                HAL_GPIO_ReadPin
 .text.HAL_GPIO_WritePin
                0x08002d16        0xc /workspaces/qgv/hoverboard-firmware-hack-FOC/build/stm32f1xx_hal_gpio.o
                0x08002d16                HAL_GPIO_WritePin
 .text.HAL_GPIO_TogglePin
                0x08002d22        0x8 /workspaces/qgv/hoverboard-firmware-hack-FOC/build/stm32f1xx_hal_gpio.o
                0x08002d22                HAL_GPIO_TogglePin
 *fill*         0x08002d2a        0x2 
 .text.HAL_RCCEx_PeriphCLKConfig
                0x08002d2c      0x118 /workspaces/qgv/hoverboard-firmware-hack-FOC/build/stm32f1xx_hal_rcc_ex.o
                0x08002d2c                HAL_RCCEx_PeriphCLKConfig
 .text.HAL_MspInit
                0x08002e44        0x2 /workspaces/qgv/hoverboard-firmware-hack-FOC/build/stm32f1xx_hal.o
                0x08002e44                HAL_MspInit
 *fill*         0x08002e46        0x2 
 .text.HAL_InitTick
                0x08002e48       0x2c /workspaces/qgv/hoverboard-firmware-hack-FOC/build/stm32f1xx_hal.o
                0x08002e48                HAL_InitTick
 .text.HAL_Init
                0x08002e74       0x24 /workspaces/qgv/hoverboard-firmware-hack-FOC/build/stm32f1xx_hal.o
                0x08002e74                HAL_Init
 .text.HAL_IncTick
                0x08002e98       0x10 /workspaces/qgv/hoverboard-firmware-hack-FOC/build/stm32f1xx_hal.o
                0x08002e98                HAL_IncTick
 .text.HAL_GetTick
                0x08002ea8        0xc /workspaces/qgv/hoverboard-firmware-hack-FOC/build/stm32f1xx_hal.o
                0x08002ea8                HAL_GetTick
 .text.HAL_Delay
                0x08002eb4       0x24 /workspaces/qgv/hoverboard-firmware-hack-FOC/build/stm32f1xx_hal.o
                0x08002eb4                HAL_Delay
 .text.HAL_ADC_MspInit
                0x08002ed8        0x2 /workspaces/qgv/hoverboard-firmware-hack-FOC/build/stm32f1xx_hal_adc.o
                0x08002ed8                HAL_ADC_MspInit
 *fill*         0x08002eda        0x2 
 .text.HAL_ADC_ConfigChannel
                0x08002edc      0x140 /workspaces/qgv/hoverboard-firmware-hack-FOC/build/stm32f1xx_hal_adc.o
                0x08002edc                HAL_ADC_ConfigChannel
 .text.ADC_Enable
                0x0800301c       0x80 /workspaces/qgv/hoverboard-firmware-hack-FOC/build/stm32f1xx_hal_adc.o
                0x0800301c                ADC_Enable
 .text.HAL_ADC_Start
                0x0800309c       0xe8 /workspaces/qgv/hoverboard-firmware-hack-FOC/build/stm32f1xx_hal_adc.o
                0x0800309c                HAL_ADC_Start
 .text.ADC_ConversionStop_Disable
                0x08003184       0x4c /workspaces/qgv/hoverboard-firmware-hack-FOC/build/stm32f1xx_hal_adc.o
                0x08003184                ADC_ConversionStop_Disable
 .text.HAL_ADC_Init
                0x080031d0      0x124 /workspaces/qgv/hoverboard-firmware-hack-FOC/build/stm32f1xx_hal_adc.o
                0x080031d0                HAL_ADC_Init
 .text.UART_EndTxTransfer
                0x080032f4       0x12 /workspaces/qgv/hoverboard-firmware-hack-FOC/build/stm32f1xx_hal_uart.o
 .text.UART_EndRxTransfer
                0x08003306       0x1c /workspaces/qgv/hoverboard-firmware-hack-FOC/build/stm32f1xx_hal_uart.o
 .text.UART_Transmit_IT
                0x08003322       0x66 /workspaces/qgv/hoverboard-firmware-hack-FOC/build/stm32f1xx_hal_uart.o
 .text.UART_SetConfig
                0x08003388      0x1a4 /workspaces/qgv/hoverboard-firmware-hack-FOC/build/stm32f1xx_hal_uart.o
 .text.HAL_UART_Init
                0x0800352c       0x5e /workspaces/qgv/hoverboard-firmware-hack-FOC/build/stm32f1xx_hal_uart.o
                0x0800352c                HAL_UART_Init
 *fill*         0x0800358a        0x2 
 .text.HAL_UART_Transmit_DMA
                0x0800358c       0x8c /workspaces/qgv/hoverboard-firmware-hack-FOC/build/stm32f1xx_hal_uart.o
                0x0800358c                HAL_UART_Transmit_DMA
 .text.HAL_UART_Receive_DMA
                0x08003618       0xa8 /workspaces/qgv/hoverboard-firmware-hack-FOC/build/stm32f1xx_hal_uart.o
                0x08003618                HAL_UART_Receive_DMA
 .text.HAL_UART_TxCpltCallback
                0x080036c0        0x2 /workspaces/qgv/hoverboard-firmware-hack-FOC/build/stm32f1xx_hal_uart.o
                0x080036c0                HAL_UART_TxCpltCallback
 .text.UART_DMATransmitCplt
                0x080036c2       0x30 /workspaces/qgv/hoverboard-firmware-hack-FOC/build/stm32f1xx_hal_uart.o
 .text.UART_EndTransmit_IT
                0x080036f2       0x1a /workspaces/qgv/hoverboard-firmware-hack-FOC/build/stm32f1xx_hal_uart.o
 .text.HAL_UART_TxHalfCpltCallback
                0x0800370c        0x2 /workspaces/qgv/hoverboard-firmware-hack-FOC/build/stm32f1xx_hal_uart.o
                0x0800370c                HAL_UART_TxHalfCpltCallback
 .text.UART_DMATxHalfCplt
                0x0800370e        0xa /workspaces/qgv/hoverboard-firmware-hack-FOC/build/stm32f1xx_hal_uart.o
 .text.HAL_UART_RxCpltCallback
                0x08003718        0x2 /workspaces/qgv/hoverboard-firmware-hack-FOC/build/stm32f1xx_hal_uart.o
                0x08003718                HAL_UART_RxCpltCallback
 .text.UART_DMAReceiveCplt
                0x0800371a       0x3e /workspaces/qgv/hoverboard-firmware-hack-FOC/build/stm32f1xx_hal_uart.o
 .text.UART_Receive_IT
                0x08003758       0x9e /workspaces/qgv/hoverboard-firmware-hack-FOC/build/stm32f1xx_hal_uart.o
 .text.HAL_UART_RxHalfCpltCallback
                0x080037f6        0x2 /workspaces/qgv/hoverboard-firmware-hack-FOC/build/stm32f1xx_hal_uart.o
                0x080037f6                HAL_UART_RxHalfCpltCallback
 .text.UART_DMARxHalfCplt
                0x080037f8        0xa /workspaces/qgv/hoverboard-firmware-hack-FOC/build/stm32f1xx_hal_uart.o
 .text.HAL_UART_ErrorCallback
                0x08003802        0x2 /workspaces/qgv/hoverboard-firmware-hack-FOC/build/stm32f1xx_hal_uart.o
                0x08003802                HAL_UART_ErrorCallback
 .text.UART_DMAError
                0x08003804       0x58 /workspaces/qgv/hoverboard-firmware-hack-FOC/build/stm32f1xx_hal_uart.o
 .text.HAL_UART_IRQHandler
                0x0800385c      0x11c /workspaces/qgv/hoverboard-firmware-hack-FOC/build/stm32f1xx_hal_uart.o
                0x0800385c                HAL_UART_IRQHandler
 .text.UART_DMAAbortOnError
                0x08003978       0x10 /workspaces/qgv/hoverboard-firmware-hack-FOC/build/stm32f1xx_hal_uart.o
 .text.DMA_SetConfig
                0x08003988       0x2c /workspaces/qgv/hoverboard-firmware-hack-FOC/build/stm32f1xx_hal_dma.o
 .text.HAL_DMA_Init
                0x080039b4       0x9c /workspaces/qgv/hoverboard-firmware-hack-FOC/build/stm32f1xx_hal_dma.o
                0x080039b4                HAL_DMA_Init
 .text.HAL_DMA_Start_IT
                0x08003a50       0x74 /workspaces/qgv/hoverboard-firmware-hack-FOC/build/stm32f1xx_hal_dma.o
                0x08003a50                HAL_DMA_Start_IT
 .text.HAL_DMA_Abort_IT
                0x08003ac4      0x168 /workspaces/qgv/hoverboard-firmware-hack-FOC/build/stm32f1xx_hal_dma.o
                0x08003ac4                HAL_DMA_Abort_IT
 .text.HAL_DMA_IRQHandler
                0x08003c2c      0x2ec /workspaces/qgv/hoverboard-firmware-hack-FOC/build/stm32f1xx_hal_dma.o
                0x08003c2c                HAL_DMA_IRQHandler
 .text.SystemInit
                0x08003f18       0x4c /workspaces/qgv/hoverboard-firmware-hack-FOC/build/system_stm32f1xx.o
                0x08003f18                SystemInit
 .text.UART3_Init
                0x08003f64       0x6c /workspaces/qgv/hoverboard-firmware-hack-FOC/build/setup.o
                0x08003f64                UART3_Init
 .text.HAL_UART_MspInit
                0x08003fd0      0x1c8 /workspaces/qgv/hoverboard-firmware-hack-FOC/build/setup.o
                0x08003fd0                HAL_UART_MspInit
 .text.MX_GPIO_Init
                0x08004198      0x22c /workspaces/qgv/hoverboard-firmware-hack-FOC/build/setup.o
                0x08004198                MX_GPIO_Init
 .text.MX_TIM_Init
                0x080043c4      0x208 /workspaces/qgv/hoverboard-firmware-hack-FOC/build/setup.o
                0x080043c4                MX_TIM_Init
 .text.MX_ADC1_Init
                0x080045cc      0x130 /workspaces/qgv/hoverboard-firmware-hack-FOC/build/setup.o
                0x080045cc                MX_ADC1_Init
 .text.MX_ADC2_Init
                0x080046fc       0xb0 /workspaces/qgv/hoverboard-firmware-hack-FOC/build/setup.o
                0x080046fc                MX_ADC2_Init
 .text.BLDC_Init
                0x080047ac       0xac /workspaces/qgv/hoverboard-firmware-hack-FOC/build/util.o
                0x080047ac                BLDC_Init
 .text.Input_Lim_Init
                0x08004858       0x44 /workspaces/qgv/hoverboard-firmware-hack-FOC/build/util.o
                0x08004858                Input_Lim_Init
 .text.UART_DisableRxErrors
                0x0800489c       0x16 /workspaces/qgv/hoverboard-firmware-hack-FOC/build/util.o
                0x0800489c                UART_DisableRxErrors
 *fill*         0x080048b2        0x2 
 .text.poweronMelody
                0x080048b4       0x2c /workspaces/qgv/hoverboard-firmware-hack-FOC/build/util.o
                0x080048b4                poweronMelody
 .text.beepCount
                0x080048e0       0x1c /workspaces/qgv/hoverboard-firmware-hack-FOC/build/util.o
                0x080048e0                beepCount
 .text.beepLong
                0x080048fc       0x20 /workspaces/qgv/hoverboard-firmware-hack-FOC/build/util.o
                0x080048fc                beepLong
 .text.beepShort
                0x0800491c       0x20 /workspaces/qgv/hoverboard-firmware-hack-FOC/build/util.o
                0x0800491c                beepShort
 .text.beepShortMany
                0x0800493c       0x38 /workspaces/qgv/hoverboard-firmware-hack-FOC/build/util.o
                0x0800493c                beepShortMany
 .text.calcAvgSpeed
                0x08004974       0x40 /workspaces/qgv/hoverboard-firmware-hack-FOC/build/util.o
                0x08004974                calcAvgSpeed
 .text.cruiseControl
                0x080049b4        0x2 /workspaces/qgv/hoverboard-firmware-hack-FOC/build/util.o
                0x080049b4                cruiseControl
 *fill*         0x080049b6        0x2 
 .text.checkInputType
                0x080049b8       0x70 /workspaces/qgv/hoverboard-firmware-hack-FOC/build/util.o
                0x080049b8                checkInputType
 .text.Input_Init
                0x08004a28      0x240 /workspaces/qgv/hoverboard-firmware-hack-FOC/build/util.o
                0x08004a28                Input_Init
 .text.calcInputCmd
                0x08004c68       0xaa /workspaces/qgv/hoverboard-firmware-hack-FOC/build/util.o
                0x08004c68                calcInputCmd
 *fill*         0x08004d12        0x2 
 .text.readInputRaw
                0x08004d14       0x60 /workspaces/qgv/hoverboard-firmware-hack-FOC/build/util.o
                0x08004d14                readInputRaw
 .text.handleTimeout
                0x08004d74      0x144 /workspaces/qgv/hoverboard-firmware-hack-FOC/build/util.o
                0x08004d74                handleTimeout
 .text.readCommand
                0x08004eb8       0x98 /workspaces/qgv/hoverboard-firmware-hack-FOC/build/util.o
                0x08004eb8                readCommand
 .text.usart_process_sideboard
                0x08004f50       0x7c /workspaces/qgv/hoverboard-firmware-hack-FOC/build/util.o
                0x08004f50                usart_process_sideboard
 .text.usart3_rx_check
                0x08004fcc       0x9c /workspaces/qgv/hoverboard-firmware-hack-FOC/build/util.o
                0x08004fcc                usart3_rx_check
 .text.sideboardLeds
                0x08005068      0x19c /workspaces/qgv/hoverboard-firmware-hack-FOC/build/util.o
                0x08005068                sideboardLeds
 .text.sideboardSensors
                0x08005204      0x1d0 /workspaces/qgv/hoverboard-firmware-hack-FOC/build/util.o
                0x08005204                sideboardSensors
 .text.saveConfig
                0x080053d4      0x100 /workspaces/qgv/hoverboard-firmware-hack-FOC/build/util.o
                0x080053d4                saveConfig
 .text.poweroff
                0x080054d4       0x48 /workspaces/qgv/hoverboard-firmware-hack-FOC/build/util.o
                0x080054d4                poweroff
 .text.filtLowPass32
                0x0800551c       0x46 /workspaces/qgv/hoverboard-firmware-hack-FOC/build/util.o
                0x0800551c                filtLowPass32
 *fill*         0x08005562        0x2 
 .text.adcCalibLim
                0x08005564      0x180 /workspaces/qgv/hoverboard-firmware-hack-FOC/build/util.o
                0x08005564                adcCalibLim
 .text.updateCurSpdLim
                0x080056e4      0x170 /workspaces/qgv/hoverboard-firmware-hack-FOC/build/util.o
                0x080056e4                updateCurSpdLim
 .text.poweroffPressCheck
                0x08005854       0xa0 /workspaces/qgv/hoverboard-firmware-hack-FOC/build/util.o
                0x08005854                poweroffPressCheck
 .text.rateLimiter16
                0x080058f4       0x1e /workspaces/qgv/hoverboard-firmware-hack-FOC/build/util.o
                0x080058f4                rateLimiter16
 *fill*         0x08005912        0x2 
 .text.mixerFcn
                0x08005914       0x7c /workspaces/qgv/hoverboard-firmware-hack-FOC/build/util.o
                0x08005914                mixerFcn
 .text.multipleTapDet
                0x08005990       0x76 /workspaces/qgv/hoverboard-firmware-hack-FOC/build/util.o
                0x08005990                multipleTapDet
 *fill*         0x08005a06        0x2 
 .text.SystemClock_Config
                0x08005a08       0x74 /workspaces/qgv/hoverboard-firmware-hack-FOC/build/main.o
                0x08005a08                SystemClock_Config
 .text.main     0x08005a7c      0x7c8 /workspaces/qgv/hoverboard-firmware-hack-FOC/build/main.o
                0x08005a7c                main
 .text.DMA1_Channel1_IRQHandler
                0x08006244      0x504 /workspaces/qgv/hoverboard-firmware-hack-FOC/build/bldc.o
                0x08006244                DMA1_Channel1_IRQHandler
 .text.EE_VerifyPageFullyErased
                0x08006748       0x24 /workspaces/qgv/hoverboard-firmware-hack-FOC/build/eeprom.o
 .text.EE_FindValidPage
                0x0800676c       0x50 /workspaces/qgv/hoverboard-firmware-hack-FOC/build/eeprom.o
 .text.EE_VerifyPageFullWriteVariable
                0x080067bc       0x54 /workspaces/qgv/hoverboard-firmware-hack-FOC/build/eeprom.o
 .text.EE_Format
                0x08006810       0x60 /workspaces/qgv/hoverboard-firmware-hack-FOC/build/eeprom.o
 .text.EE_ReadVariable
                0x08006870       0x48 /workspaces/qgv/hoverboard-firmware-hack-FOC/build/eeprom.o
                0x08006870                EE_ReadVariable
 .text.EE_Init  0x080068b8      0x250 /workspaces/qgv/hoverboard-firmware-hack-FOC/build/eeprom.o
                0x080068b8                EE_Init
 .text.EE_PageTransfer
                0x08006b08       0xc4 /workspaces/qgv/hoverboard-firmware-hack-FOC/build/eeprom.o
 .text.EE_WriteVariable
                0x08006bcc       0x1a /workspaces/qgv/hoverboard-firmware-hack-FOC/build/eeprom.o
                0x08006bcc                EE_WriteVariable
 .text.NMI_Handler
                0x08006be6        0x2 /workspaces/qgv/hoverboard-firmware-hack-FOC/build/stm32f1xx_it.o
                0x08006be6                NMI_Handler
 .text.HardFault_Handler
                0x08006be8        0x2 /workspaces/qgv/hoverboard-firmware-hack-FOC/build/stm32f1xx_it.o
                0x08006be8                HardFault_Handler
 .text.MemManage_Handler
                0x08006bea        0x2 /workspaces/qgv/hoverboard-firmware-hack-FOC/build/stm32f1xx_it.o
                0x08006bea                MemManage_Handler
 .text.BusFault_Handler
                0x08006bec        0x2 /workspaces/qgv/hoverboard-firmware-hack-FOC/build/stm32f1xx_it.o
                0x08006bec                BusFault_Handler
 .text.UsageFault_Handler
                0x08006bee        0x2 /workspaces/qgv/hoverboard-firmware-hack-FOC/build/stm32f1xx_it.o
                0x08006bee                UsageFault_Handler
 .text.SVC_Handler
                0x08006bf0        0x2 /workspaces/qgv/hoverboard-firmware-hack-FOC/build/stm32f1xx_it.o
                0x08006bf0                SVC_Handler
 .text.DebugMon_Handler
                0x08006bf2        0x2 /workspaces/qgv/hoverboard-firmware-hack-FOC/build/stm32f1xx_it.o
                0x08006bf2                DebugMon_Handler
 .text.PendSV_Handler
                0x08006bf4        0x2 /workspaces/qgv/hoverboard-firmware-hack-FOC/build/stm32f1xx_it.o
                0x08006bf4                PendSV_Handler
 .text.SysTick_Handler
                0x08006bf6        0xc /workspaces/qgv/hoverboard-firmware-hack-FOC/build/stm32f1xx_it.o
                0x08006bf6                SysTick_Handler
 *fill*         0x08006c02        0x2 
 .text.DMA1_Channel2_IRQHandler
                0x08006c04       0x10 /workspaces/qgv/hoverboard-firmware-hack-FOC/build/stm32f1xx_it.o
                0x08006c04                DMA1_Channel2_IRQHandler
 .text.DMA1_Channel3_IRQHandler
                0x08006c14       0x10 /workspaces/qgv/hoverboard-firmware-hack-FOC/build/stm32f1xx_it.o
                0x08006c14                DMA1_Channel3_IRQHandler
 .text.USART3_IRQHandler
                0x08006c24       0x34 /workspaces/qgv/hoverboard-firmware-hack-FOC/build/stm32f1xx_it.o
                0x08006c24                USART3_IRQHandler
 .text.plook_u8s16_evencka
                0x08006c58       0x1c /workspaces/qgv/hoverboard-firmware-hack-FOC/build/BLDC_controller.o
                0x08006c58                plook_u8s16_evencka
 .text.plook_u8u16_evencka
                0x08006c74       0x1c /workspaces/qgv/hoverboard-firmware-hack-FOC/build/BLDC_controller.o
                0x08006c74                plook_u8u16_evencka
 .text.div_nde_s32_floor
                0x08006c90       0x22 /workspaces/qgv/hoverboard-firmware-hack-FOC/build/BLDC_controller.o
                0x08006c90                div_nde_s32_floor
 .text.Counter_Init
                0x08006cb2        0x4 /workspaces/qgv/hoverboard-firmware-hack-FOC/build/BLDC_controller.o
                0x08006cb2                Counter_Init
 .text.Counter  0x08006cb6       0x1a /workspaces/qgv/hoverboard-firmware-hack-FOC/build/BLDC_controller.o
                0x08006cb6                Counter
 .text.Low_Pass_Filter_Reset
                0x08006cd0        0x8 /workspaces/qgv/hoverboard-firmware-hack-FOC/build/BLDC_controller.o
                0x08006cd0                Low_Pass_Filter_Reset
 .text.Low_Pass_Filter
                0x08006cd8       0x5c /workspaces/qgv/hoverboard-firmware-hack-FOC/build/BLDC_controller.o
                0x08006cd8                Low_Pass_Filter
 .text.Counter_b_Init
                0x08006d34        0x4 /workspaces/qgv/hoverboard-firmware-hack-FOC/build/BLDC_controller.o
                0x08006d34                Counter_b_Init
 .text.Counter_n
                0x08006d38       0x20 /workspaces/qgv/hoverboard-firmware-hack-FOC/build/BLDC_controller.o
                0x08006d38                Counter_n
 .text.either_edge
                0x08006d58        0xe /workspaces/qgv/hoverboard-firmware-hack-FOC/build/BLDC_controller.o
                0x08006d58                either_edge
 .text.Debounce_Filter_Init
                0x08006d66       0x16 /workspaces/qgv/hoverboard-firmware-hack-FOC/build/BLDC_controller.o
                0x08006d66                Debounce_Filter_Init
 .text.Debounce_Filter
                0x08006d7c       0x8c /workspaces/qgv/hoverboard-firmware-hack-FOC/build/BLDC_controller.o
                0x08006d7c                Debounce_Filter
 .text.I_backCalc_fixdt_Init
                0x08006e08        0x4 /workspaces/qgv/hoverboard-firmware-hack-FOC/build/BLDC_controller.o
                0x08006e08                I_backCalc_fixdt_Init
 .text.I_backCalc_fixdt_Reset
                0x08006e0c        0x8 /workspaces/qgv/hoverboard-firmware-hack-FOC/build/BLDC_controller.o
                0x08006e0c                I_backCalc_fixdt_Reset
 .text.I_backCalc_fixdt
                0x08006e14       0x72 /workspaces/qgv/hoverboard-firmware-hack-FOC/build/BLDC_controller.o
                0x08006e14                I_backCalc_fixdt
 .text.PI_clamp_fixdt_Init
                0x08006e86        0x6 /workspaces/qgv/hoverboard-firmware-hack-FOC/build/BLDC_controller.o
                0x08006e86                PI_clamp_fixdt_Init
 .text.PI_clamp_fixdt_Reset
                0x08006e8c        0xa /workspaces/qgv/hoverboard-firmware-hack-FOC/build/BLDC_controller.o
                0x08006e8c                PI_clamp_fixdt_Reset
 *fill*         0x08006e96        0x2 
 .text.PI_clamp_fixdt
                0x08006e98       0xf4 /workspaces/qgv/hoverboard-firmware-hack-FOC/build/BLDC_controller.o
                0x08006e98                PI_clamp_fixdt
 .text.PI_clamp_fixdt_d_Init
                0x08006f8c        0x6 /workspaces/qgv/hoverboard-firmware-hack-FOC/build/BLDC_controller.o
                0x08006f8c                PI_clamp_fixdt_d_Init
 .text.PI_clamp_fixdt_b_Reset
                0x08006f92        0xa /workspaces/qgv/hoverboard-firmware-hack-FOC/build/BLDC_controller.o
                0x08006f92                PI_clamp_fixdt_b_Reset
 .text.PI_clamp_fixdt_l
                0x08006f9c       0xf8 /workspaces/qgv/hoverboard-firmware-hack-FOC/build/BLDC_controller.o
                0x08006f9c                PI_clamp_fixdt_l
 .text.PI_clamp_fixdt_f_Init
                0x08007094        0x6 /workspaces/qgv/hoverboard-firmware-hack-FOC/build/BLDC_controller.o
                0x08007094                PI_clamp_fixdt_f_Init
 .text.PI_clamp_fixdt_g_Reset
                0x0800709a        0xa /workspaces/qgv/hoverboard-firmware-hack-FOC/build/BLDC_controller.o
                0x0800709a                PI_clamp_fixdt_g_Reset
 .text.PI_clamp_fixdt_k
                0x080070a4      0x108 /workspaces/qgv/hoverboard-firmware-hack-FOC/build/BLDC_controller.o
                0x080070a4                PI_clamp_fixdt_k
 .text.BLDC_controller_step
                0x080071ac     0x11ac /workspaces/qgv/hoverboard-firmware-hack-FOC/build/BLDC_controller.o
                0x080071ac                BLDC_controller_step
 .text.BLDC_controller_initialize
                0x08008358       0xc0 /workspaces/qgv/hoverboard-firmware-hack-FOC/build/BLDC_controller.o
                0x08008358                BLDC_controller_initialize
 .text.Reset_Handler
                0x08008418       0x48 /workspaces/qgv/hoverboard-firmware-hack-FOC/build/startup_stm32f103xe.o
                0x08008418                Reset_Handler
 .text.Default_Handler
                0x08008460        0x2 /workspaces/qgv/hoverboard-firmware-hack-FOC/build/startup_stm32f103xe.o
                0x08008460                RTC_Alarm_IRQHandler
                0x08008460                EXTI2_IRQHandler
                0x08008460                TIM8_TRG_COM_IRQHandler
                0x08008460                TIM8_CC_IRQHandler
                0x08008460                TIM1_CC_IRQHandler
                0x08008460                TIM6_IRQHandler
                0x08008460                PVD_IRQHandler
                0x08008460                SDIO_IRQHandler
                0x08008460                EXTI3_IRQHandler
                0x08008460                EXTI0_IRQHandler
                0x08008460                I2C2_EV_IRQHandler
                0x08008460                ADC1_2_IRQHandler
                0x08008460                SPI1_IRQHandler
                0x08008460                TAMPER_IRQHandler
                0x08008460                TIM8_UP_IRQHandler
                0x08008460                DMA2_Channel2_IRQHandler
                0x08008460                DMA1_Channel4_IRQHandler
                0x08008460                RTC_IRQHandler
                0x08008460                DMA1_Channel7_IRQHandler
                0x08008460                CAN1_RX1_IRQHandler
                0x08008460                UART5_IRQHandler
                0x08008460                ADC3_IRQHandler
                0x08008460                TIM4_IRQHandler
                0x08008460                DMA2_Channel1_IRQHandler
                0x08008460                I2C1_EV_IRQHandler
                0x08008460                DMA1_Channel6_IRQHandler
                0x08008460                UART4_IRQHandler
                0x08008460                TIM3_IRQHandler
                0x08008460                RCC_IRQHandler
                0x08008460                TIM1_TRG_COM_IRQHandler
                0x08008460                Default_Handler
                0x08008460                EXTI15_10_IRQHandler
                0x08008460                TIM7_IRQHandler
                0x08008460                TIM5_IRQHandler
                0x08008460                EXTI9_5_IRQHandler
                0x08008460                SPI2_IRQHandler
                0x08008460                DMA1_Channel5_IRQHandler
                0x08008460                EXTI4_IRQHandler
                0x08008460                USB_LP_CAN1_RX0_IRQHandler
                0x08008460                USB_HP_CAN1_TX_IRQHandler
                0x08008460                FSMC_IRQHandler
                0x08008460                TIM1_UP_IRQHandler
                0x08008460                WWDG_IRQHandler
                0x08008460                TIM2_IRQHandler
                0x08008460                TIM1_BRK_IRQHandler
                0x08008460                EXTI1_IRQHandler
                0x08008460                DMA2_Channel4_5_IRQHandler
                0x08008460                USART2_IRQHandler
                0x08008460                I2C2_ER_IRQHandler
                0x08008460                TIM8_BRK_IRQHandler
                0x08008460                CAN1_SCE_IRQHandler
                0x08008460                FLASH_IRQHandler
                0x08008460                USART1_IRQHandler
                0x08008460                SPI3_IRQHandler
                0x08008460                I2C1_ER_IRQHandler
                0x08008460                USBWakeUp_IRQHandler
                0x08008460                DMA2_Channel3_IRQHandler
 *(.glue_7)
 .glue_7        0x08008462        0x0 linker stubs
 *(.glue_7t)
 .glue_7t       0x08008462        0x0 linker stubs
 *(.eh_frame)
 *fill*         0x08008462        0x2 
 .eh_frame      0x08008464        0x0 /usr/lib/gcc/arm-none-eabi/13.2.1/thumb/v7-m/nofp/crtbegin.o
 *(.init)
 .init          0x08008464        0x4 /usr/lib/gcc/arm-none-eabi/13.2.1/thumb/v7-m/nofp/crti.o
                0x08008464                _init
 .init          0x08008468        0x8 /usr/lib/gcc/arm-none-eabi/13.2.1/thumb/v7-m/nofp/crtn.o
 *(.fini)
 .fini          0x08008470        0x4 /usr/lib/gcc/arm-none-eabi/13.2.1/thumb/v7-m/nofp/crti.o
                0x08008470                _fini
 .fini          0x08008474        0x8 /usr/lib/gcc/arm-none-eabi/13.2.1/thumb/v7-m/nofp/crtn.o
                0x0800847c                        . = ALIGN (0x4)
                0x0800847c                        _etext = .

.vfp11_veneer   0x0800847c        0x0
 .vfp11_veneer  0x0800847c        0x0 linker stubs

.v4_bx          0x0800847c        0x0
 .v4_bx         0x0800847c        0x0 linker stubs

.iplt           0x0800847c        0x0
 .iplt          0x0800847c        0x0 /usr/lib/gcc/arm-none-eabi/13.2.1/thumb/v7-m/nofp/crtbegin.o

.rodata         0x0800847c      0x890
                0x0800847c                        . = ALIGN (0x4)
 *(.rodata)
 *(.rodata*)
 .rodata.HAL_RCC_GetSysClockFreq.str1.4
                0x0800847c       0xdd /workspaces/qgv/hoverboard-firmware-hack-FOC/build/stm32f1xx_hal_rcc.o
                                 0x11 (size before relaxing)
 *fill*         0x08008559        0x3 
 .rodata.APBPrescTable
                0x0800855c        0x8 /workspaces/qgv/hoverboard-firmware-hack-FOC/build/system_stm32f1xx.o
                0x0800855c                APBPrescTable
 .rodata.AHBPrescTable
                0x08008564       0x10 /workspaces/qgv/hoverboard-firmware-hack-FOC/build/system_stm32f1xx.o
                0x08008564                AHBPrescTable
 .rodata.Input_Init.str1.4
                0x08008574       0x59 /workspaces/qgv/hoverboard-firmware-hack-FOC/build/util.o
 .rodata.rtM_Right
                0x08008574        0x4 /workspaces/qgv/hoverboard-firmware-hack-FOC/build/util.o
                0x08008574                rtM_Right
 .rodata.rtM_Left
                0x08008578        0x4 /workspaces/qgv/hoverboard-firmware-hack-FOC/build/util.o
                0x08008578                rtM_Left
 .rodata.main.str1.4
                0x0800857c       0x34 /workspaces/qgv/hoverboard-firmware-hack-FOC/build/main.o
 .rodata.rtConstP
                0x0800857c      0x790 /workspaces/qgv/hoverboard-firmware-hack-FOC/build/BLDC_controller_data.o
                0x0800857c                rtConstP
 .rodata.str1.4
                0x08008d0c       0x13 /usr/lib/gcc/arm-none-eabi/13.2.1/../../../arm-none-eabi/lib/thumb/v7-m/nofp/libc_nano.a(libc_a-nano-vfprintf.o)
 .rodata.str1.4
                0x08008d0c       0x25 /usr/lib/gcc/arm-none-eabi/13.2.1/../../../arm-none-eabi/lib/thumb/v7-m/nofp/libc_nano.a(libc_a-nano-vfprintf_i.o)
                0x08008d34                        . = ALIGN (0x4)

.ARM.extab
 *(.ARM.extab* .gnu.linkonce.armextab.*)

.ARM            0x08008d0c        0x8
                0x08008d0c                        __exidx_start = .
 *(.ARM.exidx*)
 .ARM.exidx     0x08008d0c        0x8 /usr/lib/gcc/arm-none-eabi/13.2.1/../../../arm-none-eabi/lib/thumb/v7-m/nofp/libc_nano.a(libc_a-memcpy.o)
                0x08008d14                        __exidx_end = .

.rel.dyn        0x08008d14        0x0
 .rel.iplt      0x08008d14        0x0 /usr/lib/gcc/arm-none-eabi/13.2.1/thumb/v7-m/nofp/crtbegin.o

.preinit_array  0x08008d14        0x0
                0x08008d14                        PROVIDE (__preinit_array_start = .)
 *(.preinit_array*)
                0x08008d14                        PROVIDE (__preinit_array_end = .)

.init_array     0x08008d14        0x4
                0x08008d14                        PROVIDE (__init_array_start = .)
 *(SORT_BY_NAME(.init_array.*))
 *(.init_array*)
 .init_array    0x08008d14        0x4 /usr/lib/gcc/arm-none-eabi/13.2.1/thumb/v7-m/nofp/crtbegin.o
                0x08008d18                        PROVIDE (__init_array_end = .)

.fini_array     0x08008d18        0x4
                0x08008d18                        PROVIDE (__fini_array_start = .)
 *(SORT_BY_NAME(.fini_array.*))
 *(.fini_array*)
 .fini_array    0x08008d18        0x4 /usr/lib/gcc/arm-none-eabi/13.2.1/thumb/v7-m/nofp/crtbegin.o
                0x08008d1c                        PROVIDE (__fini_array_end = .)
                0x08008d1c                        _sidata = LOADADDR (.data)

.data           0x20000000      0x1e0 load address 0x08008d1c
                0x20000000                        . = ALIGN (0x4)
                0x20000000                        _sdata = .
 *(.data)
 .data          0x20000000       0x50 /usr/lib/gcc/arm-none-eabi/13.2.1/../../../arm-none-eabi/lib/thumb/v7-m/nofp/libc_nano.a(libc_a-impure.o)
                0x20000000                _impure_ptr
                0x20000004                _impure_data
 .data          0x20000050        0xc /usr/lib/gcc/arm-none-eabi/13.2.1/../../../arm-none-eabi/lib/thumb/v7-m/nofp/libc_nano.a(libc_a-findfp.o)
                0x20000050                __sglue
 *(.data*)
 .data.SystemCoreClock
                0x2000005c        0x4 /workspaces/qgv/hoverboard-firmware-hack-FOC/build/system_stm32f1xx.o
                0x2000005c                SystemCoreClock
 .data.sensor2_index.1
                0x20000060        0x1 /workspaces/qgv/hoverboard-firmware-hack-FOC/build/util.o
 *fill*         0x20000061        0x1 
 .data.timeoutCntSerial_R
                0x20000062        0x2 /workspaces/qgv/hoverboard-firmware-hack-FOC/build/util.o
 .data.timeoutCntADC
                0x20000064        0x2 /workspaces/qgv/hoverboard-firmware-hack-FOC/build/util.o
 *fill*         0x20000066        0x2 
 .data.VirtAddVarTab
                0x20000068       0x26 /workspaces/qgv/hoverboard-firmware-hack-FOC/build/util.o
                0x20000068                VirtAddVarTab
 .data.ctrlModReq
                0x2000008e        0x1 /workspaces/qgv/hoverboard-firmware-hack-FOC/build/util.o
                0x2000008e                ctrlModReq
 .data.ctrlModReqRaw
                0x2000008f        0x1 /workspaces/qgv/hoverboard-firmware-hack-FOC/build/util.o
                0x2000008f                ctrlModReqRaw
 .data.input2   0x20000090       0x1c /workspaces/qgv/hoverboard-firmware-hack-FOC/build/util.o
                0x20000090                input2
 .data.input1   0x200000ac       0x1c /workspaces/qgv/hoverboard-firmware-hack-FOC/build/util.o
                0x200000ac                input1
 .data.rate     0x200000c8        0x2 /workspaces/qgv/hoverboard-firmware-hack-FOC/build/main.o
 *fill*         0x200000ca        0x2 
 .data.batVoltageFixdt
                0x200000cc        0x4 /workspaces/qgv/hoverboard-firmware-hack-FOC/build/bldc.o
 .data.batVoltage
                0x200000d0        0x2 /workspaces/qgv/hoverboard-firmware-hack-FOC/build/bldc.o
                0x200000d0                batVoltage
 .data.offsetdcr
                0x200000d2        0x2 /workspaces/qgv/hoverboard-firmware-hack-FOC/build/bldc.o
 .data.offsetdcl
                0x200000d4        0x2 /workspaces/qgv/hoverboard-firmware-hack-FOC/build/bldc.o
 .data.offsetrrC
                0x200000d6        0x2 /workspaces/qgv/hoverboard-firmware-hack-FOC/build/bldc.o
 .data.offsetrrB
                0x200000d8        0x2 /workspaces/qgv/hoverboard-firmware-hack-FOC/build/bldc.o
 .data.offsetrlB
                0x200000da        0x2 /workspaces/qgv/hoverboard-firmware-hack-FOC/build/bldc.o
 .data.offsetrlA
                0x200000dc        0x2 /workspaces/qgv/hoverboard-firmware-hack-FOC/build/bldc.o
 *fill*         0x200000de        0x2 
 .data.rtP_Left
                0x200000e0      0x100 /workspaces/qgv/hoverboard-firmware-hack-FOC/build/BLDC_controller_data.o
                0x200000e0                rtP_Left
                0x200001e0                        . = ALIGN (0x4)
                0x200001e0                        _edata = .

.tm_clone_table
                0x200001e0        0x0 load address 0x08008efc
 .tm_clone_table
                0x200001e0        0x0 /usr/lib/gcc/arm-none-eabi/13.2.1/thumb/v7-m/nofp/crtbegin.o
 .tm_clone_table
                0x200001e0        0x0 /usr/lib/gcc/arm-none-eabi/13.2.1/thumb/v7-m/nofp/crtend.o

.igot.plt       0x200001e0        0x0 load address 0x08008efc
 .igot.plt      0x200001e0        0x0 /usr/lib/gcc/arm-none-eabi/13.2.1/thumb/v7-m/nofp/crtbegin.o
                0x200001e0                        . = ALIGN (0x4)

.bss            0x200001e0      0x778 load address 0x08008efc
                0x200001e0                        _sbss = .
                0x200001e0                        __bss_start__ = _sbss
 *(.bss)
 .bss           0x200001e0       0x1c /usr/lib/gcc/arm-none-eabi/13.2.1/thumb/v7-m/nofp/crtbegin.o
 .bss           0x200001fc      0x13c /usr/lib/gcc/arm-none-eabi/13.2.1/../../../arm-none-eabi/lib/thumb/v7-m/nofp/libc_nano.a(libc_a-findfp.o)
                0x200001fc                __sf
                0x20000334                __stdio_exit_handler
 .bss           0x20000338        0x8 /usr/lib/gcc/arm-none-eabi/13.2.1/../../../arm-none-eabi/lib/thumb/v7-m/nofp/libc_nano.a(libc_a-mallocr.o)
                0x20000338                __malloc_sbrk_start
                0x2000033c                __malloc_free_list
 .bss           0x20000340        0x4 /usr/lib/gcc/arm-none-eabi/13.2.1/../../../arm-none-eabi/lib/thumb/v7-m/nofp/libc_nano.a(libc_a-reent.o)
                0x20000340                errno
 .bss           0x20000344        0x4 /usr/lib/gcc/arm-none-eabi/13.2.1/../../../arm-none-eabi/lib/thumb/v7-m/nofp/libnosys.a(sbrk.o)
 *(.bss*)
 .bss.pFlash    0x20000348       0x20 /workspaces/qgv/hoverboard-firmware-hack-FOC/build/stm32f1xx_hal_flash.o
                0x20000348                pFlash
 .bss.uwTick    0x20000368        0x4 /workspaces/qgv/hoverboard-firmware-hack-FOC/build/stm32f1xx_hal.o
                0x20000368                uwTick
 .bss.adc_buffer
                0x2000036c       0x14 /workspaces/qgv/hoverboard-firmware-hack-FOC/build/setup.o
                0x2000036c                adc_buffer
 .bss.hdma_usart3_tx
                0x20000380       0x44 /workspaces/qgv/hoverboard-firmware-hack-FOC/build/setup.o
                0x20000380                hdma_usart3_tx
 .bss.hdma_usart3_rx
                0x200003c4       0x44 /workspaces/qgv/hoverboard-firmware-hack-FOC/build/setup.o
                0x200003c4                hdma_usart3_rx
 .bss.hdma_usart2_tx
                0x20000408       0x44 /workspaces/qgv/hoverboard-firmware-hack-FOC/build/setup.o
                0x20000408                hdma_usart2_tx
 .bss.hdma_usart2_rx
                0x2000044c       0x44 /workspaces/qgv/hoverboard-firmware-hack-FOC/build/setup.o
                0x2000044c                hdma_usart2_rx
 .bss.huart3    0x20000490       0x40 /workspaces/qgv/hoverboard-firmware-hack-FOC/build/setup.o
                0x20000490                huart3
 .bss.hadc2     0x200004d0       0x30 /workspaces/qgv/hoverboard-firmware-hack-FOC/build/setup.o
                0x200004d0                hadc2
 .bss.hadc1     0x20000500       0x30 /workspaces/qgv/hoverboard-firmware-hack-FOC/build/setup.o
                0x20000500                hadc1
 .bss.htim_left
                0x20000530       0x40 /workspaces/qgv/hoverboard-firmware-hack-FOC/build/setup.o
                0x20000530                htim_left
 .bss.htim_right
                0x20000570       0x40 /workspaces/qgv/hoverboard-firmware-hack-FOC/build/setup.o
                0x20000570                htim_right
 .bss.timeoutFlgGen
                0x200005b0        0x1 /workspaces/qgv/hoverboard-firmware-hack-FOC/build/control.o
                0x200005b0                timeoutFlgGen
 .bss.sensor2_prev.0
                0x200005b1        0x1 /workspaces/qgv/hoverboard-firmware-hack-FOC/build/util.o
 .bss.sensor1_prev.2
                0x200005b2        0x1 /workspaces/qgv/hoverboard-firmware-hack-FOC/build/util.o
 .bss.sensor1_index.3
                0x200005b3        0x1 /workspaces/qgv/hoverboard-firmware-hack-FOC/build/util.o
 .bss.old_pos.4
                0x200005b4        0x4 /workspaces/qgv/hoverboard-firmware-hack-FOC/build/util.o
 .bss.brakePressed
                0x200005b8        0x1 /workspaces/qgv/hoverboard-firmware-hack-FOC/build/util.o
 *fill*         0x200005b9        0x3 
 .bss.Sideboard_R_raw
                0x200005bc        0xe /workspaces/qgv/hoverboard-firmware-hack-FOC/build/util.o
                0x200005bc                Sideboard_R_raw
 *fill*         0x200005ca        0x2 
 .bss.Sideboard_R
                0x200005cc        0xe /workspaces/qgv/hoverboard-firmware-hack-FOC/build/util.o
                0x200005cc                Sideboard_R
 .bss.timeoutFlgSerial_R
                0x200005da        0x1 /workspaces/qgv/hoverboard-firmware-hack-FOC/build/util.o
 *fill*         0x200005db        0x1 
 .bss.rx_buffer_R
                0x200005dc       0x40 /workspaces/qgv/hoverboard-firmware-hack-FOC/build/util.o
 .bss.inp_cal_valid
                0x2000061c        0x1 /workspaces/qgv/hoverboard-firmware-hack-FOC/build/util.o
 .bss.cur_spd_valid
                0x2000061d        0x1 /workspaces/qgv/hoverboard-firmware-hack-FOC/build/util.o
 .bss.INPUT_MIN
                0x2000061e        0x2 /workspaces/qgv/hoverboard-firmware-hack-FOC/build/util.o
 .bss.INPUT_MAX
                0x20000620        0x2 /workspaces/qgv/hoverboard-firmware-hack-FOC/build/util.o
 .bss.timeoutFlgSerial
                0x20000622        0x1 /workspaces/qgv/hoverboard-firmware-hack-FOC/build/util.o
                0x20000622                timeoutFlgSerial
 .bss.timeoutFlgADC
                0x20000623        0x1 /workspaces/qgv/hoverboard-firmware-hack-FOC/build/util.o
                0x20000623                timeoutFlgADC
 .bss.speedAvgAbs
                0x20000624        0x2 /workspaces/qgv/hoverboard-firmware-hack-FOC/build/util.o
                0x20000624                speedAvgAbs
 .bss.speedAvg  0x20000626        0x2 /workspaces/qgv/hoverboard-firmware-hack-FOC/build/util.o
                0x20000626                speedAvg
 .bss.inIdx_prev
                0x20000628        0x1 /workspaces/qgv/hoverboard-firmware-hack-FOC/build/util.o
                0x20000628                inIdx_prev
 .bss.inIdx     0x20000629        0x1 /workspaces/qgv/hoverboard-firmware-hack-FOC/build/util.o
                0x20000629                inIdx
 *fill*         0x2000062a        0x2 
 .bss.rtY_Right
                0x2000062c       0x10 /workspaces/qgv/hoverboard-firmware-hack-FOC/build/util.o
                0x2000062c                rtY_Right
 .bss.rtU_Right
                0x2000063c       0x10 /workspaces/qgv/hoverboard-firmware-hack-FOC/build/util.o
                0x2000063c                rtU_Right
 .bss.rtDW_Right
                0x2000064c       0xac /workspaces/qgv/hoverboard-firmware-hack-FOC/build/util.o
                0x2000064c                rtDW_Right
 .bss.rtP_Right
                0x200006f8      0x100 /workspaces/qgv/hoverboard-firmware-hack-FOC/build/util.o
                0x200006f8                rtP_Right
 .bss.rtY_Left  0x200007f8       0x10 /workspaces/qgv/hoverboard-firmware-hack-FOC/build/util.o
                0x200007f8                rtY_Left
 .bss.rtU_Left  0x20000808       0x10 /workspaces/qgv/hoverboard-firmware-hack-FOC/build/util.o
                0x20000808                rtU_Left
 .bss.rtDW_Left
                0x20000818       0xac /workspaces/qgv/hoverboard-firmware-hack-FOC/build/util.o
                0x20000818                rtDW_Left
 .bss.rtM_Right_
                0x200008c4       0x10 /workspaces/qgv/hoverboard-firmware-hack-FOC/build/util.o
                0x200008c4                rtM_Right_
 .bss.rtM_Left_
                0x200008d4       0x10 /workspaces/qgv/hoverboard-firmware-hack-FOC/build/util.o
                0x200008d4                rtM_Left_
 .bss.max_speed
                0x200008e4        0x2 /workspaces/qgv/hoverboard-firmware-hack-FOC/build/main.o
 .bss.drive_mode
                0x200008e6        0x1 /workspaces/qgv/hoverboard-firmware-hack-FOC/build/main.o
 *fill*         0x200008e7        0x1 
 .bss.MultipleTapBrake
                0x200008e8        0x8 /workspaces/qgv/hoverboard-firmware-hack-FOC/build/main.o
 .bss.inactivity_timeout_counter
                0x200008f0        0x4 /workspaces/qgv/hoverboard-firmware-hack-FOC/build/main.o
 .bss.buzzerTimer_prev
                0x200008f4        0x4 /workspaces/qgv/hoverboard-firmware-hack-FOC/build/main.o
 .bss.speedFixdt
                0x200008f8        0x4 /workspaces/qgv/hoverboard-firmware-hack-FOC/build/main.o
 .bss.steerFixdt
                0x200008fc        0x4 /workspaces/qgv/hoverboard-firmware-hack-FOC/build/main.o
 .bss.speedRateFixdt
                0x20000900        0x2 /workspaces/qgv/hoverboard-firmware-hack-FOC/build/main.o
 .bss.steerRateFixdt
                0x20000902        0x2 /workspaces/qgv/hoverboard-firmware-hack-FOC/build/main.o
 .bss.steer     0x20000904        0x2 /workspaces/qgv/hoverboard-firmware-hack-FOC/build/main.o
 .bss.speed     0x20000906        0x2 /workspaces/qgv/hoverboard-firmware-hack-FOC/build/main.o
 .bss.sideboard_leds_R
                0x20000908        0x1 /workspaces/qgv/hoverboard-firmware-hack-FOC/build/main.o
 *fill*         0x20000909        0x3 
 .bss.Feedback  0x2000090c       0x12 /workspaces/qgv/hoverboard-firmware-hack-FOC/build/main.o
 .bss.cmdR      0x2000091e        0x2 /workspaces/qgv/hoverboard-firmware-hack-FOC/build/main.o
                0x2000091e                cmdR
 .bss.cmdL      0x20000920        0x2 /workspaces/qgv/hoverboard-firmware-hack-FOC/build/main.o
                0x20000920                cmdL
 .bss.dc_curr   0x20000922        0x2 /workspaces/qgv/hoverboard-firmware-hack-FOC/build/main.o
                0x20000922                dc_curr
 .bss.right_dc_curr
                0x20000924        0x2 /workspaces/qgv/hoverboard-firmware-hack-FOC/build/main.o
                0x20000924                right_dc_curr
 .bss.left_dc_curr
                0x20000926        0x2 /workspaces/qgv/hoverboard-firmware-hack-FOC/build/main.o
                0x20000926                left_dc_curr
 .bss.board_temp_deg_c
                0x20000928        0x2 /workspaces/qgv/hoverboard-firmware-hack-FOC/build/main.o
                0x20000928                board_temp_deg_c
 .bss.batVoltageCalib
                0x2000092a        0x2 /workspaces/qgv/hoverboard-firmware-hack-FOC/build/main.o
                0x2000092a                batVoltageCalib
 .bss.main_loop_counter
                0x2000092c        0x4 /workspaces/qgv/hoverboard-firmware-hack-FOC/build/main.o
                0x2000092c                main_loop_counter
 .bss.backwardDrive
                0x20000930        0x1 /workspaces/qgv/hoverboard-firmware-hack-FOC/build/main.o
                0x20000930                backwardDrive
 .bss.OverrunFlag.0
                0x20000931        0x1 /workspaces/qgv/hoverboard-firmware-hack-FOC/build/bldc.o
 .bss.offsetcount
                0x20000932        0x2 /workspaces/qgv/hoverboard-firmware-hack-FOC/build/bldc.o
 .bss.enableFin
                0x20000934        0x1 /workspaces/qgv/hoverboard-firmware-hack-FOC/build/bldc.o
 .bss.enable    0x20000935        0x1 /workspaces/qgv/hoverboard-firmware-hack-FOC/build/bldc.o
                0x20000935                enable
 .bss.buzzerIdx
                0x20000936        0x1 /workspaces/qgv/hoverboard-firmware-hack-FOC/build/bldc.o
 .bss.buzzerPrev
                0x20000937        0x1 /workspaces/qgv/hoverboard-firmware-hack-FOC/build/bldc.o
 .bss.buzzerTimer
                0x20000938        0x4 /workspaces/qgv/hoverboard-firmware-hack-FOC/build/bldc.o
                0x20000938                buzzerTimer
 .bss.buzzerCount
                0x2000093c        0x1 /workspaces/qgv/hoverboard-firmware-hack-FOC/build/bldc.o
                0x2000093c                buzzerCount
 .bss.buzzerPattern
                0x2000093d        0x1 /workspaces/qgv/hoverboard-firmware-hack-FOC/build/bldc.o
                0x2000093d                buzzerPattern
 .bss.buzzerFreq
                0x2000093e        0x1 /workspaces/qgv/hoverboard-firmware-hack-FOC/build/bldc.o
                0x2000093e                buzzerFreq
 *fill*         0x2000093f        0x1 
 .bss.pwmr      0x20000940        0x4 /workspaces/qgv/hoverboard-firmware-hack-FOC/build/bldc.o
                0x20000940                pwmr
 .bss.pwml      0x20000944        0x4 /workspaces/qgv/hoverboard-firmware-hack-FOC/build/bldc.o
                0x20000944                pwml
 .bss.curR_DC   0x20000948        0x2 /workspaces/qgv/hoverboard-firmware-hack-FOC/build/bldc.o
                0x20000948                curR_DC
 .bss.curR_phaC
                0x2000094a        0x2 /workspaces/qgv/hoverboard-firmware-hack-FOC/build/bldc.o
                0x2000094a                curR_phaC
 .bss.curR_phaB
                0x2000094c        0x2 /workspaces/qgv/hoverboard-firmware-hack-FOC/build/bldc.o
                0x2000094c                curR_phaB
 .bss.curL_DC   0x2000094e        0x2 /workspaces/qgv/hoverboard-firmware-hack-FOC/build/bldc.o
                0x2000094e                curL_DC
 .bss.curL_phaB
                0x20000950        0x2 /workspaces/qgv/hoverboard-firmware-hack-FOC/build/bldc.o
                0x20000950                curL_phaB
 .bss.curL_phaA
                0x20000952        0x2 /workspaces/qgv/hoverboard-firmware-hack-FOC/build/bldc.o
                0x20000952                curL_phaA
 .bss.pwm_margin
                0x20000954        0x2 /workspaces/qgv/hoverboard-firmware-hack-FOC/build/bldc.o
 .bss.DataVar   0x20000956        0x2 /workspaces/qgv/hoverboard-firmware-hack-FOC/build/eeprom.o
                0x20000956                DataVar
 *(COMMON)
                0x20000958                        . = ALIGN (0x4)
                0x20000958                        _ebss = .
                0x20000958                        __bss_end__ = _ebss

._user_heap_stack
                0x20000958      0x600 load address 0x08008efc
                0x20000958                        . = ALIGN (0x8)
                0x20000958                        PROVIDE (end = .)
                [!provide]                        PROVIDE (_end = .)
                0x20000b58                        . = (. + _Min_Heap_Size)
 *fill*         0x20000958      0x200 
                0x20000f58                        . = (. + _Min_Stack_Size)
 *fill*         0x20000b58      0x400 
                0x20000f58                        . = ALIGN (0x8)

/DISCARD/
 libc.a(*)
 libm.a(*)
 libgcc.a(*)

.ARM.attributes
                0x00000000       0x29
 *(.ARM.attributes)
 .ARM.attributes
                0x00000000       0x1d /usr/lib/gcc/arm-none-eabi/13.2.1/thumb/v7-m/nofp/crti.o
 .ARM.attributes
                0x0000001d       0x2d /usr/lib/gcc/arm-none-eabi/13.2.1/thumb/v7-m/nofp/crtbegin.o
 .ARM.attributes
                0x0000004a       0x2d /workspaces/qgv/hoverboard-firmware-hack-FOC/build/stm32f1xx_hal_flash.o
 .ARM.attributes
                0x00000077       0x2d /workspaces/qgv/hoverboard-firmware-hack-FOC/build/stm32f1xx_hal_rcc.o
 .ARM.attributes
                0x000000a4       0x2d /workspaces/qgv/hoverboard-firmware-hack-FOC/build/stm32f1xx_hal_tim.o
 .ARM.attributes
                0x000000d1       0x2d /workspaces/qgv/hoverboard-firmware-hack-FOC/build/stm32f1xx_hal_tim_ex.o
 .ARM.attributes
                0x000000fe       0x2d /workspaces/qgv/hoverboard-firmware-hack-FOC/build/stm32f1xx_hal_adc_ex.o
 .ARM.attributes
                0x0000012b       0x2d /workspaces/qgv/hoverboard-firmware-hack-FOC/build/stm32f1xx_hal_cortex.o
 .ARM.attributes
                0x00000158       0x2d /workspaces/qgv/hoverboard-firmware-hack-FOC/build/stm32f1xx_hal_flash_ex.o
 .ARM.attributes
                0x00000185       0x2d /workspaces/qgv/hoverboard-firmware-hack-FOC/build/stm32f1xx_hal_gpio.o
 .ARM.attributes
                0x000001b2       0x2d /workspaces/qgv/hoverboard-firmware-hack-FOC/build/stm32f1xx_hal_rcc_ex.o
 .ARM.attributes
                0x000001df       0x2d /workspaces/qgv/hoverboard-firmware-hack-FOC/build/stm32f1xx_hal.o
 .ARM.attributes
                0x0000020c       0x2d /workspaces/qgv/hoverboard-firmware-hack-FOC/build/stm32f1xx_hal_adc.o
 .ARM.attributes
                0x00000239       0x2d /workspaces/qgv/hoverboard-firmware-hack-FOC/build/stm32f1xx_hal_uart.o
 .ARM.attributes
                0x00000266       0x2d /workspaces/qgv/hoverboard-firmware-hack-FOC/build/stm32f1xx_hal_dma.o
 .ARM.attributes
                0x00000293       0x2d /workspaces/qgv/hoverboard-firmware-hack-FOC/build/system_stm32f1xx.o
 .ARM.attributes
                0x000002c0       0x2d /workspaces/qgv/hoverboard-firmware-hack-FOC/build/setup.o
 .ARM.attributes
                0x000002ed       0x2d /workspaces/qgv/hoverboard-firmware-hack-FOC/build/control.o
 .ARM.attributes
                0x0000031a       0x2d /workspaces/qgv/hoverboard-firmware-hack-FOC/build/util.o
 .ARM.attributes
                0x00000347       0x2d /workspaces/qgv/hoverboard-firmware-hack-FOC/build/main.o
 .ARM.attributes
                0x00000374       0x2d /workspaces/qgv/hoverboard-firmware-hack-FOC/build/bldc.o
 .ARM.attributes
                0x000003a1       0x2d /workspaces/qgv/hoverboard-firmware-hack-FOC/build/eeprom.o
 .ARM.attributes
                0x000003ce       0x2d /workspaces/qgv/hoverboard-firmware-hack-FOC/build/stm32f1xx_it.o
 .ARM.attributes
                0x000003fb       0x2d /workspaces/qgv/hoverboard-firmware-hack-FOC/build/BLDC_controller_data.o
 .ARM.attributes
                0x00000428       0x2d /workspaces/qgv/hoverboard-firmware-hack-FOC/build/BLDC_controller.o
 .ARM.attributes
                0x00000455       0x21 /workspaces/qgv/hoverboard-firmware-hack-FOC/build/startup_stm32f103xe.o
 .ARM.attributes
                0x00000476       0x2d /usr/lib/gcc/arm-none-eabi/13.2.1/../../../arm-none-eabi/lib/thumb/v7-m/nofp/libc_nano.a(libc_a-init.o)
 .ARM.attributes
                0x000004a3       0x2d /usr/lib/gcc/arm-none-eabi/13.2.1/../../../arm-none-eabi/lib/thumb/v7-m/nofp/libc_nano.a(libc_a-memset.o)
 .ARM.attributes
                0x000004d0       0x1b /usr/lib/gcc/arm-none-eabi/13.2.1/../../../arm-none-eabi/lib/thumb/v7-m/nofp/libc_nano.a(libc_a-memcpy.o)
 .ARM.attributes
                0x000004eb       0x2d /usr/lib/gcc/arm-none-eabi/13.2.1/../../../arm-none-eabi/lib/thumb/v7-m/nofp/libc_nano.a(libc_a-printf.o)
 .ARM.attributes
                0x00000518       0x2d /usr/lib/gcc/arm-none-eabi/13.2.1/../../../arm-none-eabi/lib/thumb/v7-m/nofp/libc_nano.a(libc_a-nano-vfprintf.o)
 .ARM.attributes
                0x00000545       0x2d /usr/lib/gcc/arm-none-eabi/13.2.1/../../../arm-none-eabi/lib/thumb/v7-m/nofp/libc_nano.a(libc_a-wbuf.o)
 .ARM.attributes
                0x00000572       0x2d /usr/lib/gcc/arm-none-eabi/13.2.1/../../../arm-none-eabi/lib/thumb/v7-m/nofp/libc_nano.a(libc_a-impure.o)
 .ARM.attributes
                0x0000059f       0x2d /usr/lib/gcc/arm-none-eabi/13.2.1/../../../arm-none-eabi/lib/thumb/v7-m/nofp/libc_nano.a(libc_a-fvwrite.o)
 .ARM.attributes
                0x000005cc       0x2d /usr/lib/gcc/arm-none-eabi/13.2.1/../../../arm-none-eabi/lib/thumb/v7-m/nofp/libc_nano.a(libc_a-findfp.o)
 .ARM.attributes
                0x000005f9       0x2d /usr/lib/gcc/arm-none-eabi/13.2.1/../../../arm-none-eabi/lib/thumb/v7-m/nofp/libc_nano.a(libc_a-fflush.o)
 .ARM.attributes
                0x00000626       0x2d /usr/lib/gcc/arm-none-eabi/13.2.1/../../../arm-none-eabi/lib/thumb/v7-m/nofp/libc_nano.a(libc_a-mallocr.o)
 .ARM.attributes
                0x00000653       0x2d /usr/lib/gcc/arm-none-eabi/13.2.1/../../../arm-none-eabi/lib/thumb/v7-m/nofp/libc_nano.a(libc_a-freer.o)
 .ARM.attributes
                0x00000680       0x2d /usr/lib/gcc/arm-none-eabi/13.2.1/../../../arm-none-eabi/lib/thumb/v7-m/nofp/libc_nano.a(libc_a-memmove.o)
 .ARM.attributes
                0x000006ad       0x2d /usr/lib/gcc/arm-none-eabi/13.2.1/../../../arm-none-eabi/lib/thumb/v7-m/nofp/libc_nano.a(libc_a-fwalk.o)
 .ARM.attributes
                0x000006da       0x2d /usr/lib/gcc/arm-none-eabi/13.2.1/../../../arm-none-eabi/lib/thumb/v7-m/nofp/libc_nano.a(libc_a-wsetup.o)
 .ARM.attributes
                0x00000707       0x2d /usr/lib/gcc/arm-none-eabi/13.2.1/../../../arm-none-eabi/lib/thumb/v7-m/nofp/libc_nano.a(libc_a-reallocr.o)
 .ARM.attributes
                0x00000734       0x2d /usr/lib/gcc/arm-none-eabi/13.2.1/../../../arm-none-eabi/lib/thumb/v7-m/nofp/libc_nano.a(libc_a-nano-vfprintf_i.o)
 .ARM.attributes
                0x00000761       0x2d /usr/lib/gcc/arm-none-eabi/13.2.1/../../../arm-none-eabi/lib/thumb/v7-m/nofp/libc_nano.a(libc_a-mlock.o)
 .ARM.attributes
                0x0000078e       0x2d /usr/lib/gcc/arm-none-eabi/13.2.1/../../../arm-none-eabi/lib/thumb/v7-m/nofp/libc_nano.a(libc_a-makebuf.o)
 .ARM.attributes
                0x000007bb       0x2d /usr/lib/gcc/arm-none-eabi/13.2.1/../../../arm-none-eabi/lib/thumb/v7-m/nofp/libc_nano.a(libc_a-memchr-stub.o)
 .ARM.attributes
                0x000007e8       0x2d /usr/lib/gcc/arm-none-eabi/13.2.1/../../../arm-none-eabi/lib/thumb/v7-m/nofp/libc_nano.a(libc_a-isattyr.o)
 .ARM.attributes
                0x00000815       0x2d /usr/lib/gcc/arm-none-eabi/13.2.1/../../../arm-none-eabi/lib/thumb/v7-m/nofp/libc_nano.a(libc_a-sbrkr.o)
 .ARM.attributes
                0x00000842       0x2d /usr/lib/gcc/arm-none-eabi/13.2.1/../../../arm-none-eabi/lib/thumb/v7-m/nofp/libc_nano.a(libc_a-stdio.o)
 .ARM.attributes
                0x0000086f       0x2d /usr/lib/gcc/arm-none-eabi/13.2.1/../../../arm-none-eabi/lib/thumb/v7-m/nofp/libc_nano.a(libc_a-msizer.o)
 .ARM.attributes
                0x0000089c       0x2d /usr/lib/gcc/arm-none-eabi/13.2.1/../../../arm-none-eabi/lib/thumb/v7-m/nofp/libc_nano.a(libc_a-closer.o)
 .ARM.attributes
                0x000008c9       0x2d /usr/lib/gcc/arm-none-eabi/13.2.1/../../../arm-none-eabi/lib/thumb/v7-m/nofp/libc_nano.a(libc_a-readr.o)
 .ARM.attributes
                0x000008f6       0x2d /usr/lib/gcc/arm-none-eabi/13.2.1/../../../arm-none-eabi/lib/thumb/v7-m/nofp/libc_nano.a(libc_a-reent.o)
 .ARM.attributes
                0x00000923       0x2d /usr/lib/gcc/arm-none-eabi/13.2.1/../../../arm-none-eabi/lib/thumb/v7-m/nofp/libc_nano.a(libc_a-fstatr.o)
 .ARM.attributes
                0x00000950       0x2d /usr/lib/gcc/arm-none-eabi/13.2.1/../../../arm-none-eabi/lib/thumb/v7-m/nofp/libc_nano.a(libc_a-lseekr.o)
 .ARM.attributes
                0x0000097d       0x2d /usr/lib/gcc/arm-none-eabi/13.2.1/../../../arm-none-eabi/lib/thumb/v7-m/nofp/libc_nano.a(libc_a-writer.o)
 .ARM.attributes
                0x000009aa       0x2d /usr/lib/gcc/arm-none-eabi/13.2.1/../../../arm-none-eabi/lib/thumb/v7-m/nofp/libnosys.a(close.o)
 .ARM.attributes
                0x000009d7       0x2d /usr/lib/gcc/arm-none-eabi/13.2.1/../../../arm-none-eabi/lib/thumb/v7-m/nofp/libnosys.a(fstat.o)
 .ARM.attributes
                0x00000a04       0x2d /usr/lib/gcc/arm-none-eabi/13.2.1/../../../arm-none-eabi/lib/thumb/v7-m/nofp/libnosys.a(isatty.o)
 .ARM.attributes
                0x00000a31       0x2d /usr/lib/gcc/arm-none-eabi/13.2.1/../../../arm-none-eabi/lib/thumb/v7-m/nofp/libnosys.a(lseek.o)
 .ARM.attributes
                0x00000a5e       0x2d /usr/lib/gcc/arm-none-eabi/13.2.1/../../../arm-none-eabi/lib/thumb/v7-m/nofp/libnosys.a(read.o)
 .ARM.attributes
                0x00000a8b       0x2d /usr/lib/gcc/arm-none-eabi/13.2.1/../../../arm-none-eabi/lib/thumb/v7-m/nofp/libnosys.a(sbrk.o)
 .ARM.attributes
                0x00000ab8       0x2d /usr/lib/gcc/arm-none-eabi/13.2.1/../../../arm-none-eabi/lib/thumb/v7-m/nofp/libnosys.a(write.o)
 .ARM.attributes
                0x00000ae5       0x2d /usr/lib/gcc/arm-none-eabi/13.2.1/thumb/v7-m/nofp/crtend.o
 .ARM.attributes
                0x00000b12       0x1d /usr/lib/gcc/arm-none-eabi/13.2.1/thumb/v7-m/nofp/crtn.o
OUTPUT(/workspaces/qgv/hoverboard-firmware-hack-FOC/build/hover.elf elf32-littlearm)
LOAD linker stubs
LOAD /usr/lib/gcc/arm-none-eabi/13.2.1/../../../arm-none-eabi/lib/thumb/v7-m/nofp/libc.a
LOAD /usr/lib/gcc/arm-none-eabi/13.2.1/../../../arm-none-eabi/lib/thumb/v7-m/nofp/libm.a
LOAD /usr/lib/gcc/arm-none-eabi/13.2.1/thumb/v7-m/nofp/libgcc.a

.comment        0x00000000       0x26
 .comment       0x00000000       0x26 /usr/lib/gcc/arm-none-eabi/13.2.1/thumb/v7-m/nofp/crtbegin.o
                                 0x27 (size before relaxing)
 .comment       0x00000026       0x27 /workspaces/qgv/hoverboard-firmware-hack-FOC/build/stm32f1xx_hal_flash.o
 .comment       0x00000026       0x27 /workspaces/qgv/hoverboard-firmware-hack-FOC/build/stm32f1xx_hal_rcc.o
 .comment       0x00000026       0x27 /workspaces/qgv/hoverboard-firmware-hack-FOC/build/stm32f1xx_hal_tim.o
 .comment       0x00000026       0x27 /workspaces/qgv/hoverboard-firmware-hack-FOC/build/stm32f1xx_hal_tim_ex.o
 .comment       0x00000026       0x27 /workspaces/qgv/hoverboard-firmware-hack-FOC/build/stm32f1xx_hal_adc_ex.o
 .comment       0x00000026       0x27 /workspaces/qgv/hoverboard-firmware-hack-FOC/build/stm32f1xx_hal_cortex.o
 .comment       0x00000026       0x27 /workspaces/qgv/hoverboard-firmware-hack-FOC/build/stm32f1xx_hal_flash_ex.o
 .comment       0x00000026       0x27 /workspaces/qgv/hoverboard-firmware-hack-FOC/build/stm32f1xx_hal_gpio.o
 .comment       0x00000026       0x27 /workspaces/qgv/hoverboard-firmware-hack-FOC/build/stm32f1xx_hal_rcc_ex.o
 .comment       0x00000026       0x27 /workspaces/qgv/hoverboard-firmware-hack-FOC/build/stm32f1xx_hal.o
 .comment       0x00000026       0x27 /workspaces/qgv/hoverboard-firmware-hack-FOC/build/stm32f1xx_hal_adc.o
 .comment       0x00000026       0x27 /workspaces/qgv/hoverboard-firmware-hack-FOC/build/stm32f1xx_hal_uart.o
 .comment       0x00000026       0x27 /workspaces/qgv/hoverboard-firmware-hack-FOC/build/stm32f1xx_hal_dma.o
 .comment       0x00000026       0x27 /workspaces/qgv/hoverboard-firmware-hack-FOC/build/system_stm32f1xx.o
 .comment       0x00000026       0x27 /workspaces/qgv/hoverboard-firmware-hack-FOC/build/setup.o
 .comment       0x00000026       0x27 /workspaces/qgv/hoverboard-firmware-hack-FOC/build/control.o
 .comment       0x00000026       0x27 /workspaces/qgv/hoverboard-firmware-hack-FOC/build/util.o
 .comment       0x00000026       0x27 /workspaces/qgv/hoverboard-firmware-hack-FOC/build/main.o
 .comment       0x00000026       0x27 /workspaces/qgv/hoverboard-firmware-hack-FOC/build/bldc.o
 .comment       0x00000026       0x27 /workspaces/qgv/hoverboard-firmware-hack-FOC/build/eeprom.o
 .comment       0x00000026       0x27 /workspaces/qgv/hoverboard-firmware-hack-FOC/build/stm32f1xx_it.o
 .comment       0x00000026       0x27 /workspaces/qgv/hoverboard-firmware-hack-FOC/build/BLDC_controller_data.o
 .comment       0x00000026       0x27 /workspaces/qgv/hoverboard-firmware-hack-FOC/build/BLDC_controller.o
 .comment       0x00000026       0x27 /usr/lib/gcc/arm-none-eabi/13.2.1/../../../arm-none-eabi/lib/thumb/v7-m/nofp/libc_nano.a(libc_a-init.o)
 .comment       0x00000026       0x27 /usr/lib/gcc/arm-none-eabi/13.2.1/../../../arm-none-eabi/lib/thumb/v7-m/nofp/libc_nano.a(libc_a-memset.o)
 .comment       0x00000026       0x27 /usr/lib/gcc/arm-none-eabi/13.2.1/../../../arm-none-eabi/lib/thumb/v7-m/nofp/libc_nano.a(libc_a-printf.o)
 .comment       0x00000026       0x27 /usr/lib/gcc/arm-none-eabi/13.2.1/../../../arm-none-eabi/lib/thumb/v7-m/nofp/libc_nano.a(libc_a-nano-vfprintf.o)
 .comment       0x00000026       0x27 /usr/lib/gcc/arm-none-eabi/13.2.1/../../../arm-none-eabi/lib/thumb/v7-m/nofp/libc_nano.a(libc_a-wbuf.o)
 .comment       0x00000026       0x27 /usr/lib/gcc/arm-none-eabi/13.2.1/../../../arm-none-eabi/lib/thumb/v7-m/nofp/libc_nano.a(libc_a-impure.o)
 .comment       0x00000026       0x27 /usr/lib/gcc/arm-none-eabi/13.2.1/../../../arm-none-eabi/lib/thumb/v7-m/nofp/libc_nano.a(libc_a-fvwrite.o)
 .comment       0x00000026       0x27 /usr/lib/gcc/arm-none-eabi/13.2.1/../../../arm-none-eabi/lib/thumb/v7-m/nofp/libc_nano.a(libc_a-findfp.o)
 .comment       0x00000026       0x27 /usr/lib/gcc/arm-none-eabi/13.2.1/../../../arm-none-eabi/lib/thumb/v7-m/nofp/libc_nano.a(libc_a-fflush.o)
 .comment       0x00000026       0x27 /usr/lib/gcc/arm-none-eabi/13.2.1/../../../arm-none-eabi/lib/thumb/v7-m/nofp/libc_nano.a(libc_a-mallocr.o)
 .comment       0x00000026       0x27 /usr/lib/gcc/arm-none-eabi/13.2.1/../../../arm-none-eabi/lib/thumb/v7-m/nofp/libc_nano.a(libc_a-freer.o)
 .comment       0x00000026       0x27 /usr/lib/gcc/arm-none-eabi/13.2.1/../../../arm-none-eabi/lib/thumb/v7-m/nofp/libc_nano.a(libc_a-memmove.o)
 .comment       0x00000026       0x27 /usr/lib/gcc/arm-none-eabi/13.2.1/../../../arm-none-eabi/lib/thumb/v7-m/nofp/libc_nano.a(libc_a-fwalk.o)
 .comment       0x00000026       0x27 /usr/lib/gcc/arm-none-eabi/13.2.1/../../../arm-none-eabi/lib/thumb/v7-m/nofp/libc_nano.a(libc_a-wsetup.o)
 .comment       0x00000026       0x27 /usr/lib/gcc/arm-none-eabi/13.2.1/../../../arm-none-eabi/lib/thumb/v7-m/nofp/libc_nano.a(libc_a-reallocr.o)
 .comment       0x00000026       0x27 /usr/lib/gcc/arm-none-eabi/13.2.1/../../../arm-none-eabi/lib/thumb/v7-m/nofp/libc_nano.a(libc_a-nano-vfprintf_i.o)
 .comment       0x00000026       0x27 /usr/lib/gcc/arm-none-eabi/13.2.1/../../../arm-none-eabi/lib/thumb/v7-m/nofp/libc_nano.a(libc_a-mlock.o)
 .comment       0x00000026       0x27 /usr/lib/gcc/arm-none-eabi/13.2.1/../../../arm-none-eabi/lib/thumb/v7-m/nofp/libc_nano.a(libc_a-makebuf.o)
 .comment       0x00000026       0x27 /usr/lib/gcc/arm-none-eabi/13.2.1/../../../arm-none-eabi/lib/thumb/v7-m/nofp/libc_nano.a(libc_a-memchr-stub.o)
 .comment       0x00000026       0x27 /usr/lib/gcc/arm-none-eabi/13.2.1/../../../arm-none-eabi/lib/thumb/v7-m/nofp/libc_nano.a(libc_a-isattyr.o)
 .comment       0x00000026       0x27 /usr/lib/gcc/arm-none-eabi/13.2.1/../../../arm-none-eabi/lib/thumb/v7-m/nofp/libc_nano.a(libc_a-sbrkr.o)
 .comment       0x00000026       0x27 /usr/lib/gcc/arm-none-eabi/13.2.1/../../../arm-none-eabi/lib/thumb/v7-m/nofp/libc_nano.a(libc_a-stdio.o)
 .comment       0x00000026       0x27 /usr/lib/gcc/arm-none-eabi/13.2.1/../../../arm-none-eabi/lib/thumb/v7-m/nofp/libc_nano.a(libc_a-msizer.o)
 .comment       0x00000026       0x27 /usr/lib/gcc/arm-none-eabi/13.2.1/../../../arm-none-eabi/lib/thumb/v7-m/nofp/libc_nano.a(libc_a-closer.o)
 .comment       0x00000026       0x27 /usr/lib/gcc/arm-none-eabi/13.2.1/../../../arm-none-eabi/lib/thumb/v7-m/nofp/libc_nano.a(libc_a-readr.o)
 .comment       0x00000026       0x27 /usr/lib/gcc/arm-none-eabi/13.2.1/../../../arm-none-eabi/lib/thumb/v7-m/nofp/libc_nano.a(libc_a-reent.o)
 .comment       0x00000026       0x27 /usr/lib/gcc/arm-none-eabi/13.2.1/../../../arm-none-eabi/lib/thumb/v7-m/nofp/libc_nano.a(libc_a-fstatr.o)
 .comment       0x00000026       0x27 /usr/lib/gcc/arm-none-eabi/13.2.1/../../../arm-none-eabi/lib/thumb/v7-m/nofp/libc_nano.a(libc_a-lseekr.o)
 .comment       0x00000026       0x27 /usr/lib/gcc/arm-none-eabi/13.2.1/../../../arm-none-eabi/lib/thumb/v7-m/nofp/libc_nano.a(libc_a-writer.o)
 .comment       0x00000026       0x27 /usr/lib/gcc/arm-none-eabi/13.2.1/../../../arm-none-eabi/lib/thumb/v7-m/nofp/libnosys.a(close.o)
 .comment       0x00000026       0x27 /usr/lib/gcc/arm-none-eabi/13.2.1/../../../arm-none-eabi/lib/thumb/v7-m/nofp/libnosys.a(fstat.o)
 .comment       0x00000026       0x27 /usr/lib/gcc/arm-none-eabi/13.2.1/../../../arm-none-eabi/lib/thumb/v7-m/nofp/libnosys.a(isatty.o)
 .comment       0x00000026       0x27 /usr/lib/gcc/arm-none-eabi/13.2.1/../../../arm-none-eabi/lib/thumb/v7-m/nofp/libnosys.a(lseek.o)
 .comment       0x00000026       0x27 /usr/lib/gcc/arm-none-eabi/13.2.1/../../../arm-none-eabi/lib/thumb/v7-m/nofp/libnosys.a(read.o)
 .comment       0x00000026       0x27 /usr/lib/gcc/arm-none-eabi/13.2.1/../../../arm-none-eabi/lib/thumb/v7-m/nofp/libnosys.a(sbrk.o)
 .comment       0x00000026       0x27 /usr/lib/gcc/arm-none-eabi/13.2.1/../../../arm-none-eabi/lib/thumb/v7-m/nofp/libnosys.a(write.o)
 .comment       0x00000026       0x27 /usr/lib/gcc/arm-none-eabi/13.2.1/thumb/v7-m/nofp/crtend.o

.debug_info     0x00000000    0x28668
 .debug_info    0x00000000      0x6ba /workspaces/qgv/hoverboard-firmware-hack-FOC/build/stm32f1xx_hal_flash.o
 .debug_info    0x000006ba      0xa9c /workspaces/qgv/hoverboard-firmware-hack-FOC/build/stm32f1xx_hal_rcc.o
 .debug_info    0x00001156     0x3529 /workspaces/qgv/hoverboard-firmware-hack-FOC/build/stm32f1xx_hal_tim.o
 .debug_info    0x0000467f     0x15e5 /workspaces/qgv/hoverboard-firmware-hack-FOC/build/stm32f1xx_hal_tim_ex.o
 .debug_info    0x00005c64      0xd1e /workspaces/qgv/hoverboard-firmware-hack-FOC/build/stm32f1xx_hal_adc_ex.o
 .debug_info    0x00006982      0xe69 /workspaces/qgv/hoverboard-firmware-hack-FOC/build/stm32f1xx_hal_cortex.o
 .debug_info    0x000077eb      0xb6b /workspaces/qgv/hoverboard-firmware-hack-FOC/build/stm32f1xx_hal_flash_ex.o
 .debug_info    0x00008356      0x6cc /workspaces/qgv/hoverboard-firmware-hack-FOC/build/stm32f1xx_hal_gpio.o
 .debug_info    0x00008a22      0x49e /workspaces/qgv/hoverboard-firmware-hack-FOC/build/stm32f1xx_hal_rcc_ex.o
 .debug_info    0x00008ec0      0x7ae /workspaces/qgv/hoverboard-firmware-hack-FOC/build/stm32f1xx_hal.o
 .debug_info    0x0000966e     0x103e /workspaces/qgv/hoverboard-firmware-hack-FOC/build/stm32f1xx_hal_adc.o
 .debug_info    0x0000a6ac     0x1a06 /workspaces/qgv/hoverboard-firmware-hack-FOC/build/stm32f1xx_hal_uart.o
 .debug_info    0x0000c0b2      0x8ca /workspaces/qgv/hoverboard-firmware-hack-FOC/build/stm32f1xx_hal_dma.o
 .debug_info    0x0000c97c      0x447 /workspaces/qgv/hoverboard-firmware-hack-FOC/build/system_stm32f1xx.o
 .debug_info    0x0000cdc3     0x248a /workspaces/qgv/hoverboard-firmware-hack-FOC/build/setup.o
 .debug_info    0x0000f24d      0xd16 /workspaces/qgv/hoverboard-firmware-hack-FOC/build/control.o
 .debug_info    0x0000ff63     0x2939 /workspaces/qgv/hoverboard-firmware-hack-FOC/build/util.o
 .debug_info    0x0001289c     0x1f9f /workspaces/qgv/hoverboard-firmware-hack-FOC/build/main.o
 .debug_info    0x0001483b     0x136a /workspaces/qgv/hoverboard-firmware-hack-FOC/build/bldc.o
 .debug_info    0x00015ba5      0x9ce /workspaces/qgv/hoverboard-firmware-hack-FOC/build/eeprom.o
 .debug_info    0x00016573      0x774 /workspaces/qgv/hoverboard-firmware-hack-FOC/build/stm32f1xx_it.o
 .debug_info    0x00016ce7      0x485 /workspaces/qgv/hoverboard-firmware-hack-FOC/build/BLDC_controller_data.o
 .debug_info    0x0001716c     0x1eb5 /workspaces/qgv/hoverboard-firmware-hack-FOC/build/BLDC_controller.o
 .debug_info    0x00019021       0x30 /workspaces/qgv/hoverboard-firmware-hack-FOC/build/startup_stm32f103xe.o
 .debug_info    0x00019051      0x10b /usr/lib/gcc/arm-none-eabi/13.2.1/../../../arm-none-eabi/lib/thumb/v7-m/nofp/libc_nano.a(libc_a-init.o)
 .debug_info    0x0001915c      0x135 /usr/lib/gcc/arm-none-eabi/13.2.1/../../../arm-none-eabi/lib/thumb/v7-m/nofp/libc_nano.a(libc_a-memset.o)
 .debug_info    0x00019291       0x33 /usr/lib/gcc/arm-none-eabi/13.2.1/../../../arm-none-eabi/lib/thumb/v7-m/nofp/libc_nano.a(libc_a-memcpy.o)
 .debug_info    0x000192c4      0x837 /usr/lib/gcc/arm-none-eabi/13.2.1/../../../arm-none-eabi/lib/thumb/v7-m/nofp/libc_nano.a(libc_a-printf.o)
 .debug_info    0x00019afb     0x108a /usr/lib/gcc/arm-none-eabi/13.2.1/../../../arm-none-eabi/lib/thumb/v7-m/nofp/libc_nano.a(libc_a-nano-vfprintf.o)
 .debug_info    0x0001ab85      0x863 /usr/lib/gcc/arm-none-eabi/13.2.1/../../../arm-none-eabi/lib/thumb/v7-m/nofp/libc_nano.a(libc_a-wbuf.o)
 .debug_info    0x0001b3e8      0x70b /usr/lib/gcc/arm-none-eabi/13.2.1/../../../arm-none-eabi/lib/thumb/v7-m/nofp/libc_nano.a(libc_a-impure.o)
 .debug_info    0x0001baf3      0xb1e /usr/lib/gcc/arm-none-eabi/13.2.1/../../../arm-none-eabi/lib/thumb/v7-m/nofp/libc_nano.a(libc_a-fvwrite.o)
 .debug_info    0x0001c611      0xe8c /usr/lib/gcc/arm-none-eabi/13.2.1/../../../arm-none-eabi/lib/thumb/v7-m/nofp/libc_nano.a(libc_a-findfp.o)
 .debug_info    0x0001d49d      0xa30 /usr/lib/gcc/arm-none-eabi/13.2.1/../../../arm-none-eabi/lib/thumb/v7-m/nofp/libc_nano.a(libc_a-fflush.o)
 .debug_info    0x0001decd      0x9b6 /usr/lib/gcc/arm-none-eabi/13.2.1/../../../arm-none-eabi/lib/thumb/v7-m/nofp/libc_nano.a(libc_a-mallocr.o)
 .debug_info    0x0001e883      0x87f /usr/lib/gcc/arm-none-eabi/13.2.1/../../../arm-none-eabi/lib/thumb/v7-m/nofp/libc_nano.a(libc_a-freer.o)
 .debug_info    0x0001f102      0x148 /usr/lib/gcc/arm-none-eabi/13.2.1/../../../arm-none-eabi/lib/thumb/v7-m/nofp/libc_nano.a(libc_a-memmove.o)
 .debug_info    0x0001f24a      0x7c8 /usr/lib/gcc/arm-none-eabi/13.2.1/../../../arm-none-eabi/lib/thumb/v7-m/nofp/libc_nano.a(libc_a-fwalk.o)
 .debug_info    0x0001fa12      0x7b1 /usr/lib/gcc/arm-none-eabi/13.2.1/../../../arm-none-eabi/lib/thumb/v7-m/nofp/libc_nano.a(libc_a-wsetup.o)
 .debug_info    0x000201c3      0x8cd /usr/lib/gcc/arm-none-eabi/13.2.1/../../../arm-none-eabi/lib/thumb/v7-m/nofp/libc_nano.a(libc_a-reallocr.o)
 .debug_info    0x00020a90      0xdd7 /usr/lib/gcc/arm-none-eabi/13.2.1/../../../arm-none-eabi/lib/thumb/v7-m/nofp/libc_nano.a(libc_a-nano-vfprintf_i.o)
 .debug_info    0x00021867      0x71c /usr/lib/gcc/arm-none-eabi/13.2.1/../../../arm-none-eabi/lib/thumb/v7-m/nofp/libc_nano.a(libc_a-mlock.o)
 .debug_info    0x00021f83      0xbe6 /usr/lib/gcc/arm-none-eabi/13.2.1/../../../arm-none-eabi/lib/thumb/v7-m/nofp/libc_nano.a(libc_a-makebuf.o)
 .debug_info    0x00022b69      0x14a /usr/lib/gcc/arm-none-eabi/13.2.1/../../../arm-none-eabi/lib/thumb/v7-m/nofp/libc_nano.a(libc_a-memchr-stub.o)
 .debug_info    0x00022cb3      0x752 /usr/lib/gcc/arm-none-eabi/13.2.1/../../../arm-none-eabi/lib/thumb/v7-m/nofp/libc_nano.a(libc_a-isattyr.o)
 .debug_info    0x00023405      0x778 /usr/lib/gcc/arm-none-eabi/13.2.1/../../../arm-none-eabi/lib/thumb/v7-m/nofp/libc_nano.a(libc_a-sbrkr.o)
 .debug_info    0x00023b7d      0xa80 /usr/lib/gcc/arm-none-eabi/13.2.1/../../../arm-none-eabi/lib/thumb/v7-m/nofp/libc_nano.a(libc_a-stdio.o)
 .debug_info    0x000245fd      0x78a /usr/lib/gcc/arm-none-eabi/13.2.1/../../../arm-none-eabi/lib/thumb/v7-m/nofp/libc_nano.a(libc_a-msizer.o)
 .debug_info    0x00024d87      0x752 /usr/lib/gcc/arm-none-eabi/13.2.1/../../../arm-none-eabi/lib/thumb/v7-m/nofp/libc_nano.a(libc_a-closer.o)
 .debug_info    0x000254d9      0x7b5 /usr/lib/gcc/arm-none-eabi/13.2.1/../../../arm-none-eabi/lib/thumb/v7-m/nofp/libc_nano.a(libc_a-readr.o)
 .debug_info    0x00025c8e      0x89f /usr/lib/gcc/arm-none-eabi/13.2.1/../../../arm-none-eabi/lib/thumb/v7-m/nofp/libc_nano.a(libc_a-reent.o)
 .debug_info    0x0002652d      0x977 /usr/lib/gcc/arm-none-eabi/13.2.1/../../../arm-none-eabi/lib/thumb/v7-m/nofp/libc_nano.a(libc_a-fstatr.o)
 .debug_info    0x00026ea4      0x79e /usr/lib/gcc/arm-none-eabi/13.2.1/../../../arm-none-eabi/lib/thumb/v7-m/nofp/libc_nano.a(libc_a-lseekr.o)
 .debug_info    0x00027642      0x7bb /usr/lib/gcc/arm-none-eabi/13.2.1/../../../arm-none-eabi/lib/thumb/v7-m/nofp/libc_nano.a(libc_a-writer.o)
 .debug_info    0x00027dfd       0xde /usr/lib/gcc/arm-none-eabi/13.2.1/../../../arm-none-eabi/lib/thumb/v7-m/nofp/libnosys.a(close.o)
 .debug_info    0x00027edb      0x2f7 /usr/lib/gcc/arm-none-eabi/13.2.1/../../../arm-none-eabi/lib/thumb/v7-m/nofp/libnosys.a(fstat.o)
 .debug_info    0x000281d2       0xde /usr/lib/gcc/arm-none-eabi/13.2.1/../../../arm-none-eabi/lib/thumb/v7-m/nofp/libnosys.a(isatty.o)
 .debug_info    0x000282b0      0x100 /usr/lib/gcc/arm-none-eabi/13.2.1/../../../arm-none-eabi/lib/thumb/v7-m/nofp/libnosys.a(lseek.o)
 .debug_info    0x000283b0      0x106 /usr/lib/gcc/arm-none-eabi/13.2.1/../../../arm-none-eabi/lib/thumb/v7-m/nofp/libnosys.a(read.o)
 .debug_info    0x000284b6       0xac /usr/lib/gcc/arm-none-eabi/13.2.1/../../../arm-none-eabi/lib/thumb/v7-m/nofp/libnosys.a(sbrk.o)
 .debug_info    0x00028562      0x106 /usr/lib/gcc/arm-none-eabi/13.2.1/../../../arm-none-eabi/lib/thumb/v7-m/nofp/libnosys.a(write.o)

.debug_abbrev   0x00000000     0x746a
 .debug_abbrev  0x00000000      0x267 /workspaces/qgv/hoverboard-firmware-hack-FOC/build/stm32f1xx_hal_flash.o
 .debug_abbrev  0x00000267      0x2c9 /workspaces/qgv/hoverboard-firmware-hack-FOC/build/stm32f1xx_hal_rcc.o
 .debug_abbrev  0x00000530      0x2dd /workspaces/qgv/hoverboard-firmware-hack-FOC/build/stm32f1xx_hal_tim.o
 .debug_abbrev  0x0000080d      0x296 /workspaces/qgv/hoverboard-firmware-hack-FOC/build/stm32f1xx_hal_tim_ex.o
 .debug_abbrev  0x00000aa3      0x2a1 /workspaces/qgv/hoverboard-firmware-hack-FOC/build/stm32f1xx_hal_adc_ex.o
 .debug_abbrev  0x00000d44      0x38d /workspaces/qgv/hoverboard-firmware-hack-FOC/build/stm32f1xx_hal_cortex.o
 .debug_abbrev  0x000010d1      0x297 /workspaces/qgv/hoverboard-firmware-hack-FOC/build/stm32f1xx_hal_flash_ex.o
 .debug_abbrev  0x00001368      0x22b /workspaces/qgv/hoverboard-firmware-hack-FOC/build/stm32f1xx_hal_gpio.o
 .debug_abbrev  0x00001593      0x1d4 /workspaces/qgv/hoverboard-firmware-hack-FOC/build/stm32f1xx_hal_rcc_ex.o
 .debug_abbrev  0x00001767      0x24e /workspaces/qgv/hoverboard-firmware-hack-FOC/build/stm32f1xx_hal.o
 .debug_abbrev  0x000019b5      0x282 /workspaces/qgv/hoverboard-firmware-hack-FOC/build/stm32f1xx_hal_adc.o
 .debug_abbrev  0x00001c37      0x2df /workspaces/qgv/hoverboard-firmware-hack-FOC/build/stm32f1xx_hal_uart.o
 .debug_abbrev  0x00001f16      0x261 /workspaces/qgv/hoverboard-firmware-hack-FOC/build/stm32f1xx_hal_dma.o
 .debug_abbrev  0x00002177      0x140 /workspaces/qgv/hoverboard-firmware-hack-FOC/build/system_stm32f1xx.o
 .debug_abbrev  0x000022b7      0x26e /workspaces/qgv/hoverboard-firmware-hack-FOC/build/setup.o
 .debug_abbrev  0x00002525      0x269 /workspaces/qgv/hoverboard-firmware-hack-FOC/build/control.o
 .debug_abbrev  0x0000278e      0x3cd /workspaces/qgv/hoverboard-firmware-hack-FOC/build/util.o
 .debug_abbrev  0x00002b5b      0x2b7 /workspaces/qgv/hoverboard-firmware-hack-FOC/build/main.o
 .debug_abbrev  0x00002e12      0x21f /workspaces/qgv/hoverboard-firmware-hack-FOC/build/bldc.o
 .debug_abbrev  0x00003031      0x1e9 /workspaces/qgv/hoverboard-firmware-hack-FOC/build/eeprom.o
 .debug_abbrev  0x0000321a      0x1d8 /workspaces/qgv/hoverboard-firmware-hack-FOC/build/stm32f1xx_it.o
 .debug_abbrev  0x000033f2       0xd4 /workspaces/qgv/hoverboard-firmware-hack-FOC/build/BLDC_controller_data.o
 .debug_abbrev  0x000034c6      0x2b0 /workspaces/qgv/hoverboard-firmware-hack-FOC/build/BLDC_controller.o
 .debug_abbrev  0x00003776       0x1d /workspaces/qgv/hoverboard-firmware-hack-FOC/build/startup_stm32f103xe.o
 .debug_abbrev  0x00003793       0xc9 /usr/lib/gcc/arm-none-eabi/13.2.1/../../../arm-none-eabi/lib/thumb/v7-m/nofp/libc_nano.a(libc_a-init.o)
 .debug_abbrev  0x0000385c       0xb7 /usr/lib/gcc/arm-none-eabi/13.2.1/../../../arm-none-eabi/lib/thumb/v7-m/nofp/libc_nano.a(libc_a-memset.o)
 .debug_abbrev  0x00003913       0x28 /usr/lib/gcc/arm-none-eabi/13.2.1/../../../arm-none-eabi/lib/thumb/v7-m/nofp/libc_nano.a(libc_a-memcpy.o)
 .debug_abbrev  0x0000393b      0x21a /usr/lib/gcc/arm-none-eabi/13.2.1/../../../arm-none-eabi/lib/thumb/v7-m/nofp/libc_nano.a(libc_a-printf.o)
 .debug_abbrev  0x00003b55      0x36e /usr/lib/gcc/arm-none-eabi/13.2.1/../../../arm-none-eabi/lib/thumb/v7-m/nofp/libc_nano.a(libc_a-nano-vfprintf.o)
 .debug_abbrev  0x00003ec3      0x236 /usr/lib/gcc/arm-none-eabi/13.2.1/../../../arm-none-eabi/lib/thumb/v7-m/nofp/libc_nano.a(libc_a-wbuf.o)
 .debug_abbrev  0x000040f9      0x149 /usr/lib/gcc/arm-none-eabi/13.2.1/../../../arm-none-eabi/lib/thumb/v7-m/nofp/libc_nano.a(libc_a-impure.o)
 .debug_abbrev  0x00004242      0x224 /usr/lib/gcc/arm-none-eabi/13.2.1/../../../arm-none-eabi/lib/thumb/v7-m/nofp/libc_nano.a(libc_a-fvwrite.o)
 .debug_abbrev  0x00004466      0x408 /usr/lib/gcc/arm-none-eabi/13.2.1/../../../arm-none-eabi/lib/thumb/v7-m/nofp/libc_nano.a(libc_a-findfp.o)
 .debug_abbrev  0x0000486e      0x2e1 /usr/lib/gcc/arm-none-eabi/13.2.1/../../../arm-none-eabi/lib/thumb/v7-m/nofp/libc_nano.a(libc_a-fflush.o)
 .debug_abbrev  0x00004b4f      0x24a /usr/lib/gcc/arm-none-eabi/13.2.1/../../../arm-none-eabi/lib/thumb/v7-m/nofp/libc_nano.a(libc_a-mallocr.o)
 .debug_abbrev  0x00004d99      0x249 /usr/lib/gcc/arm-none-eabi/13.2.1/../../../arm-none-eabi/lib/thumb/v7-m/nofp/libc_nano.a(libc_a-freer.o)
 .debug_abbrev  0x00004fe2       0xc3 /usr/lib/gcc/arm-none-eabi/13.2.1/../../../arm-none-eabi/lib/thumb/v7-m/nofp/libc_nano.a(libc_a-memmove.o)
 .debug_abbrev  0x000050a5      0x19b /usr/lib/gcc/arm-none-eabi/13.2.1/../../../arm-none-eabi/lib/thumb/v7-m/nofp/libc_nano.a(libc_a-fwalk.o)
 .debug_abbrev  0x00005240      0x1e2 /usr/lib/gcc/arm-none-eabi/13.2.1/../../../arm-none-eabi/lib/thumb/v7-m/nofp/libc_nano.a(libc_a-wsetup.o)
 .debug_abbrev  0x00005422      0x20c /usr/lib/gcc/arm-none-eabi/13.2.1/../../../arm-none-eabi/lib/thumb/v7-m/nofp/libc_nano.a(libc_a-reallocr.o)
 .debug_abbrev  0x0000562e      0x284 /usr/lib/gcc/arm-none-eabi/13.2.1/../../../arm-none-eabi/lib/thumb/v7-m/nofp/libc_nano.a(libc_a-nano-vfprintf_i.o)
 .debug_abbrev  0x000058b2      0x192 /usr/lib/gcc/arm-none-eabi/13.2.1/../../../arm-none-eabi/lib/thumb/v7-m/nofp/libc_nano.a(libc_a-mlock.o)
 .debug_abbrev  0x00005a44      0x29d /usr/lib/gcc/arm-none-eabi/13.2.1/../../../arm-none-eabi/lib/thumb/v7-m/nofp/libc_nano.a(libc_a-makebuf.o)
 .debug_abbrev  0x00005ce1       0xc7 /usr/lib/gcc/arm-none-eabi/13.2.1/../../../arm-none-eabi/lib/thumb/v7-m/nofp/libc_nano.a(libc_a-memchr-stub.o)
 .debug_abbrev  0x00005da8      0x1b0 /usr/lib/gcc/arm-none-eabi/13.2.1/../../../arm-none-eabi/lib/thumb/v7-m/nofp/libc_nano.a(libc_a-isattyr.o)
 .debug_abbrev  0x00005f58      0x1da /usr/lib/gcc/arm-none-eabi/13.2.1/../../../arm-none-eabi/lib/thumb/v7-m/nofp/libc_nano.a(libc_a-sbrkr.o)
 .debug_abbrev  0x00006132      0x224 /usr/lib/gcc/arm-none-eabi/13.2.1/../../../arm-none-eabi/lib/thumb/v7-m/nofp/libc_nano.a(libc_a-stdio.o)
 .debug_abbrev  0x00006356      0x196 /usr/lib/gcc/arm-none-eabi/13.2.1/../../../arm-none-eabi/lib/thumb/v7-m/nofp/libc_nano.a(libc_a-msizer.o)
 .debug_abbrev  0x000064ec      0x1b0 /usr/lib/gcc/arm-none-eabi/13.2.1/../../../arm-none-eabi/lib/thumb/v7-m/nofp/libc_nano.a(libc_a-closer.o)
 .debug_abbrev  0x0000669c      0x1b0 /usr/lib/gcc/arm-none-eabi/13.2.1/../../../arm-none-eabi/lib/thumb/v7-m/nofp/libc_nano.a(libc_a-readr.o)
 .debug_abbrev  0x0000684c      0x1ee /usr/lib/gcc/arm-none-eabi/13.2.1/../../../arm-none-eabi/lib/thumb/v7-m/nofp/libc_nano.a(libc_a-reent.o)
 .debug_abbrev  0x00006a3a      0x1c3 /usr/lib/gcc/arm-none-eabi/13.2.1/../../../arm-none-eabi/lib/thumb/v7-m/nofp/libc_nano.a(libc_a-fstatr.o)
 .debug_abbrev  0x00006bfd      0x1c4 /usr/lib/gcc/arm-none-eabi/13.2.1/../../../arm-none-eabi/lib/thumb/v7-m/nofp/libc_nano.a(libc_a-lseekr.o)
 .debug_abbrev  0x00006dc1      0x1b5 /usr/lib/gcc/arm-none-eabi/13.2.1/../../../arm-none-eabi/lib/thumb/v7-m/nofp/libc_nano.a(libc_a-writer.o)
 .debug_abbrev  0x00006f76       0x96 /usr/lib/gcc/arm-none-eabi/13.2.1/../../../arm-none-eabi/lib/thumb/v7-m/nofp/libnosys.a(close.o)
 .debug_abbrev  0x0000700c       0xe4 /usr/lib/gcc/arm-none-eabi/13.2.1/../../../arm-none-eabi/lib/thumb/v7-m/nofp/libnosys.a(fstat.o)
 .debug_abbrev  0x000070f0       0x96 /usr/lib/gcc/arm-none-eabi/13.2.1/../../../arm-none-eabi/lib/thumb/v7-m/nofp/libnosys.a(isatty.o)
 .debug_abbrev  0x00007186       0xbb /usr/lib/gcc/arm-none-eabi/13.2.1/../../../arm-none-eabi/lib/thumb/v7-m/nofp/libnosys.a(lseek.o)
 .debug_abbrev  0x00007241       0xc4 /usr/lib/gcc/arm-none-eabi/13.2.1/../../../arm-none-eabi/lib/thumb/v7-m/nofp/libnosys.a(read.o)
 .debug_abbrev  0x00007305       0xa1 /usr/lib/gcc/arm-none-eabi/13.2.1/../../../arm-none-eabi/lib/thumb/v7-m/nofp/libnosys.a(sbrk.o)
 .debug_abbrev  0x000073a6       0xc4 /usr/lib/gcc/arm-none-eabi/13.2.1/../../../arm-none-eabi/lib/thumb/v7-m/nofp/libnosys.a(write.o)

.debug_loc      0x00000000    0x11693
 .debug_loc     0x00000000      0x458 /workspaces/qgv/hoverboard-firmware-hack-FOC/build/stm32f1xx_hal_flash.o
 .debug_loc     0x00000458      0x744 /workspaces/qgv/hoverboard-firmware-hack-FOC/build/stm32f1xx_hal_rcc.o
 .debug_loc     0x00000b9c     0x461e /workspaces/qgv/hoverboard-firmware-hack-FOC/build/stm32f1xx_hal_tim.o
 .debug_loc     0x000051ba     0x145c /workspaces/qgv/hoverboard-firmware-hack-FOC/build/stm32f1xx_hal_tim_ex.o
 .debug_loc     0x00006616      0xc2b /workspaces/qgv/hoverboard-firmware-hack-FOC/build/stm32f1xx_hal_adc_ex.o
 .debug_loc     0x00007241      0x894 /workspaces/qgv/hoverboard-firmware-hack-FOC/build/stm32f1xx_hal_cortex.o
 .debug_loc     0x00007ad5      0x9ec /workspaces/qgv/hoverboard-firmware-hack-FOC/build/stm32f1xx_hal_flash_ex.o
 .debug_loc     0x000084c1      0x5db /workspaces/qgv/hoverboard-firmware-hack-FOC/build/stm32f1xx_hal_gpio.o
 .debug_loc     0x00008a9c      0x4b6 /workspaces/qgv/hoverboard-firmware-hack-FOC/build/stm32f1xx_hal_rcc_ex.o
 .debug_loc     0x00008f52      0x12a /workspaces/qgv/hoverboard-firmware-hack-FOC/build/stm32f1xx_hal.o
 .debug_loc     0x0000907c      0xef2 /workspaces/qgv/hoverboard-firmware-hack-FOC/build/stm32f1xx_hal_adc.o
 .debug_loc     0x00009f6e     0x1e7c /workspaces/qgv/hoverboard-firmware-hack-FOC/build/stm32f1xx_hal_uart.o
 .debug_loc     0x0000bdea      0x973 /workspaces/qgv/hoverboard-firmware-hack-FOC/build/stm32f1xx_hal_dma.o
 .debug_loc     0x0000c75d      0x11b /workspaces/qgv/hoverboard-firmware-hack-FOC/build/system_stm32f1xx.o
 .debug_loc     0x0000c878      0x262 /workspaces/qgv/hoverboard-firmware-hack-FOC/build/setup.o
 .debug_loc     0x0000cada      0x326 /workspaces/qgv/hoverboard-firmware-hack-FOC/build/control.o
 .debug_loc     0x0000ce00     0x115a /workspaces/qgv/hoverboard-firmware-hack-FOC/build/util.o
 .debug_loc     0x0000df5a       0xf7 /workspaces/qgv/hoverboard-firmware-hack-FOC/build/main.o
 .debug_loc     0x0000e051      0x264 /workspaces/qgv/hoverboard-firmware-hack-FOC/build/bldc.o
 .debug_loc     0x0000e2b5      0xc6d /workspaces/qgv/hoverboard-firmware-hack-FOC/build/eeprom.o
 .debug_loc     0x0000ef22       0xa4 /workspaces/qgv/hoverboard-firmware-hack-FOC/build/stm32f1xx_it.o
 .debug_loc     0x0000efc6     0x26cd /workspaces/qgv/hoverboard-firmware-hack-FOC/build/BLDC_controller.o

.debug_aranges  0x00000000     0x14b8
 .debug_aranges
                0x00000000       0x88 /workspaces/qgv/hoverboard-firmware-hack-FOC/build/stm32f1xx_hal_flash.o
 .debug_aranges
                0x00000088       0x90 /workspaces/qgv/hoverboard-firmware-hack-FOC/build/stm32f1xx_hal_rcc.o
 .debug_aranges
                0x00000118      0x368 /workspaces/qgv/hoverboard-firmware-hack-FOC/build/stm32f1xx_hal_tim.o
 .debug_aranges
                0x00000480      0x138 /workspaces/qgv/hoverboard-firmware-hack-FOC/build/stm32f1xx_hal_tim_ex.o
 .debug_aranges
                0x000005b8       0x80 /workspaces/qgv/hoverboard-firmware-hack-FOC/build/stm32f1xx_hal_adc_ex.o
 .debug_aranges
                0x00000638       0xb8 /workspaces/qgv/hoverboard-firmware-hack-FOC/build/stm32f1xx_hal_cortex.o
 .debug_aranges
                0x000006f0       0x98 /workspaces/qgv/hoverboard-firmware-hack-FOC/build/stm32f1xx_hal_flash_ex.o
 .debug_aranges
                0x00000788       0x58 /workspaces/qgv/hoverboard-firmware-hack-FOC/build/stm32f1xx_hal_gpio.o
 .debug_aranges
                0x000007e0       0x30 /workspaces/qgv/hoverboard-firmware-hack-FOC/build/stm32f1xx_hal_rcc_ex.o
 .debug_aranges
                0x00000810       0xb8 /workspaces/qgv/hoverboard-firmware-hack-FOC/build/stm32f1xx_hal.o
 .debug_aranges
                0x000008c8       0xf0 /workspaces/qgv/hoverboard-firmware-hack-FOC/build/stm32f1xx_hal_adc.o
 .debug_aranges
                0x000009b8      0x1d0 /workspaces/qgv/hoverboard-firmware-hack-FOC/build/stm32f1xx_hal_uart.o
 .debug_aranges
                0x00000b88       0x80 /workspaces/qgv/hoverboard-firmware-hack-FOC/build/stm32f1xx_hal_dma.o
 .debug_aranges
                0x00000c08       0x28 /workspaces/qgv/hoverboard-firmware-hack-FOC/build/system_stm32f1xx.o
 .debug_aranges
                0x00000c30       0x58 /workspaces/qgv/hoverboard-firmware-hack-FOC/build/setup.o
 .debug_aranges
                0x00000c88       0x40 /workspaces/qgv/hoverboard-firmware-hack-FOC/build/control.o
 .debug_aranges
                0x00000cc8      0x118 /workspaces/qgv/hoverboard-firmware-hack-FOC/build/util.o
 .debug_aranges
                0x00000de0       0x28 /workspaces/qgv/hoverboard-firmware-hack-FOC/build/main.o
 .debug_aranges
                0x00000e08       0x20 /workspaces/qgv/hoverboard-firmware-hack-FOC/build/bldc.o
 .debug_aranges
                0x00000e28       0x58 /workspaces/qgv/hoverboard-firmware-hack-FOC/build/eeprom.o
 .debug_aranges
                0x00000e80       0x78 /workspaces/qgv/hoverboard-firmware-hack-FOC/build/stm32f1xx_it.o
 .debug_aranges
                0x00000ef8       0x18 /workspaces/qgv/hoverboard-firmware-hack-FOC/build/BLDC_controller_data.o
 .debug_aranges
                0x00000f10       0xe8 /workspaces/qgv/hoverboard-firmware-hack-FOC/build/BLDC_controller.o
 .debug_aranges
                0x00000ff8       0x28 /workspaces/qgv/hoverboard-firmware-hack-FOC/build/startup_stm32f103xe.o
 .debug_aranges
                0x00001020       0x20 /usr/lib/gcc/arm-none-eabi/13.2.1/../../../arm-none-eabi/lib/thumb/v7-m/nofp/libc_nano.a(libc_a-init.o)
 .debug_aranges
                0x00001040       0x20 /usr/lib/gcc/arm-none-eabi/13.2.1/../../../arm-none-eabi/lib/thumb/v7-m/nofp/libc_nano.a(libc_a-memset.o)
 .debug_aranges
                0x00001060       0x20 /usr/lib/gcc/arm-none-eabi/13.2.1/../../../arm-none-eabi/lib/thumb/v7-m/nofp/libc_nano.a(libc_a-memcpy.o)
 .debug_aranges
                0x00001080       0x20 /usr/lib/gcc/arm-none-eabi/13.2.1/../../../arm-none-eabi/lib/thumb/v7-m/nofp/libc_nano.a(libc_a-printf.o)
 .debug_aranges
                0x000010a0       0x20 /usr/lib/gcc/arm-none-eabi/13.2.1/../../../arm-none-eabi/lib/thumb/v7-m/nofp/libc_nano.a(libc_a-nano-vfprintf.o)
 .debug_aranges
                0x000010c0       0x20 /usr/lib/gcc/arm-none-eabi/13.2.1/../../../arm-none-eabi/lib/thumb/v7-m/nofp/libc_nano.a(libc_a-wbuf.o)
 .debug_aranges
                0x000010e0       0x18 /usr/lib/gcc/arm-none-eabi/13.2.1/../../../arm-none-eabi/lib/thumb/v7-m/nofp/libc_nano.a(libc_a-impure.o)
 .debug_aranges
                0x000010f8       0x20 /usr/lib/gcc/arm-none-eabi/13.2.1/../../../arm-none-eabi/lib/thumb/v7-m/nofp/libc_nano.a(libc_a-fvwrite.o)
 .debug_aranges
                0x00001118       0x20 /usr/lib/gcc/arm-none-eabi/13.2.1/../../../arm-none-eabi/lib/thumb/v7-m/nofp/libc_nano.a(libc_a-findfp.o)
 .debug_aranges
                0x00001138       0x20 /usr/lib/gcc/arm-none-eabi/13.2.1/../../../arm-none-eabi/lib/thumb/v7-m/nofp/libc_nano.a(libc_a-fflush.o)
 .debug_aranges
                0x00001158       0x20 /usr/lib/gcc/arm-none-eabi/13.2.1/../../../arm-none-eabi/lib/thumb/v7-m/nofp/libc_nano.a(libc_a-mallocr.o)
 .debug_aranges
                0x00001178       0x20 /usr/lib/gcc/arm-none-eabi/13.2.1/../../../arm-none-eabi/lib/thumb/v7-m/nofp/libc_nano.a(libc_a-freer.o)
 .debug_aranges
                0x00001198       0x20 /usr/lib/gcc/arm-none-eabi/13.2.1/../../../arm-none-eabi/lib/thumb/v7-m/nofp/libc_nano.a(libc_a-memmove.o)
 .debug_aranges
                0x000011b8       0x20 /usr/lib/gcc/arm-none-eabi/13.2.1/../../../arm-none-eabi/lib/thumb/v7-m/nofp/libc_nano.a(libc_a-fwalk.o)
 .debug_aranges
                0x000011d8       0x20 /usr/lib/gcc/arm-none-eabi/13.2.1/../../../arm-none-eabi/lib/thumb/v7-m/nofp/libc_nano.a(libc_a-wsetup.o)
 .debug_aranges
                0x000011f8       0x20 /usr/lib/gcc/arm-none-eabi/13.2.1/../../../arm-none-eabi/lib/thumb/v7-m/nofp/libc_nano.a(libc_a-reallocr.o)
 .debug_aranges
                0x00001218       0x20 /usr/lib/gcc/arm-none-eabi/13.2.1/../../../arm-none-eabi/lib/thumb/v7-m/nofp/libc_nano.a(libc_a-nano-vfprintf_i.o)
 .debug_aranges
                0x00001238       0x20 /usr/lib/gcc/arm-none-eabi/13.2.1/../../../arm-none-eabi/lib/thumb/v7-m/nofp/libc_nano.a(libc_a-mlock.o)
 .debug_aranges
                0x00001258       0x20 /usr/lib/gcc/arm-none-eabi/13.2.1/../../../arm-none-eabi/lib/thumb/v7-m/nofp/libc_nano.a(libc_a-makebuf.o)
 .debug_aranges
                0x00001278       0x20 /usr/lib/gcc/arm-none-eabi/13.2.1/../../../arm-none-eabi/lib/thumb/v7-m/nofp/libc_nano.a(libc_a-memchr-stub.o)
 .debug_aranges
                0x00001298       0x20 /usr/lib/gcc/arm-none-eabi/13.2.1/../../../arm-none-eabi/lib/thumb/v7-m/nofp/libc_nano.a(libc_a-isattyr.o)
 .debug_aranges
                0x000012b8       0x20 /usr/lib/gcc/arm-none-eabi/13.2.1/../../../arm-none-eabi/lib/thumb/v7-m/nofp/libc_nano.a(libc_a-sbrkr.o)
 .debug_aranges
                0x000012d8       0x20 /usr/lib/gcc/arm-none-eabi/13.2.1/../../../arm-none-eabi/lib/thumb/v7-m/nofp/libc_nano.a(libc_a-stdio.o)
 .debug_aranges
                0x000012f8       0x20 /usr/lib/gcc/arm-none-eabi/13.2.1/../../../arm-none-eabi/lib/thumb/v7-m/nofp/libc_nano.a(libc_a-msizer.o)
 .debug_aranges
                0x00001318       0x20 /usr/lib/gcc/arm-none-eabi/13.2.1/../../../arm-none-eabi/lib/thumb/v7-m/nofp/libc_nano.a(libc_a-closer.o)
 .debug_aranges
                0x00001338       0x20 /usr/lib/gcc/arm-none-eabi/13.2.1/../../../arm-none-eabi/lib/thumb/v7-m/nofp/libc_nano.a(libc_a-readr.o)
 .debug_aranges
                0x00001358       0x20 /usr/lib/gcc/arm-none-eabi/13.2.1/../../../arm-none-eabi/lib/thumb/v7-m/nofp/libc_nano.a(libc_a-reent.o)
 .debug_aranges
                0x00001378       0x20 /usr/lib/gcc/arm-none-eabi/13.2.1/../../../arm-none-eabi/lib/thumb/v7-m/nofp/libc_nano.a(libc_a-fstatr.o)
 .debug_aranges
                0x00001398       0x20 /usr/lib/gcc/arm-none-eabi/13.2.1/../../../arm-none-eabi/lib/thumb/v7-m/nofp/libc_nano.a(libc_a-lseekr.o)
 .debug_aranges
                0x000013b8       0x20 /usr/lib/gcc/arm-none-eabi/13.2.1/../../../arm-none-eabi/lib/thumb/v7-m/nofp/libc_nano.a(libc_a-writer.o)
 .debug_aranges
                0x000013d8       0x20 /usr/lib/gcc/arm-none-eabi/13.2.1/../../../arm-none-eabi/lib/thumb/v7-m/nofp/libnosys.a(close.o)
 .debug_aranges
                0x000013f8       0x20 /usr/lib/gcc/arm-none-eabi/13.2.1/../../../arm-none-eabi/lib/thumb/v7-m/nofp/libnosys.a(fstat.o)
 .debug_aranges
                0x00001418       0x20 /usr/lib/gcc/arm-none-eabi/13.2.1/../../../arm-none-eabi/lib/thumb/v7-m/nofp/libnosys.a(isatty.o)
 .debug_aranges
                0x00001438       0x20 /usr/lib/gcc/arm-none-eabi/13.2.1/../../../arm-none-eabi/lib/thumb/v7-m/nofp/libnosys.a(lseek.o)
 .debug_aranges
                0x00001458       0x20 /usr/lib/gcc/arm-none-eabi/13.2.1/../../../arm-none-eabi/lib/thumb/v7-m/nofp/libnosys.a(read.o)
 .debug_aranges
                0x00001478       0x20 /usr/lib/gcc/arm-none-eabi/13.2.1/../../../arm-none-eabi/lib/thumb/v7-m/nofp/libnosys.a(sbrk.o)
 .debug_aranges
                0x00001498       0x20 /usr/lib/gcc/arm-none-eabi/13.2.1/../../../arm-none-eabi/lib/thumb/v7-m/nofp/libnosys.a(write.o)

.debug_ranges   0x00000000      0xf08
 .debug_ranges  0x00000000       0x78 /workspaces/qgv/hoverboard-firmware-hack-FOC/build/stm32f1xx_hal_flash.o
 .debug_ranges  0x00000078       0xa0 /workspaces/qgv/hoverboard-firmware-hack-FOC/build/stm32f1xx_hal_rcc.o
 .debug_ranges  0x00000118      0x358 /workspaces/qgv/hoverboard-firmware-hack-FOC/build/stm32f1xx_hal_tim.o
 .debug_ranges  0x00000470      0x128 /workspaces/qgv/hoverboard-firmware-hack-FOC/build/stm32f1xx_hal_tim_ex.o
 .debug_ranges  0x00000598       0x70 /workspaces/qgv/hoverboard-firmware-hack-FOC/build/stm32f1xx_hal_adc_ex.o
 .debug_ranges  0x00000608       0xa8 /workspaces/qgv/hoverboard-firmware-hack-FOC/build/stm32f1xx_hal_cortex.o
 .debug_ranges  0x000006b0       0x88 /workspaces/qgv/hoverboard-firmware-hack-FOC/build/stm32f1xx_hal_flash_ex.o
 .debug_ranges  0x00000738       0x48 /workspaces/qgv/hoverboard-firmware-hack-FOC/build/stm32f1xx_hal_gpio.o
 .debug_ranges  0x00000780       0x38 /workspaces/qgv/hoverboard-firmware-hack-FOC/build/stm32f1xx_hal_rcc_ex.o
 .debug_ranges  0x000007b8       0xa8 /workspaces/qgv/hoverboard-firmware-hack-FOC/build/stm32f1xx_hal.o
 .debug_ranges  0x00000860       0xe0 /workspaces/qgv/hoverboard-firmware-hack-FOC/build/stm32f1xx_hal_adc.o
 .debug_ranges  0x00000940      0x1c0 /workspaces/qgv/hoverboard-firmware-hack-FOC/build/stm32f1xx_hal_uart.o
 .debug_ranges  0x00000b00       0x70 /workspaces/qgv/hoverboard-firmware-hack-FOC/build/stm32f1xx_hal_dma.o
 .debug_ranges  0x00000b70       0x18 /workspaces/qgv/hoverboard-firmware-hack-FOC/build/system_stm32f1xx.o
 .debug_ranges  0x00000b88       0x48 /workspaces/qgv/hoverboard-firmware-hack-FOC/build/setup.o
 .debug_ranges  0x00000bd0       0x30 /workspaces/qgv/hoverboard-firmware-hack-FOC/build/control.o
 .debug_ranges  0x00000c00      0x120 /workspaces/qgv/hoverboard-firmware-hack-FOC/build/util.o
 .debug_ranges  0x00000d20       0x30 /workspaces/qgv/hoverboard-firmware-hack-FOC/build/main.o
 .debug_ranges  0x00000d50       0x10 /workspaces/qgv/hoverboard-firmware-hack-FOC/build/bldc.o
 .debug_ranges  0x00000d60       0x48 /workspaces/qgv/hoverboard-firmware-hack-FOC/build/eeprom.o
 .debug_ranges  0x00000da8       0x68 /workspaces/qgv/hoverboard-firmware-hack-FOC/build/stm32f1xx_it.o
 .debug_ranges  0x00000e10       0xd8 /workspaces/qgv/hoverboard-firmware-hack-FOC/build/BLDC_controller.o
 .debug_ranges  0x00000ee8       0x20 /workspaces/qgv/hoverboard-firmware-hack-FOC/build/startup_stm32f103xe.o

.debug_line     0x00000000    0x159bf
 .debug_line    0x00000000      0x66f /workspaces/qgv/hoverboard-firmware-hack-FOC/build/stm32f1xx_hal_flash.o
 .debug_line    0x0000066f      0xb1f /workspaces/qgv/hoverboard-firmware-hack-FOC/build/stm32f1xx_hal_rcc.o
 .debug_line    0x0000118e     0x2d9b /workspaces/qgv/hoverboard-firmware-hack-FOC/build/stm32f1xx_hal_tim.o
 .debug_line    0x00003f29      0xd8d /workspaces/qgv/hoverboard-firmware-hack-FOC/build/stm32f1xx_hal_tim_ex.o
 .debug_line    0x00004cb6      0xa80 /workspaces/qgv/hoverboard-firmware-hack-FOC/build/stm32f1xx_hal_adc_ex.o
 .debug_line    0x00005736      0x59d /workspaces/qgv/hoverboard-firmware-hack-FOC/build/stm32f1xx_hal_cortex.o
 .debug_line    0x00005cd3      0x868 /workspaces/qgv/hoverboard-firmware-hack-FOC/build/stm32f1xx_hal_flash_ex.o
 .debug_line    0x0000653b      0x544 /workspaces/qgv/hoverboard-firmware-hack-FOC/build/stm32f1xx_hal_gpio.o
 .debug_line    0x00006a7f      0x446 /workspaces/qgv/hoverboard-firmware-hack-FOC/build/stm32f1xx_hal_rcc_ex.o
 .debug_line    0x00006ec5      0x3af /workspaces/qgv/hoverboard-firmware-hack-FOC/build/stm32f1xx_hal.o
 .debug_line    0x00007274      0xda1 /workspaces/qgv/hoverboard-firmware-hack-FOC/build/stm32f1xx_hal_adc.o
 .debug_line    0x00008015     0x1739 /workspaces/qgv/hoverboard-firmware-hack-FOC/build/stm32f1xx_hal_uart.o
 .debug_line    0x0000974e      0xf26 /workspaces/qgv/hoverboard-firmware-hack-FOC/build/stm32f1xx_hal_dma.o
 .debug_line    0x0000a674      0x203 /workspaces/qgv/hoverboard-firmware-hack-FOC/build/system_stm32f1xx.o
 .debug_line    0x0000a877      0xa53 /workspaces/qgv/hoverboard-firmware-hack-FOC/build/setup.o
 .debug_line    0x0000b2ca      0x397 /workspaces/qgv/hoverboard-firmware-hack-FOC/build/control.o
 .debug_line    0x0000b661     0x15b6 /workspaces/qgv/hoverboard-firmware-hack-FOC/build/util.o
 .debug_line    0x0000cc17      0x78a /workspaces/qgv/hoverboard-firmware-hack-FOC/build/main.o
 .debug_line    0x0000d3a1      0x628 /workspaces/qgv/hoverboard-firmware-hack-FOC/build/bldc.o
 .debug_line    0x0000d9c9      0x7b2 /workspaces/qgv/hoverboard-firmware-hack-FOC/build/eeprom.o
 .debug_line    0x0000e17b      0x289 /workspaces/qgv/hoverboard-firmware-hack-FOC/build/stm32f1xx_it.o
 .debug_line    0x0000e404       0x62 /workspaces/qgv/hoverboard-firmware-hack-FOC/build/BLDC_controller_data.o
 .debug_line    0x0000e466     0x2254 /workspaces/qgv/hoverboard-firmware-hack-FOC/build/BLDC_controller.o
 .debug_line    0x000106ba       0x6f /workspaces/qgv/hoverboard-firmware-hack-FOC/build/startup_stm32f103xe.o
 .debug_line    0x00010729      0x11e /usr/lib/gcc/arm-none-eabi/13.2.1/../../../arm-none-eabi/lib/thumb/v7-m/nofp/libc_nano.a(libc_a-init.o)
 .debug_line    0x00010847      0x1b1 /usr/lib/gcc/arm-none-eabi/13.2.1/../../../arm-none-eabi/lib/thumb/v7-m/nofp/libc_nano.a(libc_a-memset.o)
 .debug_line    0x000109f8       0xbd /usr/lib/gcc/arm-none-eabi/13.2.1/../../../arm-none-eabi/lib/thumb/v7-m/nofp/libc_nano.a(libc_a-memcpy.o)
 .debug_line    0x00010ab5      0x1c0 /usr/lib/gcc/arm-none-eabi/13.2.1/../../../arm-none-eabi/lib/thumb/v7-m/nofp/libc_nano.a(libc_a-printf.o)
 .debug_line    0x00010c75      0x6b7 /usr/lib/gcc/arm-none-eabi/13.2.1/../../../arm-none-eabi/lib/thumb/v7-m/nofp/libc_nano.a(libc_a-nano-vfprintf.o)
 .debug_line    0x0001132c      0x253 /usr/lib/gcc/arm-none-eabi/13.2.1/../../../arm-none-eabi/lib/thumb/v7-m/nofp/libc_nano.a(libc_a-wbuf.o)
 .debug_line    0x0001157f       0xe7 /usr/lib/gcc/arm-none-eabi/13.2.1/../../../arm-none-eabi/lib/thumb/v7-m/nofp/libc_nano.a(libc_a-impure.o)
 .debug_line    0x00011666      0x5f5 /usr/lib/gcc/arm-none-eabi/13.2.1/../../../arm-none-eabi/lib/thumb/v7-m/nofp/libc_nano.a(libc_a-fvwrite.o)
 .debug_line    0x00011c5b      0x51f /usr/lib/gcc/arm-none-eabi/13.2.1/../../../arm-none-eabi/lib/thumb/v7-m/nofp/libc_nano.a(libc_a-findfp.o)
 .debug_line    0x0001217a      0x456 /usr/lib/gcc/arm-none-eabi/13.2.1/../../../arm-none-eabi/lib/thumb/v7-m/nofp/libc_nano.a(libc_a-fflush.o)
 .debug_line    0x000125d0      0x45c /usr/lib/gcc/arm-none-eabi/13.2.1/../../../arm-none-eabi/lib/thumb/v7-m/nofp/libc_nano.a(libc_a-mallocr.o)
 .debug_line    0x00012a2c      0x2c8 /usr/lib/gcc/arm-none-eabi/13.2.1/../../../arm-none-eabi/lib/thumb/v7-m/nofp/libc_nano.a(libc_a-freer.o)
 .debug_line    0x00012cf4      0x20d /usr/lib/gcc/arm-none-eabi/13.2.1/../../../arm-none-eabi/lib/thumb/v7-m/nofp/libc_nano.a(libc_a-memmove.o)
 .debug_line    0x00012f01      0x1c9 /usr/lib/gcc/arm-none-eabi/13.2.1/../../../arm-none-eabi/lib/thumb/v7-m/nofp/libc_nano.a(libc_a-fwalk.o)
 .debug_line    0x000130ca      0x2bd /usr/lib/gcc/arm-none-eabi/13.2.1/../../../arm-none-eabi/lib/thumb/v7-m/nofp/libc_nano.a(libc_a-wsetup.o)
 .debug_line    0x00013387      0x1fa /usr/lib/gcc/arm-none-eabi/13.2.1/../../../arm-none-eabi/lib/thumb/v7-m/nofp/libc_nano.a(libc_a-reallocr.o)
 .debug_line    0x00013581      0x770 /usr/lib/gcc/arm-none-eabi/13.2.1/../../../arm-none-eabi/lib/thumb/v7-m/nofp/libc_nano.a(libc_a-nano-vfprintf_i.o)
 .debug_line    0x00013cf1      0x153 /usr/lib/gcc/arm-none-eabi/13.2.1/../../../arm-none-eabi/lib/thumb/v7-m/nofp/libc_nano.a(libc_a-mlock.o)
 .debug_line    0x00013e44      0x3b0 /usr/lib/gcc/arm-none-eabi/13.2.1/../../../arm-none-eabi/lib/thumb/v7-m/nofp/libc_nano.a(libc_a-makebuf.o)
 .debug_line    0x000141f4      0x200 /usr/lib/gcc/arm-none-eabi/13.2.1/../../../arm-none-eabi/lib/thumb/v7-m/nofp/libc_nano.a(libc_a-memchr-stub.o)
 .debug_line    0x000143f4      0x197 /usr/lib/gcc/arm-none-eabi/13.2.1/../../../arm-none-eabi/lib/thumb/v7-m/nofp/libc_nano.a(libc_a-isattyr.o)
 .debug_line    0x0001458b      0x196 /usr/lib/gcc/arm-none-eabi/13.2.1/../../../arm-none-eabi/lib/thumb/v7-m/nofp/libc_nano.a(libc_a-sbrkr.o)
 .debug_line    0x00014721      0x22b /usr/lib/gcc/arm-none-eabi/13.2.1/../../../arm-none-eabi/lib/thumb/v7-m/nofp/libc_nano.a(libc_a-stdio.o)
 .debug_line    0x0001494c      0x176 /usr/lib/gcc/arm-none-eabi/13.2.1/../../../arm-none-eabi/lib/thumb/v7-m/nofp/libc_nano.a(libc_a-msizer.o)
 .debug_line    0x00014ac2      0x196 /usr/lib/gcc/arm-none-eabi/13.2.1/../../../arm-none-eabi/lib/thumb/v7-m/nofp/libc_nano.a(libc_a-closer.o)
 .debug_line    0x00014c58      0x19c /usr/lib/gcc/arm-none-eabi/13.2.1/../../../arm-none-eabi/lib/thumb/v7-m/nofp/libc_nano.a(libc_a-readr.o)
 .debug_line    0x00014df4      0x27b /usr/lib/gcc/arm-none-eabi/13.2.1/../../../arm-none-eabi/lib/thumb/v7-m/nofp/libc_nano.a(libc_a-reent.o)
 .debug_line    0x0001506f      0x215 /usr/lib/gcc/arm-none-eabi/13.2.1/../../../arm-none-eabi/lib/thumb/v7-m/nofp/libc_nano.a(libc_a-fstatr.o)
 .debug_line    0x00015284      0x19d /usr/lib/gcc/arm-none-eabi/13.2.1/../../../arm-none-eabi/lib/thumb/v7-m/nofp/libc_nano.a(libc_a-lseekr.o)
 .debug_line    0x00015421      0x19d /usr/lib/gcc/arm-none-eabi/13.2.1/../../../arm-none-eabi/lib/thumb/v7-m/nofp/libc_nano.a(libc_a-writer.o)
 .debug_line    0x000155be       0x72 /usr/lib/gcc/arm-none-eabi/13.2.1/../../../arm-none-eabi/lib/thumb/v7-m/nofp/libnosys.a(close.o)
 .debug_line    0x00015630      0x14e /usr/lib/gcc/arm-none-eabi/13.2.1/../../../arm-none-eabi/lib/thumb/v7-m/nofp/libnosys.a(fstat.o)
 .debug_line    0x0001577e       0x73 /usr/lib/gcc/arm-none-eabi/13.2.1/../../../arm-none-eabi/lib/thumb/v7-m/nofp/libnosys.a(isatty.o)
 .debug_line    0x000157f1       0x73 /usr/lib/gcc/arm-none-eabi/13.2.1/../../../arm-none-eabi/lib/thumb/v7-m/nofp/libnosys.a(lseek.o)
 .debug_line    0x00015864       0x72 /usr/lib/gcc/arm-none-eabi/13.2.1/../../../arm-none-eabi/lib/thumb/v7-m/nofp/libnosys.a(read.o)
 .debug_line    0x000158d6       0x76 /usr/lib/gcc/arm-none-eabi/13.2.1/../../../arm-none-eabi/lib/thumb/v7-m/nofp/libnosys.a(sbrk.o)
 .debug_line    0x0001594c       0x73 /usr/lib/gcc/arm-none-eabi/13.2.1/../../../arm-none-eabi/lib/thumb/v7-m/nofp/libnosys.a(write.o)

.debug_str      0x00000000     0x6e7a
 .debug_str     0x00000000     0x6e7a /workspaces/qgv/hoverboard-firmware-hack-FOC/build/stm32f1xx_hal_flash.o
                                0x4e8 (size before relaxing)
 .debug_str     0x00006e7a      0x5df /workspaces/qgv/hoverboard-firmware-hack-FOC/build/stm32f1xx_hal_rcc.o
 .debug_str     0x00006e7a     0x131c /workspaces/qgv/hoverboard-firmware-hack-FOC/build/stm32f1xx_hal_tim.o
 .debug_str     0x00006e7a      0xbdb /workspaces/qgv/hoverboard-firmware-hack-FOC/build/stm32f1xx_hal_tim_ex.o
 .debug_str     0x00006e7a      0x85a /workspaces/qgv/hoverboard-firmware-hack-FOC/build/stm32f1xx_hal_adc_ex.o
 .debug_str     0x00006e7a      0x966 /workspaces/qgv/hoverboard-firmware-hack-FOC/build/stm32f1xx_hal_cortex.o
 .debug_str     0x00006e7a      0x5fe /workspaces/qgv/hoverboard-firmware-hack-FOC/build/stm32f1xx_hal_flash_ex.o
 .debug_str     0x00006e7a      0x3d4 /workspaces/qgv/hoverboard-firmware-hack-FOC/build/stm32f1xx_hal_gpio.o
 .debug_str     0x00006e7a      0x3e0 /workspaces/qgv/hoverboard-firmware-hack-FOC/build/stm32f1xx_hal_rcc_ex.o
 .debug_str     0x00006e7a      0x80c /workspaces/qgv/hoverboard-firmware-hack-FOC/build/stm32f1xx_hal.o
 .debug_str     0x00006e7a      0x87e /workspaces/qgv/hoverboard-firmware-hack-FOC/build/stm32f1xx_hal_adc.o
 .debug_str     0x00006e7a      0xb24 /workspaces/qgv/hoverboard-firmware-hack-FOC/build/stm32f1xx_hal_uart.o
 .debug_str     0x00006e7a      0x5d6 /workspaces/qgv/hoverboard-firmware-hack-FOC/build/stm32f1xx_hal_dma.o
 .debug_str     0x00006e7a      0x27c /workspaces/qgv/hoverboard-firmware-hack-FOC/build/system_stm32f1xx.o
 .debug_str     0x00006e7a     0x13a4 /workspaces/qgv/hoverboard-firmware-hack-FOC/build/setup.o
 .debug_str     0x00006e7a      0x960 /workspaces/qgv/hoverboard-firmware-hack-FOC/build/control.o
 .debug_str     0x00006e7a     0x1552 /workspaces/qgv/hoverboard-firmware-hack-FOC/build/util.o
 .debug_str     0x00006e7a     0x1466 /workspaces/qgv/hoverboard-firmware-hack-FOC/build/main.o
 .debug_str     0x00006e7a      0xc47 /workspaces/qgv/hoverboard-firmware-hack-FOC/build/bldc.o
 .debug_str     0x00006e7a      0x39f /workspaces/qgv/hoverboard-firmware-hack-FOC/build/eeprom.o
 .debug_str     0x00006e7a      0x651 /workspaces/qgv/hoverboard-firmware-hack-FOC/build/stm32f1xx_it.o
 .debug_str     0x00006e7a      0x434 /workspaces/qgv/hoverboard-firmware-hack-FOC/build/BLDC_controller_data.o
 .debug_str     0x00006e7a      0xf53 /workspaces/qgv/hoverboard-firmware-hack-FOC/build/BLDC_controller.o
 .debug_str     0x00006e7a       0x5d /workspaces/qgv/hoverboard-firmware-hack-FOC/build/startup_stm32f103xe.o
 .debug_str     0x00006e7a      0x1f2 /usr/lib/gcc/arm-none-eabi/13.2.1/../../../arm-none-eabi/lib/thumb/v7-m/nofp/libc_nano.a(libc_a-init.o)
 .debug_str     0x00006e7a      0x1a5 /usr/lib/gcc/arm-none-eabi/13.2.1/../../../arm-none-eabi/lib/thumb/v7-m/nofp/libc_nano.a(libc_a-memset.o)
 .debug_str     0x00006e7a       0xa8 /usr/lib/gcc/arm-none-eabi/13.2.1/../../../arm-none-eabi/lib/thumb/v7-m/nofp/libc_nano.a(libc_a-memcpy.o)
 .debug_str     0x00006e7a      0x4ef /usr/lib/gcc/arm-none-eabi/13.2.1/../../../arm-none-eabi/lib/thumb/v7-m/nofp/libc_nano.a(libc_a-printf.o)
 .debug_str     0x00006e7a      0x821 /usr/lib/gcc/arm-none-eabi/13.2.1/../../../arm-none-eabi/lib/thumb/v7-m/nofp/libc_nano.a(libc_a-nano-vfprintf.o)
 .debug_str     0x00006e7a      0x4ea /usr/lib/gcc/arm-none-eabi/13.2.1/../../../arm-none-eabi/lib/thumb/v7-m/nofp/libc_nano.a(libc_a-wbuf.o)
 .debug_str     0x00006e7a      0x4b4 /usr/lib/gcc/arm-none-eabi/13.2.1/../../../arm-none-eabi/lib/thumb/v7-m/nofp/libc_nano.a(libc_a-impure.o)
 .debug_str     0x00006e7a      0x558 /usr/lib/gcc/arm-none-eabi/13.2.1/../../../arm-none-eabi/lib/thumb/v7-m/nofp/libc_nano.a(libc_a-fvwrite.o)
 .debug_str     0x00006e7a      0x6b7 /usr/lib/gcc/arm-none-eabi/13.2.1/../../../arm-none-eabi/lib/thumb/v7-m/nofp/libc_nano.a(libc_a-findfp.o)
 .debug_str     0x00006e7a      0x53b /usr/lib/gcc/arm-none-eabi/13.2.1/../../../arm-none-eabi/lib/thumb/v7-m/nofp/libc_nano.a(libc_a-fflush.o)
 .debug_str     0x00006e7a      0x595 /usr/lib/gcc/arm-none-eabi/13.2.1/../../../arm-none-eabi/lib/thumb/v7-m/nofp/libc_nano.a(libc_a-mallocr.o)
 .debug_str     0x00006e7a      0x534 /usr/lib/gcc/arm-none-eabi/13.2.1/../../../arm-none-eabi/lib/thumb/v7-m/nofp/libc_nano.a(libc_a-freer.o)
 .debug_str     0x00006e7a      0x1c4 /usr/lib/gcc/arm-none-eabi/13.2.1/../../../arm-none-eabi/lib/thumb/v7-m/nofp/libc_nano.a(libc_a-memmove.o)
 .debug_str     0x00006e7a      0x4c4 /usr/lib/gcc/arm-none-eabi/13.2.1/../../../arm-none-eabi/lib/thumb/v7-m/nofp/libc_nano.a(libc_a-fwalk.o)
 .debug_str     0x00006e7a      0x4e5 /usr/lib/gcc/arm-none-eabi/13.2.1/../../../arm-none-eabi/lib/thumb/v7-m/nofp/libc_nano.a(libc_a-wsetup.o)
 .debug_str     0x00006e7a      0x52a /usr/lib/gcc/arm-none-eabi/13.2.1/../../../arm-none-eabi/lib/thumb/v7-m/nofp/libc_nano.a(libc_a-reallocr.o)
 .debug_str     0x00006e7a      0x793 /usr/lib/gcc/arm-none-eabi/13.2.1/../../../arm-none-eabi/lib/thumb/v7-m/nofp/libc_nano.a(libc_a-nano-vfprintf_i.o)
 .debug_str     0x00006e7a      0x4d2 /usr/lib/gcc/arm-none-eabi/13.2.1/../../../arm-none-eabi/lib/thumb/v7-m/nofp/libc_nano.a(libc_a-mlock.o)
 .debug_str     0x00006e7a      0x647 /usr/lib/gcc/arm-none-eabi/13.2.1/../../../arm-none-eabi/lib/thumb/v7-m/nofp/libc_nano.a(libc_a-makebuf.o)
 .debug_str     0x00006e7a      0x1b5 /usr/lib/gcc/arm-none-eabi/13.2.1/../../../arm-none-eabi/lib/thumb/v7-m/nofp/libc_nano.a(libc_a-memchr-stub.o)
 .debug_str     0x00006e7a      0x4b4 /usr/lib/gcc/arm-none-eabi/13.2.1/../../../arm-none-eabi/lib/thumb/v7-m/nofp/libc_nano.a(libc_a-isattyr.o)
 .debug_str     0x00006e7a      0x4bd /usr/lib/gcc/arm-none-eabi/13.2.1/../../../arm-none-eabi/lib/thumb/v7-m/nofp/libc_nano.a(libc_a-sbrkr.o)
 .debug_str     0x00006e7a      0x521 /usr/lib/gcc/arm-none-eabi/13.2.1/../../../arm-none-eabi/lib/thumb/v7-m/nofp/libc_nano.a(libc_a-stdio.o)
 .debug_str     0x00006e7a      0x4fd /usr/lib/gcc/arm-none-eabi/13.2.1/../../../arm-none-eabi/lib/thumb/v7-m/nofp/libc_nano.a(libc_a-msizer.o)
 .debug_str     0x00006e7a      0x4aa /usr/lib/gcc/arm-none-eabi/13.2.1/../../../arm-none-eabi/lib/thumb/v7-m/nofp/libc_nano.a(libc_a-closer.o)
 .debug_str     0x00006e7a      0x4b8 /usr/lib/gcc/arm-none-eabi/13.2.1/../../../arm-none-eabi/lib/thumb/v7-m/nofp/libc_nano.a(libc_a-readr.o)
 .debug_str     0x00006e7a      0x4d3 /usr/lib/gcc/arm-none-eabi/13.2.1/../../../arm-none-eabi/lib/thumb/v7-m/nofp/libc_nano.a(libc_a-reent.o)
 .debug_str     0x00006e7a      0x5fc /usr/lib/gcc/arm-none-eabi/13.2.1/../../../arm-none-eabi/lib/thumb/v7-m/nofp/libc_nano.a(libc_a-fstatr.o)
 .debug_str     0x00006e7a      0x4b8 /usr/lib/gcc/arm-none-eabi/13.2.1/../../../arm-none-eabi/lib/thumb/v7-m/nofp/libc_nano.a(libc_a-lseekr.o)
 .debug_str     0x00006e7a      0x4ba /usr/lib/gcc/arm-none-eabi/13.2.1/../../../arm-none-eabi/lib/thumb/v7-m/nofp/libc_nano.a(libc_a-writer.o)
 .debug_str     0x00006e7a      0x190 /usr/lib/gcc/arm-none-eabi/13.2.1/../../../arm-none-eabi/lib/thumb/v7-m/nofp/libnosys.a(close.o)
 .debug_str     0x00006e7a      0x2dc /usr/lib/gcc/arm-none-eabi/13.2.1/../../../arm-none-eabi/lib/thumb/v7-m/nofp/libnosys.a(fstat.o)
 .debug_str     0x00006e7a      0x191 /usr/lib/gcc/arm-none-eabi/13.2.1/../../../arm-none-eabi/lib/thumb/v7-m/nofp/libnosys.a(isatty.o)
 .debug_str     0x00006e7a      0x18e /usr/lib/gcc/arm-none-eabi/13.2.1/../../../arm-none-eabi/lib/thumb/v7-m/nofp/libnosys.a(lseek.o)
 .debug_str     0x00006e7a      0x18b /usr/lib/gcc/arm-none-eabi/13.2.1/../../../arm-none-eabi/lib/thumb/v7-m/nofp/libnosys.a(read.o)
 .debug_str     0x00006e7a      0x115 /usr/lib/gcc/arm-none-eabi/13.2.1/../../../arm-none-eabi/lib/thumb/v7-m/nofp/libnosys.a(sbrk.o)
 .debug_str     0x00006e7a      0x18e /usr/lib/gcc/arm-none-eabi/13.2.1/../../../arm-none-eabi/lib/thumb/v7-m/nofp/libnosys.a(write.o)

.debug_frame    0x00000000     0x3350
 .debug_frame   0x00000000      0x134 /workspaces/qgv/hoverboard-firmware-hack-FOC/build/stm32f1xx_hal_flash.o
 .debug_frame   0x00000134      0x160 /workspaces/qgv/hoverboard-firmware-hack-FOC/build/stm32f1xx_hal_rcc.o
 .debug_frame   0x00000294      0x9b0 /workspaces/qgv/hoverboard-firmware-hack-FOC/build/stm32f1xx_hal_tim.o
 .debug_frame   0x00000c44      0x374 /workspaces/qgv/hoverboard-firmware-hack-FOC/build/stm32f1xx_hal_tim_ex.o
 .debug_frame   0x00000fb8      0x19c /workspaces/qgv/hoverboard-firmware-hack-FOC/build/stm32f1xx_hal_adc_ex.o
 .debug_frame   0x00001154      0x184 /workspaces/qgv/hoverboard-firmware-hack-FOC/build/stm32f1xx_hal_cortex.o
 .debug_frame   0x000012d8      0x194 /workspaces/qgv/hoverboard-firmware-hack-FOC/build/stm32f1xx_hal_flash_ex.o
 .debug_frame   0x0000146c       0xe0 /workspaces/qgv/hoverboard-firmware-hack-FOC/build/stm32f1xx_hal_gpio.o
 .debug_frame   0x0000154c       0x64 /workspaces/qgv/hoverboard-firmware-hack-FOC/build/stm32f1xx_hal_rcc_ex.o
 .debug_frame   0x000015b0      0x178 /workspaces/qgv/hoverboard-firmware-hack-FOC/build/stm32f1xx_hal.o
 .debug_frame   0x00001728      0x2cc /workspaces/qgv/hoverboard-firmware-hack-FOC/build/stm32f1xx_hal_adc.o
 .debug_frame   0x000019f4      0x4f0 /workspaces/qgv/hoverboard-firmware-hack-FOC/build/stm32f1xx_hal_uart.o
 .debug_frame   0x00001ee4      0x140 /workspaces/qgv/hoverboard-firmware-hack-FOC/build/stm32f1xx_hal_dma.o
 .debug_frame   0x00002024       0x30 /workspaces/qgv/hoverboard-firmware-hack-FOC/build/system_stm32f1xx.o
 .debug_frame   0x00002054      0x138 /workspaces/qgv/hoverboard-firmware-hack-FOC/build/setup.o
 .debug_frame   0x0000218c       0x9c /workspaces/qgv/hoverboard-firmware-hack-FOC/build/control.o
 .debug_frame   0x00002228      0x32c /workspaces/qgv/hoverboard-firmware-hack-FOC/build/util.o
 .debug_frame   0x00002554       0x50 /workspaces/qgv/hoverboard-firmware-hack-FOC/build/main.o
 .debug_frame   0x000025a4       0x38 /workspaces/qgv/hoverboard-firmware-hack-FOC/build/bldc.o
 .debug_frame   0x000025dc       0xf4 /workspaces/qgv/hoverboard-firmware-hack-FOC/build/eeprom.o
 .debug_frame   0x000026d0       0xf8 /workspaces/qgv/hoverboard-firmware-hack-FOC/build/stm32f1xx_it.o
 .debug_frame   0x000027c8      0x244 /workspaces/qgv/hoverboard-firmware-hack-FOC/build/BLDC_controller.o
 .debug_frame   0x00002a0c       0x2c /usr/lib/gcc/arm-none-eabi/13.2.1/../../../arm-none-eabi/lib/thumb/v7-m/nofp/libc_nano.a(libc_a-init.o)
 .debug_frame   0x00002a38       0x2c /usr/lib/gcc/arm-none-eabi/13.2.1/../../../arm-none-eabi/lib/thumb/v7-m/nofp/libc_nano.a(libc_a-memset.o)
 .debug_frame   0x00002a64       0x74 /usr/lib/gcc/arm-none-eabi/13.2.1/../../../arm-none-eabi/lib/thumb/v7-m/nofp/libc_nano.a(libc_a-printf.o)
 .debug_frame   0x00002ad8       0xac /usr/lib/gcc/arm-none-eabi/13.2.1/../../../arm-none-eabi/lib/thumb/v7-m/nofp/libc_nano.a(libc_a-nano-vfprintf.o)
 .debug_frame   0x00002b84       0x40 /usr/lib/gcc/arm-none-eabi/13.2.1/../../../arm-none-eabi/lib/thumb/v7-m/nofp/libc_nano.a(libc_a-wbuf.o)
 .debug_frame   0x00002bc4       0x64 /usr/lib/gcc/arm-none-eabi/13.2.1/../../../arm-none-eabi/lib/thumb/v7-m/nofp/libc_nano.a(libc_a-fvwrite.o)
 .debug_frame   0x00002c28       0xf4 /usr/lib/gcc/arm-none-eabi/13.2.1/../../../arm-none-eabi/lib/thumb/v7-m/nofp/libc_nano.a(libc_a-findfp.o)
 .debug_frame   0x00002d1c       0x8c /usr/lib/gcc/arm-none-eabi/13.2.1/../../../arm-none-eabi/lib/thumb/v7-m/nofp/libc_nano.a(libc_a-fflush.o)
 .debug_frame   0x00002da8       0x50 /usr/lib/gcc/arm-none-eabi/13.2.1/../../../arm-none-eabi/lib/thumb/v7-m/nofp/libc_nano.a(libc_a-mallocr.o)
 .debug_frame   0x00002df8       0x58 /usr/lib/gcc/arm-none-eabi/13.2.1/../../../arm-none-eabi/lib/thumb/v7-m/nofp/libc_nano.a(libc_a-freer.o)
 .debug_frame   0x00002e50       0x40 /usr/lib/gcc/arm-none-eabi/13.2.1/../../../arm-none-eabi/lib/thumb/v7-m/nofp/libc_nano.a(libc_a-memmove.o)
 .debug_frame   0x00002e90       0x34 /usr/lib/gcc/arm-none-eabi/13.2.1/../../../arm-none-eabi/lib/thumb/v7-m/nofp/libc_nano.a(libc_a-fwalk.o)
 .debug_frame   0x00002ec4       0x2c /usr/lib/gcc/arm-none-eabi/13.2.1/../../../arm-none-eabi/lib/thumb/v7-m/nofp/libc_nano.a(libc_a-wsetup.o)
 .debug_frame   0x00002ef0       0x38 /usr/lib/gcc/arm-none-eabi/13.2.1/../../../arm-none-eabi/lib/thumb/v7-m/nofp/libc_nano.a(libc_a-reallocr.o)
 .debug_frame   0x00002f28       0x6c /usr/lib/gcc/arm-none-eabi/13.2.1/../../../arm-none-eabi/lib/thumb/v7-m/nofp/libc_nano.a(libc_a-nano-vfprintf_i.o)
 .debug_frame   0x00002f94       0x30 /usr/lib/gcc/arm-none-eabi/13.2.1/../../../arm-none-eabi/lib/thumb/v7-m/nofp/libc_nano.a(libc_a-mlock.o)
 .debug_frame   0x00002fc4       0x60 /usr/lib/gcc/arm-none-eabi/13.2.1/../../../arm-none-eabi/lib/thumb/v7-m/nofp/libc_nano.a(libc_a-makebuf.o)
 .debug_frame   0x00003024       0x2c /usr/lib/gcc/arm-none-eabi/13.2.1/../../../arm-none-eabi/lib/thumb/v7-m/nofp/libc_nano.a(libc_a-memchr-stub.o)
 .debug_frame   0x00003050       0x2c /usr/lib/gcc/arm-none-eabi/13.2.1/../../../arm-none-eabi/lib/thumb/v7-m/nofp/libc_nano.a(libc_a-isattyr.o)
 .debug_frame   0x0000307c       0x2c /usr/lib/gcc/arm-none-eabi/13.2.1/../../../arm-none-eabi/lib/thumb/v7-m/nofp/libc_nano.a(libc_a-sbrkr.o)
 .debug_frame   0x000030a8       0x8c /usr/lib/gcc/arm-none-eabi/13.2.1/../../../arm-none-eabi/lib/thumb/v7-m/nofp/libc_nano.a(libc_a-stdio.o)
 .debug_frame   0x00003134       0x20 /usr/lib/gcc/arm-none-eabi/13.2.1/../../../arm-none-eabi/lib/thumb/v7-m/nofp/libc_nano.a(libc_a-msizer.o)
 .debug_frame   0x00003154       0x2c /usr/lib/gcc/arm-none-eabi/13.2.1/../../../arm-none-eabi/lib/thumb/v7-m/nofp/libc_nano.a(libc_a-closer.o)
 .debug_frame   0x00003180       0x2c /usr/lib/gcc/arm-none-eabi/13.2.1/../../../arm-none-eabi/lib/thumb/v7-m/nofp/libc_nano.a(libc_a-readr.o)
 .debug_frame   0x000031ac       0x40 /usr/lib/gcc/arm-none-eabi/13.2.1/../../../arm-none-eabi/lib/thumb/v7-m/nofp/libc_nano.a(libc_a-reent.o)
 .debug_frame   0x000031ec       0x2c /usr/lib/gcc/arm-none-eabi/13.2.1/../../../arm-none-eabi/lib/thumb/v7-m/nofp/libc_nano.a(libc_a-fstatr.o)
 .debug_frame   0x00003218       0x2c /usr/lib/gcc/arm-none-eabi/13.2.1/../../../arm-none-eabi/lib/thumb/v7-m/nofp/libc_nano.a(libc_a-lseekr.o)
 .debug_frame   0x00003244       0x2c /usr/lib/gcc/arm-none-eabi/13.2.1/../../../arm-none-eabi/lib/thumb/v7-m/nofp/libc_nano.a(libc_a-writer.o)
 .debug_frame   0x00003270       0x20 /usr/lib/gcc/arm-none-eabi/13.2.1/../../../arm-none-eabi/lib/thumb/v7-m/nofp/libnosys.a(close.o)
 .debug_frame   0x00003290       0x20 /usr/lib/gcc/arm-none-eabi/13.2.1/../../../arm-none-eabi/lib/thumb/v7-m/nofp/libnosys.a(fstat.o)
 .debug_frame   0x000032b0       0x20 /usr/lib/gcc/arm-none-eabi/13.2.1/../../../arm-none-eabi/lib/thumb/v7-m/nofp/libnosys.a(isatty.o)
 .debug_frame   0x000032d0       0x20 /usr/lib/gcc/arm-none-eabi/13.2.1/../../../arm-none-eabi/lib/thumb/v7-m/nofp/libnosys.a(lseek.o)
 .debug_frame   0x000032f0       0x20 /usr/lib/gcc/arm-none-eabi/13.2.1/../../../arm-none-eabi/lib/thumb/v7-m/nofp/libnosys.a(read.o)
 .debug_frame   0x00003310       0x20 /usr/lib/gcc/arm-none-eabi/13.2.1/../../../arm-none-eabi/lib/thumb/v7-m/nofp/libnosys.a(sbrk.o)
 .debug_frame   0x00003330       0x20 /usr/lib/gcc/arm-none-eabi/13.2.1/../../../arm-none-eabi/lib/thumb/v7-m/nofp/libnosys.a(write.o)

.debug_loclists
                0x00000000     0x286c
 .debug_loclists
                0x00000000       0x65 /usr/lib/gcc/arm-none-eabi/13.2.1/../../../arm-none-eabi/lib/thumb/v7-m/nofp/libc_nano.a(libc_a-init.o)
 .debug_loclists
                0x00000065      0x1d7 /usr/lib/gcc/arm-none-eabi/13.2.1/../../../arm-none-eabi/lib/thumb/v7-m/nofp/libc_nano.a(libc_a-memset.o)
 .debug_loclists
                0x0000023c       0x3c /usr/lib/gcc/arm-none-eabi/13.2.1/../../../arm-none-eabi/lib/thumb/v7-m/nofp/libc_nano.a(libc_a-printf.o)
 .debug_loclists
                0x00000278      0x58a /usr/lib/gcc/arm-none-eabi/13.2.1/../../../arm-none-eabi/lib/thumb/v7-m/nofp/libc_nano.a(libc_a-nano-vfprintf.o)
 .debug_loclists
                0x00000802      0x104 /usr/lib/gcc/arm-none-eabi/13.2.1/../../../arm-none-eabi/lib/thumb/v7-m/nofp/libc_nano.a(libc_a-wbuf.o)
 .debug_loclists
                0x00000906      0x3f8 /usr/lib/gcc/arm-none-eabi/13.2.1/../../../arm-none-eabi/lib/thumb/v7-m/nofp/libc_nano.a(libc_a-fvwrite.o)
 .debug_loclists
                0x00000cfe      0x1d0 /usr/lib/gcc/arm-none-eabi/13.2.1/../../../arm-none-eabi/lib/thumb/v7-m/nofp/libc_nano.a(libc_a-findfp.o)
 .debug_loclists
                0x00000ece      0x2f2 /usr/lib/gcc/arm-none-eabi/13.2.1/../../../arm-none-eabi/lib/thumb/v7-m/nofp/libc_nano.a(libc_a-fflush.o)
 .debug_loclists
                0x000011c0      0x273 /usr/lib/gcc/arm-none-eabi/13.2.1/../../../arm-none-eabi/lib/thumb/v7-m/nofp/libc_nano.a(libc_a-mallocr.o)
 .debug_loclists
                0x00001433      0x164 /usr/lib/gcc/arm-none-eabi/13.2.1/../../../arm-none-eabi/lib/thumb/v7-m/nofp/libc_nano.a(libc_a-freer.o)
 .debug_loclists
                0x00001597      0x21b /usr/lib/gcc/arm-none-eabi/13.2.1/../../../arm-none-eabi/lib/thumb/v7-m/nofp/libc_nano.a(libc_a-memmove.o)
 .debug_loclists
                0x000017b2       0x79 /usr/lib/gcc/arm-none-eabi/13.2.1/../../../arm-none-eabi/lib/thumb/v7-m/nofp/libc_nano.a(libc_a-fwalk.o)
 .debug_loclists
                0x0000182b       0x61 /usr/lib/gcc/arm-none-eabi/13.2.1/../../../arm-none-eabi/lib/thumb/v7-m/nofp/libc_nano.a(libc_a-wsetup.o)
 .debug_loclists
                0x0000188c      0x102 /usr/lib/gcc/arm-none-eabi/13.2.1/../../../arm-none-eabi/lib/thumb/v7-m/nofp/libc_nano.a(libc_a-reallocr.o)
 .debug_loclists
                0x0000198e      0x444 /usr/lib/gcc/arm-none-eabi/13.2.1/../../../arm-none-eabi/lib/thumb/v7-m/nofp/libc_nano.a(libc_a-nano-vfprintf_i.o)
 .debug_loclists
                0x00001dd2      0x1b4 /usr/lib/gcc/arm-none-eabi/13.2.1/../../../arm-none-eabi/lib/thumb/v7-m/nofp/libc_nano.a(libc_a-makebuf.o)
 .debug_loclists
                0x00001f86      0x172 /usr/lib/gcc/arm-none-eabi/13.2.1/../../../arm-none-eabi/lib/thumb/v7-m/nofp/libc_nano.a(libc_a-memchr-stub.o)
 .debug_loclists
                0x000020f8       0x4b /usr/lib/gcc/arm-none-eabi/13.2.1/../../../arm-none-eabi/lib/thumb/v7-m/nofp/libc_nano.a(libc_a-isattyr.o)
 .debug_loclists
                0x00002143       0x4b /usr/lib/gcc/arm-none-eabi/13.2.1/../../../arm-none-eabi/lib/thumb/v7-m/nofp/libc_nano.a(libc_a-sbrkr.o)
 .debug_loclists
                0x0000218e      0x23b /usr/lib/gcc/arm-none-eabi/13.2.1/../../../arm-none-eabi/lib/thumb/v7-m/nofp/libc_nano.a(libc_a-stdio.o)
 .debug_loclists
                0x000023c9       0x59 /usr/lib/gcc/arm-none-eabi/13.2.1/../../../arm-none-eabi/lib/thumb/v7-m/nofp/libc_nano.a(libc_a-msizer.o)
 .debug_loclists
                0x00002422       0x4b /usr/lib/gcc/arm-none-eabi/13.2.1/../../../arm-none-eabi/lib/thumb/v7-m/nofp/libc_nano.a(libc_a-closer.o)
 .debug_loclists
                0x0000246d       0x97 /usr/lib/gcc/arm-none-eabi/13.2.1/../../../arm-none-eabi/lib/thumb/v7-m/nofp/libc_nano.a(libc_a-readr.o)
 .debug_loclists
                0x00002504       0x80 /usr/lib/gcc/arm-none-eabi/13.2.1/../../../arm-none-eabi/lib/thumb/v7-m/nofp/libc_nano.a(libc_a-reent.o)
 .debug_loclists
                0x00002584       0x6a /usr/lib/gcc/arm-none-eabi/13.2.1/../../../arm-none-eabi/lib/thumb/v7-m/nofp/libc_nano.a(libc_a-fstatr.o)
 .debug_loclists
                0x000025ee       0x97 /usr/lib/gcc/arm-none-eabi/13.2.1/../../../arm-none-eabi/lib/thumb/v7-m/nofp/libc_nano.a(libc_a-lseekr.o)
 .debug_loclists
                0x00002685       0x97 /usr/lib/gcc/arm-none-eabi/13.2.1/../../../arm-none-eabi/lib/thumb/v7-m/nofp/libc_nano.a(libc_a-writer.o)
 .debug_loclists
                0x0000271c       0x24 /usr/lib/gcc/arm-none-eabi/13.2.1/../../../arm-none-eabi/lib/thumb/v7-m/nofp/libnosys.a(close.o)
 .debug_loclists
                0x00002740       0x24 /usr/lib/gcc/arm-none-eabi/13.2.1/../../../arm-none-eabi/lib/thumb/v7-m/nofp/libnosys.a(fstat.o)
 .debug_loclists
                0x00002764       0x24 /usr/lib/gcc/arm-none-eabi/13.2.1/../../../arm-none-eabi/lib/thumb/v7-m/nofp/libnosys.a(isatty.o)
 .debug_loclists
                0x00002788       0x3c /usr/lib/gcc/arm-none-eabi/13.2.1/../../../arm-none-eabi/lib/thumb/v7-m/nofp/libnosys.a(lseek.o)
 .debug_loclists
                0x000027c4       0x3c /usr/lib/gcc/arm-none-eabi/13.2.1/../../../arm-none-eabi/lib/thumb/v7-m/nofp/libnosys.a(read.o)
 .debug_loclists
                0x00002800       0x30 /usr/lib/gcc/arm-none-eabi/13.2.1/../../../arm-none-eabi/lib/thumb/v7-m/nofp/libnosys.a(sbrk.o)
 .debug_loclists
                0x00002830       0x3c /usr/lib/gcc/arm-none-eabi/13.2.1/../../../arm-none-eabi/lib/thumb/v7-m/nofp/libnosys.a(write.o)

.debug_line_str
                0x00000000       0x95
 .debug_line_str
                0x00000000       0x95 /usr/lib/gcc/arm-none-eabi/13.2.1/../../../arm-none-eabi/lib/thumb/v7-m/nofp/libc_nano.a(libc_a-memcpy.o)

.debug_rnglists
                0x00000000      0x20a
 .debug_rnglists
                0x00000000       0x1a /usr/lib/gcc/arm-none-eabi/13.2.1/../../../arm-none-eabi/lib/thumb/v7-m/nofp/libc_nano.a(libc_a-nano-vfprintf.o)
 .debug_rnglists
                0x0000001a       0x1b /usr/lib/gcc/arm-none-eabi/13.2.1/../../../arm-none-eabi/lib/thumb/v7-m/nofp/libc_nano.a(libc_a-wbuf.o)
 .debug_rnglists
                0x00000035       0x30 /usr/lib/gcc/arm-none-eabi/13.2.1/../../../arm-none-eabi/lib/thumb/v7-m/nofp/libc_nano.a(libc_a-fvwrite.o)
 .debug_rnglists
                0x00000065       0x7a /usr/lib/gcc/arm-none-eabi/13.2.1/../../../arm-none-eabi/lib/thumb/v7-m/nofp/libc_nano.a(libc_a-findfp.o)
 .debug_rnglists
                0x000000df       0x58 /usr/lib/gcc/arm-none-eabi/13.2.1/../../../arm-none-eabi/lib/thumb/v7-m/nofp/libc_nano.a(libc_a-fflush.o)
 .debug_rnglists
                0x00000137       0x1f /usr/lib/gcc/arm-none-eabi/13.2.1/../../../arm-none-eabi/lib/thumb/v7-m/nofp/libc_nano.a(libc_a-mallocr.o)
 .debug_rnglists
                0x00000156       0x13 /usr/lib/gcc/arm-none-eabi/13.2.1/../../../arm-none-eabi/lib/thumb/v7-m/nofp/libc_nano.a(libc_a-freer.o)
 .debug_rnglists
                0x00000169       0x1e /usr/lib/gcc/arm-none-eabi/13.2.1/../../../arm-none-eabi/lib/thumb/v7-m/nofp/libc_nano.a(libc_a-wsetup.o)
 .debug_rnglists
                0x00000187       0x66 /usr/lib/gcc/arm-none-eabi/13.2.1/../../../arm-none-eabi/lib/thumb/v7-m/nofp/libc_nano.a(libc_a-nano-vfprintf_i.o)
 .debug_rnglists
                0x000001ed       0x1d /usr/lib/gcc/arm-none-eabi/13.2.1/../../../arm-none-eabi/lib/thumb/v7-m/nofp/libc_nano.a(libc_a-makebuf.o)

Cross Reference Table

Symbol                                            File
ADC1_2_IRQHandler                                 /workspaces/qgv/hoverboard-firmware-hack-FOC/build/startup_stm32f103xe.o
ADC3_IRQHandler                                   /workspaces/qgv/hoverboard-firmware-hack-FOC/build/startup_stm32f103xe.o
ADC_ConversionStop_Disable                        /workspaces/qgv/hoverboard-firmware-hack-FOC/build/stm32f1xx_hal_adc.o
                                                  /workspaces/qgv/hoverboard-firmware-hack-FOC/build/stm32f1xx_hal_adc_ex.o
ADC_DMAConvCplt                                   /workspaces/qgv/hoverboard-firmware-hack-FOC/build/stm32f1xx_hal_adc.o
                                                  /workspaces/qgv/hoverboard-firmware-hack-FOC/build/stm32f1xx_hal_adc_ex.o
ADC_DMAError                                      /workspaces/qgv/hoverboard-firmware-hack-FOC/build/stm32f1xx_hal_adc.o
                                                  /workspaces/qgv/hoverboard-firmware-hack-FOC/build/stm32f1xx_hal_adc_ex.o
ADC_DMAHalfConvCplt                               /workspaces/qgv/hoverboard-firmware-hack-FOC/build/stm32f1xx_hal_adc.o
                                                  /workspaces/qgv/hoverboard-firmware-hack-FOC/build/stm32f1xx_hal_adc_ex.o
ADC_Enable                                        /workspaces/qgv/hoverboard-firmware-hack-FOC/build/stm32f1xx_hal_adc.o
                                                  /workspaces/qgv/hoverboard-firmware-hack-FOC/build/stm32f1xx_hal_adc_ex.o
AHBPrescTable                                     /workspaces/qgv/hoverboard-firmware-hack-FOC/build/system_stm32f1xx.o
                                                  /workspaces/qgv/hoverboard-firmware-hack-FOC/build/stm32f1xx_hal_rcc.o
APBPrescTable                                     /workspaces/qgv/hoverboard-firmware-hack-FOC/build/system_stm32f1xx.o
                                                  /workspaces/qgv/hoverboard-firmware-hack-FOC/build/stm32f1xx_hal_rcc.o
BLDC_Init                                         /workspaces/qgv/hoverboard-firmware-hack-FOC/build/util.o
                                                  /workspaces/qgv/hoverboard-firmware-hack-FOC/build/main.o
BLDC_controller_initialize                        /workspaces/qgv/hoverboard-firmware-hack-FOC/build/BLDC_controller.o
                                                  /workspaces/qgv/hoverboard-firmware-hack-FOC/build/util.o
BLDC_controller_step                              /workspaces/qgv/hoverboard-firmware-hack-FOC/build/BLDC_controller.o
                                                  /workspaces/qgv/hoverboard-firmware-hack-FOC/build/bldc.o
BusFault_Handler                                  /workspaces/qgv/hoverboard-firmware-hack-FOC/build/stm32f1xx_it.o
CAN1_RX1_IRQHandler                               /workspaces/qgv/hoverboard-firmware-hack-FOC/build/startup_stm32f103xe.o
CAN1_SCE_IRQHandler                               /workspaces/qgv/hoverboard-firmware-hack-FOC/build/startup_stm32f103xe.o
Counter                                           /workspaces/qgv/hoverboard-firmware-hack-FOC/build/BLDC_controller.o
Counter_Init                                      /workspaces/qgv/hoverboard-firmware-hack-FOC/build/BLDC_controller.o
Counter_b_Init                                    /workspaces/qgv/hoverboard-firmware-hack-FOC/build/BLDC_controller.o
Counter_n                                         /workspaces/qgv/hoverboard-firmware-hack-FOC/build/BLDC_controller.o
DMA1_Channel1_IRQHandler                          /workspaces/qgv/hoverboard-firmware-hack-FOC/build/bldc.o
DMA1_Channel2_IRQHandler                          /workspaces/qgv/hoverboard-firmware-hack-FOC/build/stm32f1xx_it.o
DMA1_Channel3_IRQHandler                          /workspaces/qgv/hoverboard-firmware-hack-FOC/build/stm32f1xx_it.o
DMA1_Channel4_IRQHandler                          /workspaces/qgv/hoverboard-firmware-hack-FOC/build/startup_stm32f103xe.o
DMA1_Channel5_IRQHandler                          /workspaces/qgv/hoverboard-firmware-hack-FOC/build/startup_stm32f103xe.o
DMA1_Channel6_IRQHandler                          /workspaces/qgv/hoverboard-firmware-hack-FOC/build/startup_stm32f103xe.o
DMA1_Channel7_IRQHandler                          /workspaces/qgv/hoverboard-firmware-hack-FOC/build/startup_stm32f103xe.o
DMA2_Channel1_IRQHandler                          /workspaces/qgv/hoverboard-firmware-hack-FOC/build/startup_stm32f103xe.o
DMA2_Channel2_IRQHandler                          /workspaces/qgv/hoverboard-firmware-hack-FOC/build/startup_stm32f103xe.o
DMA2_Channel3_IRQHandler                          /workspaces/qgv/hoverboard-firmware-hack-FOC/build/startup_stm32f103xe.o
DMA2_Channel4_5_IRQHandler                        /workspaces/qgv/hoverboard-firmware-hack-FOC/build/startup_stm32f103xe.o
DataVar                                           /workspaces/qgv/hoverboard-firmware-hack-FOC/build/eeprom.o
Debounce_Filter                                   /workspaces/qgv/hoverboard-firmware-hack-FOC/build/BLDC_controller.o
Debounce_Filter_Init                              /workspaces/qgv/hoverboard-firmware-hack-FOC/build/BLDC_controller.o
DebugMon_Handler                                  /workspaces/qgv/hoverboard-firmware-hack-FOC/build/stm32f1xx_it.o
Default_Handler                                   /workspaces/qgv/hoverboard-firmware-hack-FOC/build/startup_stm32f103xe.o
EE_Init                                           /workspaces/qgv/hoverboard-firmware-hack-FOC/build/eeprom.o
                                                  /workspaces/qgv/hoverboard-firmware-hack-FOC/build/util.o
EE_ReadVariable                                   /workspaces/qgv/hoverboard-firmware-hack-FOC/build/eeprom.o
                                                  /workspaces/qgv/hoverboard-firmware-hack-FOC/build/util.o
EE_WriteVariable                                  /workspaces/qgv/hoverboard-firmware-hack-FOC/build/eeprom.o
                                                  /workspaces/qgv/hoverboard-firmware-hack-FOC/build/util.o
EXTI0_IRQHandler                                  /workspaces/qgv/hoverboard-firmware-hack-FOC/build/startup_stm32f103xe.o
EXTI15_10_IRQHandler                              /workspaces/qgv/hoverboard-firmware-hack-FOC/build/startup_stm32f103xe.o
EXTI1_IRQHandler                                  /workspaces/qgv/hoverboard-firmware-hack-FOC/build/startup_stm32f103xe.o
EXTI2_IRQHandler                                  /workspaces/qgv/hoverboard-firmware-hack-FOC/build/startup_stm32f103xe.o
EXTI3_IRQHandler                                  /workspaces/qgv/hoverboard-firmware-hack-FOC/build/startup_stm32f103xe.o
EXTI4_IRQHandler                                  /workspaces/qgv/hoverboard-firmware-hack-FOC/build/startup_stm32f103xe.o
EXTI9_5_IRQHandler                                /workspaces/qgv/hoverboard-firmware-hack-FOC/build/startup_stm32f103xe.o
FLASH_IRQHandler                                  /workspaces/qgv/hoverboard-firmware-hack-FOC/build/startup_stm32f103xe.o
FLASH_PageErase                                   /workspaces/qgv/hoverboard-firmware-hack-FOC/build/stm32f1xx_hal_flash_ex.o
                                                  /workspaces/qgv/hoverboard-firmware-hack-FOC/build/stm32f1xx_hal_flash.o
FLASH_WaitForLastOperation                        /workspaces/qgv/hoverboard-firmware-hack-FOC/build/stm32f1xx_hal_flash.o
                                                  /workspaces/qgv/hoverboard-firmware-hack-FOC/build/stm32f1xx_hal_flash_ex.o
FSMC_IRQHandler                                   /workspaces/qgv/hoverboard-firmware-hack-FOC/build/startup_stm32f103xe.o
HAL_ADCEx_Calibration_Start                       /workspaces/qgv/hoverboard-firmware-hack-FOC/build/stm32f1xx_hal_adc_ex.o
HAL_ADCEx_InjectedConfigChannel                   /workspaces/qgv/hoverboard-firmware-hack-FOC/build/stm32f1xx_hal_adc_ex.o
HAL_ADCEx_InjectedConvCpltCallback                /workspaces/qgv/hoverboard-firmware-hack-FOC/build/stm32f1xx_hal_adc_ex.o
                                                  /workspaces/qgv/hoverboard-firmware-hack-FOC/build/stm32f1xx_hal_adc.o
HAL_ADCEx_InjectedGetValue                        /workspaces/qgv/hoverboard-firmware-hack-FOC/build/stm32f1xx_hal_adc_ex.o
HAL_ADCEx_InjectedPollForConversion               /workspaces/qgv/hoverboard-firmware-hack-FOC/build/stm32f1xx_hal_adc_ex.o
HAL_ADCEx_InjectedStart                           /workspaces/qgv/hoverboard-firmware-hack-FOC/build/stm32f1xx_hal_adc_ex.o
HAL_ADCEx_InjectedStart_IT                        /workspaces/qgv/hoverboard-firmware-hack-FOC/build/stm32f1xx_hal_adc_ex.o
HAL_ADCEx_InjectedStop                            /workspaces/qgv/hoverboard-firmware-hack-FOC/build/stm32f1xx_hal_adc_ex.o
HAL_ADCEx_InjectedStop_IT                         /workspaces/qgv/hoverboard-firmware-hack-FOC/build/stm32f1xx_hal_adc_ex.o
HAL_ADCEx_MultiModeConfigChannel                  /workspaces/qgv/hoverboard-firmware-hack-FOC/build/stm32f1xx_hal_adc_ex.o
                                                  /workspaces/qgv/hoverboard-firmware-hack-FOC/build/setup.o
HAL_ADCEx_MultiModeGetValue                       /workspaces/qgv/hoverboard-firmware-hack-FOC/build/stm32f1xx_hal_adc_ex.o
HAL_ADCEx_MultiModeStart_DMA                      /workspaces/qgv/hoverboard-firmware-hack-FOC/build/stm32f1xx_hal_adc_ex.o
HAL_ADCEx_MultiModeStop_DMA                       /workspaces/qgv/hoverboard-firmware-hack-FOC/build/stm32f1xx_hal_adc_ex.o
HAL_ADC_AnalogWDGConfig                           /workspaces/qgv/hoverboard-firmware-hack-FOC/build/stm32f1xx_hal_adc.o
HAL_ADC_ConfigChannel                             /workspaces/qgv/hoverboard-firmware-hack-FOC/build/stm32f1xx_hal_adc.o
                                                  /workspaces/qgv/hoverboard-firmware-hack-FOC/build/setup.o
HAL_ADC_ConvCpltCallback                          /workspaces/qgv/hoverboard-firmware-hack-FOC/build/stm32f1xx_hal_adc.o
HAL_ADC_ConvHalfCpltCallback                      /workspaces/qgv/hoverboard-firmware-hack-FOC/build/stm32f1xx_hal_adc.o
HAL_ADC_DeInit                                    /workspaces/qgv/hoverboard-firmware-hack-FOC/build/stm32f1xx_hal_adc.o
HAL_ADC_ErrorCallback                             /workspaces/qgv/hoverboard-firmware-hack-FOC/build/stm32f1xx_hal_adc.o
HAL_ADC_GetError                                  /workspaces/qgv/hoverboard-firmware-hack-FOC/build/stm32f1xx_hal_adc.o
HAL_ADC_GetState                                  /workspaces/qgv/hoverboard-firmware-hack-FOC/build/stm32f1xx_hal_adc.o
HAL_ADC_GetValue                                  /workspaces/qgv/hoverboard-firmware-hack-FOC/build/stm32f1xx_hal_adc.o
HAL_ADC_IRQHandler                                /workspaces/qgv/hoverboard-firmware-hack-FOC/build/stm32f1xx_hal_adc.o
HAL_ADC_Init                                      /workspaces/qgv/hoverboard-firmware-hack-FOC/build/stm32f1xx_hal_adc.o
                                                  /workspaces/qgv/hoverboard-firmware-hack-FOC/build/setup.o
HAL_ADC_LevelOutOfWindowCallback                  /workspaces/qgv/hoverboard-firmware-hack-FOC/build/stm32f1xx_hal_adc.o
HAL_ADC_MspDeInit                                 /workspaces/qgv/hoverboard-firmware-hack-FOC/build/stm32f1xx_hal_adc.o
HAL_ADC_MspInit                                   /workspaces/qgv/hoverboard-firmware-hack-FOC/build/stm32f1xx_hal_adc.o
HAL_ADC_PollForConversion                         /workspaces/qgv/hoverboard-firmware-hack-FOC/build/stm32f1xx_hal_adc.o
HAL_ADC_PollForEvent                              /workspaces/qgv/hoverboard-firmware-hack-FOC/build/stm32f1xx_hal_adc.o
HAL_ADC_Start                                     /workspaces/qgv/hoverboard-firmware-hack-FOC/build/stm32f1xx_hal_adc.o
                                                  /workspaces/qgv/hoverboard-firmware-hack-FOC/build/main.o
HAL_ADC_Start_DMA                                 /workspaces/qgv/hoverboard-firmware-hack-FOC/build/stm32f1xx_hal_adc.o
HAL_ADC_Start_IT                                  /workspaces/qgv/hoverboard-firmware-hack-FOC/build/stm32f1xx_hal_adc.o
HAL_ADC_Stop                                      /workspaces/qgv/hoverboard-firmware-hack-FOC/build/stm32f1xx_hal_adc.o
HAL_ADC_Stop_DMA                                  /workspaces/qgv/hoverboard-firmware-hack-FOC/build/stm32f1xx_hal_adc.o
HAL_ADC_Stop_IT                                   /workspaces/qgv/hoverboard-firmware-hack-FOC/build/stm32f1xx_hal_adc.o
HAL_DBGMCU_DisableDBGSleepMode                    /workspaces/qgv/hoverboard-firmware-hack-FOC/build/stm32f1xx_hal.o
HAL_DBGMCU_DisableDBGStandbyMode                  /workspaces/qgv/hoverboard-firmware-hack-FOC/build/stm32f1xx_hal.o
HAL_DBGMCU_DisableDBGStopMode                     /workspaces/qgv/hoverboard-firmware-hack-FOC/build/stm32f1xx_hal.o
HAL_DBGMCU_EnableDBGSleepMode                     /workspaces/qgv/hoverboard-firmware-hack-FOC/build/stm32f1xx_hal.o
HAL_DBGMCU_EnableDBGStandbyMode                   /workspaces/qgv/hoverboard-firmware-hack-FOC/build/stm32f1xx_hal.o
HAL_DBGMCU_EnableDBGStopMode                      /workspaces/qgv/hoverboard-firmware-hack-FOC/build/stm32f1xx_hal.o
HAL_DMA_Abort                                     /workspaces/qgv/hoverboard-firmware-hack-FOC/build/stm32f1xx_hal_dma.o
                                                  /workspaces/qgv/hoverboard-firmware-hack-FOC/build/stm32f1xx_hal_uart.o
                                                  /workspaces/qgv/hoverboard-firmware-hack-FOC/build/stm32f1xx_hal_adc.o
                                                  /workspaces/qgv/hoverboard-firmware-hack-FOC/build/stm32f1xx_hal_adc_ex.o
                                                  /workspaces/qgv/hoverboard-firmware-hack-FOC/build/stm32f1xx_hal_tim.o
HAL_DMA_Abort_IT                                  /workspaces/qgv/hoverboard-firmware-hack-FOC/build/stm32f1xx_hal_dma.o
                                                  /workspaces/qgv/hoverboard-firmware-hack-FOC/build/stm32f1xx_hal_i2c.o
                                                  /workspaces/qgv/hoverboard-firmware-hack-FOC/build/stm32f1xx_hal_uart.o
HAL_DMA_DeInit                                    /workspaces/qgv/hoverboard-firmware-hack-FOC/build/stm32f1xx_hal_dma.o
                                                  /workspaces/qgv/hoverboard-firmware-hack-FOC/build/setup.o
HAL_DMA_GetError                                  /workspaces/qgv/hoverboard-firmware-hack-FOC/build/stm32f1xx_hal_dma.o
HAL_DMA_GetState                                  /workspaces/qgv/hoverboard-firmware-hack-FOC/build/stm32f1xx_hal_dma.o
HAL_DMA_IRQHandler                                /workspaces/qgv/hoverboard-firmware-hack-FOC/build/stm32f1xx_hal_dma.o
                                                  /workspaces/qgv/hoverboard-firmware-hack-FOC/build/stm32f1xx_it.o
HAL_DMA_Init                                      /workspaces/qgv/hoverboard-firmware-hack-FOC/build/stm32f1xx_hal_dma.o
                                                  /workspaces/qgv/hoverboard-firmware-hack-FOC/build/setup.o
HAL_DMA_PollForTransfer                           /workspaces/qgv/hoverboard-firmware-hack-FOC/build/stm32f1xx_hal_dma.o
HAL_DMA_RegisterCallback                          /workspaces/qgv/hoverboard-firmware-hack-FOC/build/stm32f1xx_hal_dma.o
HAL_DMA_Start                                     /workspaces/qgv/hoverboard-firmware-hack-FOC/build/stm32f1xx_hal_dma.o
HAL_DMA_Start_IT                                  /workspaces/qgv/hoverboard-firmware-hack-FOC/build/stm32f1xx_hal_dma.o
                                                  /workspaces/qgv/hoverboard-firmware-hack-FOC/build/stm32f1xx_hal_i2c.o
                                                  /workspaces/qgv/hoverboard-firmware-hack-FOC/build/stm32f1xx_hal_uart.o
                                                  /workspaces/qgv/hoverboard-firmware-hack-FOC/build/stm32f1xx_hal_adc.o
                                                  /workspaces/qgv/hoverboard-firmware-hack-FOC/build/stm32f1xx_hal_adc_ex.o
                                                  /workspaces/qgv/hoverboard-firmware-hack-FOC/build/stm32f1xx_hal_tim_ex.o
                                                  /workspaces/qgv/hoverboard-firmware-hack-FOC/build/stm32f1xx_hal_tim.o
HAL_DMA_UnRegisterCallback                        /workspaces/qgv/hoverboard-firmware-hack-FOC/build/stm32f1xx_hal_dma.o
HAL_DeInit                                        /workspaces/qgv/hoverboard-firmware-hack-FOC/build/stm32f1xx_hal.o
HAL_Delay                                         /workspaces/qgv/hoverboard-firmware-hack-FOC/build/stm32f1xx_hal.o
                                                  /workspaces/qgv/hoverboard-firmware-hack-FOC/build/hd44780.o
                                                  /workspaces/qgv/hoverboard-firmware-hack-FOC/build/main.o
                                                  /workspaces/qgv/hoverboard-firmware-hack-FOC/build/util.o
                                                  /workspaces/qgv/hoverboard-firmware-hack-FOC/build/control.o
HAL_FLASHEx_Erase                                 /workspaces/qgv/hoverboard-firmware-hack-FOC/build/stm32f1xx_hal_flash_ex.o
                                                  /workspaces/qgv/hoverboard-firmware-hack-FOC/build/eeprom.o
HAL_FLASHEx_Erase_IT                              /workspaces/qgv/hoverboard-firmware-hack-FOC/build/stm32f1xx_hal_flash_ex.o
HAL_FLASHEx_OBErase                               /workspaces/qgv/hoverboard-firmware-hack-FOC/build/stm32f1xx_hal_flash_ex.o
HAL_FLASHEx_OBGetConfig                           /workspaces/qgv/hoverboard-firmware-hack-FOC/build/stm32f1xx_hal_flash_ex.o
HAL_FLASHEx_OBGetUserData                         /workspaces/qgv/hoverboard-firmware-hack-FOC/build/stm32f1xx_hal_flash_ex.o
HAL_FLASHEx_OBProgram                             /workspaces/qgv/hoverboard-firmware-hack-FOC/build/stm32f1xx_hal_flash_ex.o
HAL_FLASH_EndOfOperationCallback                  /workspaces/qgv/hoverboard-firmware-hack-FOC/build/stm32f1xx_hal_flash.o
HAL_FLASH_GetError                                /workspaces/qgv/hoverboard-firmware-hack-FOC/build/stm32f1xx_hal_flash.o
HAL_FLASH_IRQHandler                              /workspaces/qgv/hoverboard-firmware-hack-FOC/build/stm32f1xx_hal_flash.o
HAL_FLASH_Lock                                    /workspaces/qgv/hoverboard-firmware-hack-FOC/build/stm32f1xx_hal_flash.o
                                                  /workspaces/qgv/hoverboard-firmware-hack-FOC/build/util.o
HAL_FLASH_OB_Launch                               /workspaces/qgv/hoverboard-firmware-hack-FOC/build/stm32f1xx_hal_flash.o
HAL_FLASH_OB_Lock                                 /workspaces/qgv/hoverboard-firmware-hack-FOC/build/stm32f1xx_hal_flash.o
HAL_FLASH_OB_Unlock                               /workspaces/qgv/hoverboard-firmware-hack-FOC/build/stm32f1xx_hal_flash.o
HAL_FLASH_OperationErrorCallback                  /workspaces/qgv/hoverboard-firmware-hack-FOC/build/stm32f1xx_hal_flash.o
HAL_FLASH_Program                                 /workspaces/qgv/hoverboard-firmware-hack-FOC/build/stm32f1xx_hal_flash.o
                                                  /workspaces/qgv/hoverboard-firmware-hack-FOC/build/eeprom.o
HAL_FLASH_Program_IT                              /workspaces/qgv/hoverboard-firmware-hack-FOC/build/stm32f1xx_hal_flash.o
HAL_FLASH_Unlock                                  /workspaces/qgv/hoverboard-firmware-hack-FOC/build/stm32f1xx_hal_flash.o
                                                  /workspaces/qgv/hoverboard-firmware-hack-FOC/build/util.o
HAL_GPIOEx_ConfigEventout                         /workspaces/qgv/hoverboard-firmware-hack-FOC/build/stm32f1xx_hal_gpio_ex.o
HAL_GPIOEx_DisableEventout                        /workspaces/qgv/hoverboard-firmware-hack-FOC/build/stm32f1xx_hal_gpio_ex.o
HAL_GPIOEx_EnableEventout                         /workspaces/qgv/hoverboard-firmware-hack-FOC/build/stm32f1xx_hal_gpio_ex.o
HAL_GPIO_DeInit                                   /workspaces/qgv/hoverboard-firmware-hack-FOC/build/stm32f1xx_hal_gpio.o
                                                  /workspaces/qgv/hoverboard-firmware-hack-FOC/build/setup.o
HAL_GPIO_EXTI_Callback                            /workspaces/qgv/hoverboard-firmware-hack-FOC/build/stm32f1xx_hal_gpio.o
HAL_GPIO_EXTI_IRQHandler                          /workspaces/qgv/hoverboard-firmware-hack-FOC/build/stm32f1xx_hal_gpio.o
HAL_GPIO_Init                                     /workspaces/qgv/hoverboard-firmware-hack-FOC/build/stm32f1xx_hal_gpio.o
                                                  /workspaces/qgv/hoverboard-firmware-hack-FOC/build/setup.o
                                                  /workspaces/qgv/hoverboard-firmware-hack-FOC/build/stm32f1xx_hal_rcc.o
HAL_GPIO_LockPin                                  /workspaces/qgv/hoverboard-firmware-hack-FOC/build/stm32f1xx_hal_gpio.o
HAL_GPIO_ReadPin                                  /workspaces/qgv/hoverboard-firmware-hack-FOC/build/stm32f1xx_hal_gpio.o
                                                  /workspaces/qgv/hoverboard-firmware-hack-FOC/build/main.o
                                                  /workspaces/qgv/hoverboard-firmware-hack-FOC/build/util.o
HAL_GPIO_TogglePin                                /workspaces/qgv/hoverboard-firmware-hack-FOC/build/stm32f1xx_hal_gpio.o
                                                  /workspaces/qgv/hoverboard-firmware-hack-FOC/build/bldc.o
HAL_GPIO_WritePin                                 /workspaces/qgv/hoverboard-firmware-hack-FOC/build/stm32f1xx_hal_gpio.o
                                                  /workspaces/qgv/hoverboard-firmware-hack-FOC/build/bldc.o
                                                  /workspaces/qgv/hoverboard-firmware-hack-FOC/build/main.o
                                                  /workspaces/qgv/hoverboard-firmware-hack-FOC/build/util.o
HAL_GetDEVID                                      /workspaces/qgv/hoverboard-firmware-hack-FOC/build/stm32f1xx_hal.o
HAL_GetHalVersion                                 /workspaces/qgv/hoverboard-firmware-hack-FOC/build/stm32f1xx_hal.o
HAL_GetREVID                                      /workspaces/qgv/hoverboard-firmware-hack-FOC/build/stm32f1xx_hal.o
HAL_GetTick                                       /workspaces/qgv/hoverboard-firmware-hack-FOC/build/stm32f1xx_hal.o
                                                  /workspaces/qgv/hoverboard-firmware-hack-FOC/build/main.o
                                                  /workspaces/qgv/hoverboard-firmware-hack-FOC/build/stm32f1xx_hal_dma.o
                                                  /workspaces/qgv/hoverboard-firmware-hack-FOC/build/stm32f1xx_hal_i2c.o
                                                  /workspaces/qgv/hoverboard-firmware-hack-FOC/build/stm32f1xx_hal_uart.o
                                                  /workspaces/qgv/hoverboard-firmware-hack-FOC/build/stm32f1xx_hal_adc.o
                                                  /workspaces/qgv/hoverboard-firmware-hack-FOC/build/stm32f1xx_hal_rcc_ex.o
                                                  /workspaces/qgv/hoverboard-firmware-hack-FOC/build/stm32f1xx_hal_adc_ex.o
                                                  /workspaces/qgv/hoverboard-firmware-hack-FOC/build/stm32f1xx_hal_rcc.o
                                                  /workspaces/qgv/hoverboard-firmware-hack-FOC/build/stm32f1xx_hal_flash.o
HAL_GetUID                                        /workspaces/qgv/hoverboard-firmware-hack-FOC/build/stm32f1xx_hal.o
HAL_HalfDuplex_EnableReceiver                     /workspaces/qgv/hoverboard-firmware-hack-FOC/build/stm32f1xx_hal_uart.o
HAL_HalfDuplex_EnableTransmitter                  /workspaces/qgv/hoverboard-firmware-hack-FOC/build/stm32f1xx_hal_uart.o
HAL_HalfDuplex_Init                               /workspaces/qgv/hoverboard-firmware-hack-FOC/build/stm32f1xx_hal_uart.o
HAL_I2C_AbortCpltCallback                         /workspaces/qgv/hoverboard-firmware-hack-FOC/build/stm32f1xx_hal_i2c.o
HAL_I2C_AddrCallback                              /workspaces/qgv/hoverboard-firmware-hack-FOC/build/stm32f1xx_hal_i2c.o
HAL_I2C_DeInit                                    /workspaces/qgv/hoverboard-firmware-hack-FOC/build/stm32f1xx_hal_i2c.o
                                                  /workspaces/qgv/hoverboard-firmware-hack-FOC/build/pcf8574.o
HAL_I2C_DisableListen_IT                          /workspaces/qgv/hoverboard-firmware-hack-FOC/build/stm32f1xx_hal_i2c.o
HAL_I2C_ER_IRQHandler                             /workspaces/qgv/hoverboard-firmware-hack-FOC/build/stm32f1xx_hal_i2c.o
HAL_I2C_EV_IRQHandler                             /workspaces/qgv/hoverboard-firmware-hack-FOC/build/stm32f1xx_hal_i2c.o
HAL_I2C_EnableListen_IT                           /workspaces/qgv/hoverboard-firmware-hack-FOC/build/stm32f1xx_hal_i2c.o
HAL_I2C_ErrorCallback                             /workspaces/qgv/hoverboard-firmware-hack-FOC/build/stm32f1xx_hal_i2c.o
HAL_I2C_GetError                                  /workspaces/qgv/hoverboard-firmware-hack-FOC/build/stm32f1xx_hal_i2c.o
HAL_I2C_GetMode                                   /workspaces/qgv/hoverboard-firmware-hack-FOC/build/stm32f1xx_hal_i2c.o
HAL_I2C_GetState                                  /workspaces/qgv/hoverboard-firmware-hack-FOC/build/stm32f1xx_hal_i2c.o
HAL_I2C_Init                                      /workspaces/qgv/hoverboard-firmware-hack-FOC/build/stm32f1xx_hal_i2c.o
                                                  /workspaces/qgv/hoverboard-firmware-hack-FOC/build/setup.o
HAL_I2C_IsDeviceReady                             /workspaces/qgv/hoverboard-firmware-hack-FOC/build/stm32f1xx_hal_i2c.o
HAL_I2C_ListenCpltCallback                        /workspaces/qgv/hoverboard-firmware-hack-FOC/build/stm32f1xx_hal_i2c.o
HAL_I2C_MasterRxCpltCallback                      /workspaces/qgv/hoverboard-firmware-hack-FOC/build/stm32f1xx_hal_i2c.o
HAL_I2C_MasterTxCpltCallback                      /workspaces/qgv/hoverboard-firmware-hack-FOC/build/stm32f1xx_hal_i2c.o
HAL_I2C_Master_Abort_IT                           /workspaces/qgv/hoverboard-firmware-hack-FOC/build/stm32f1xx_hal_i2c.o
HAL_I2C_Master_Receive                            /workspaces/qgv/hoverboard-firmware-hack-FOC/build/stm32f1xx_hal_i2c.o
                                                  /workspaces/qgv/hoverboard-firmware-hack-FOC/build/pcf8574.o
                                                  /workspaces/qgv/hoverboard-firmware-hack-FOC/build/control.o
HAL_I2C_Master_Receive_DMA                        /workspaces/qgv/hoverboard-firmware-hack-FOC/build/stm32f1xx_hal_i2c.o
HAL_I2C_Master_Receive_IT                         /workspaces/qgv/hoverboard-firmware-hack-FOC/build/stm32f1xx_hal_i2c.o
HAL_I2C_Master_Sequential_Receive_IT              /workspaces/qgv/hoverboard-firmware-hack-FOC/build/stm32f1xx_hal_i2c.o
HAL_I2C_Master_Sequential_Transmit_IT             /workspaces/qgv/hoverboard-firmware-hack-FOC/build/stm32f1xx_hal_i2c.o
HAL_I2C_Master_Transmit                           /workspaces/qgv/hoverboard-firmware-hack-FOC/build/stm32f1xx_hal_i2c.o
                                                  /workspaces/qgv/hoverboard-firmware-hack-FOC/build/pcf8574.o
                                                  /workspaces/qgv/hoverboard-firmware-hack-FOC/build/control.o
HAL_I2C_Master_Transmit_DMA                       /workspaces/qgv/hoverboard-firmware-hack-FOC/build/stm32f1xx_hal_i2c.o
HAL_I2C_Master_Transmit_IT                        /workspaces/qgv/hoverboard-firmware-hack-FOC/build/stm32f1xx_hal_i2c.o
HAL_I2C_MemRxCpltCallback                         /workspaces/qgv/hoverboard-firmware-hack-FOC/build/stm32f1xx_hal_i2c.o
HAL_I2C_MemTxCpltCallback                         /workspaces/qgv/hoverboard-firmware-hack-FOC/build/stm32f1xx_hal_i2c.o
HAL_I2C_Mem_Read                                  /workspaces/qgv/hoverboard-firmware-hack-FOC/build/stm32f1xx_hal_i2c.o
HAL_I2C_Mem_Read_DMA                              /workspaces/qgv/hoverboard-firmware-hack-FOC/build/stm32f1xx_hal_i2c.o
HAL_I2C_Mem_Read_IT                               /workspaces/qgv/hoverboard-firmware-hack-FOC/build/stm32f1xx_hal_i2c.o
HAL_I2C_Mem_Write                                 /workspaces/qgv/hoverboard-firmware-hack-FOC/build/stm32f1xx_hal_i2c.o
HAL_I2C_Mem_Write_DMA                             /workspaces/qgv/hoverboard-firmware-hack-FOC/build/stm32f1xx_hal_i2c.o
HAL_I2C_Mem_Write_IT                              /workspaces/qgv/hoverboard-firmware-hack-FOC/build/stm32f1xx_hal_i2c.o
HAL_I2C_MspDeInit                                 /workspaces/qgv/hoverboard-firmware-hack-FOC/build/stm32f1xx_hal_i2c.o
HAL_I2C_MspInit                                   /workspaces/qgv/hoverboard-firmware-hack-FOC/build/stm32f1xx_hal_i2c.o
HAL_I2C_SlaveRxCpltCallback                       /workspaces/qgv/hoverboard-firmware-hack-FOC/build/stm32f1xx_hal_i2c.o
HAL_I2C_SlaveTxCpltCallback                       /workspaces/qgv/hoverboard-firmware-hack-FOC/build/stm32f1xx_hal_i2c.o
HAL_I2C_Slave_Receive                             /workspaces/qgv/hoverboard-firmware-hack-FOC/build/stm32f1xx_hal_i2c.o
HAL_I2C_Slave_Receive_DMA                         /workspaces/qgv/hoverboard-firmware-hack-FOC/build/stm32f1xx_hal_i2c.o
HAL_I2C_Slave_Receive_IT                          /workspaces/qgv/hoverboard-firmware-hack-FOC/build/stm32f1xx_hal_i2c.o
HAL_I2C_Slave_Sequential_Receive_IT               /workspaces/qgv/hoverboard-firmware-hack-FOC/build/stm32f1xx_hal_i2c.o
HAL_I2C_Slave_Sequential_Transmit_IT              /workspaces/qgv/hoverboard-firmware-hack-FOC/build/stm32f1xx_hal_i2c.o
HAL_I2C_Slave_Transmit                            /workspaces/qgv/hoverboard-firmware-hack-FOC/build/stm32f1xx_hal_i2c.o
HAL_I2C_Slave_Transmit_DMA                        /workspaces/qgv/hoverboard-firmware-hack-FOC/build/stm32f1xx_hal_i2c.o
HAL_I2C_Slave_Transmit_IT                         /workspaces/qgv/hoverboard-firmware-hack-FOC/build/stm32f1xx_hal_i2c.o
HAL_IncTick                                       /workspaces/qgv/hoverboard-firmware-hack-FOC/build/stm32f1xx_hal.o
                                                  /workspaces/qgv/hoverboard-firmware-hack-FOC/build/stm32f1xx_it.o
HAL_Init                                          /workspaces/qgv/hoverboard-firmware-hack-FOC/build/stm32f1xx_hal.o
                                                  /workspaces/qgv/hoverboard-firmware-hack-FOC/build/main.o
HAL_InitTick                                      /workspaces/qgv/hoverboard-firmware-hack-FOC/build/stm32f1xx_hal.o
                                                  /workspaces/qgv/hoverboard-firmware-hack-FOC/build/stm32f1xx_hal_rcc.o
HAL_LIN_Init                                      /workspaces/qgv/hoverboard-firmware-hack-FOC/build/stm32f1xx_hal_uart.o
HAL_LIN_SendBreak                                 /workspaces/qgv/hoverboard-firmware-hack-FOC/build/stm32f1xx_hal_uart.o
HAL_MspDeInit                                     /workspaces/qgv/hoverboard-firmware-hack-FOC/build/stm32f1xx_hal.o
HAL_MspInit                                       /workspaces/qgv/hoverboard-firmware-hack-FOC/build/stm32f1xx_hal.o
HAL_MultiProcessor_EnterMuteMode                  /workspaces/qgv/hoverboard-firmware-hack-FOC/build/stm32f1xx_hal_uart.o
HAL_MultiProcessor_ExitMuteMode                   /workspaces/qgv/hoverboard-firmware-hack-FOC/build/stm32f1xx_hal_uart.o
HAL_MultiProcessor_Init                           /workspaces/qgv/hoverboard-firmware-hack-FOC/build/stm32f1xx_hal_uart.o
HAL_NVIC_ClearPendingIRQ                          /workspaces/qgv/hoverboard-firmware-hack-FOC/build/stm32f1xx_hal_cortex.o
HAL_NVIC_DisableIRQ                               /workspaces/qgv/hoverboard-firmware-hack-FOC/build/stm32f1xx_hal_cortex.o
                                                  /workspaces/qgv/hoverboard-firmware-hack-FOC/build/setup.o
HAL_NVIC_EnableIRQ                                /workspaces/qgv/hoverboard-firmware-hack-FOC/build/stm32f1xx_hal_cortex.o
                                                  /workspaces/qgv/hoverboard-firmware-hack-FOC/build/setup.o
HAL_NVIC_GetActive                                /workspaces/qgv/hoverboard-firmware-hack-FOC/build/stm32f1xx_hal_cortex.o
HAL_NVIC_GetPendingIRQ                            /workspaces/qgv/hoverboard-firmware-hack-FOC/build/stm32f1xx_hal_cortex.o
HAL_NVIC_GetPriority                              /workspaces/qgv/hoverboard-firmware-hack-FOC/build/stm32f1xx_hal_cortex.o
HAL_NVIC_GetPriorityGrouping                      /workspaces/qgv/hoverboard-firmware-hack-FOC/build/stm32f1xx_hal_cortex.o
HAL_NVIC_SetPendingIRQ                            /workspaces/qgv/hoverboard-firmware-hack-FOC/build/stm32f1xx_hal_cortex.o
HAL_NVIC_SetPriority                              /workspaces/qgv/hoverboard-firmware-hack-FOC/build/stm32f1xx_hal_cortex.o
                                                  /workspaces/qgv/hoverboard-firmware-hack-FOC/build/main.o
                                                  /workspaces/qgv/hoverboard-firmware-hack-FOC/build/setup.o
                                                  /workspaces/qgv/hoverboard-firmware-hack-FOC/build/stm32f1xx_hal.o
HAL_NVIC_SetPriorityGrouping                      /workspaces/qgv/hoverboard-firmware-hack-FOC/build/stm32f1xx_hal_cortex.o
                                                  /workspaces/qgv/hoverboard-firmware-hack-FOC/build/main.o
                                                  /workspaces/qgv/hoverboard-firmware-hack-FOC/build/stm32f1xx_hal.o
HAL_NVIC_SystemReset                              /workspaces/qgv/hoverboard-firmware-hack-FOC/build/stm32f1xx_hal_cortex.o
                                                  /workspaces/qgv/hoverboard-firmware-hack-FOC/build/stm32f1xx_hal_flash.o
HAL_PWR_ConfigPVD                                 /workspaces/qgv/hoverboard-firmware-hack-FOC/build/stm32f1xx_hal_pwr.o
HAL_PWR_DeInit                                    /workspaces/qgv/hoverboard-firmware-hack-FOC/build/stm32f1xx_hal_pwr.o
HAL_PWR_DisableBkUpAccess                         /workspaces/qgv/hoverboard-firmware-hack-FOC/build/stm32f1xx_hal_pwr.o
HAL_PWR_DisablePVD                                /workspaces/qgv/hoverboard-firmware-hack-FOC/build/stm32f1xx_hal_pwr.o
HAL_PWR_DisableSEVOnPend                          /workspaces/qgv/hoverboard-firmware-hack-FOC/build/stm32f1xx_hal_pwr.o
HAL_PWR_DisableSleepOnExit                        /workspaces/qgv/hoverboard-firmware-hack-FOC/build/stm32f1xx_hal_pwr.o
HAL_PWR_DisableWakeUpPin                          /workspaces/qgv/hoverboard-firmware-hack-FOC/build/stm32f1xx_hal_pwr.o
HAL_PWR_EnableBkUpAccess                          /workspaces/qgv/hoverboard-firmware-hack-FOC/build/stm32f1xx_hal_pwr.o
HAL_PWR_EnablePVD                                 /workspaces/qgv/hoverboard-firmware-hack-FOC/build/stm32f1xx_hal_pwr.o
HAL_PWR_EnableSEVOnPend                           /workspaces/qgv/hoverboard-firmware-hack-FOC/build/stm32f1xx_hal_pwr.o
HAL_PWR_EnableSleepOnExit                         /workspaces/qgv/hoverboard-firmware-hack-FOC/build/stm32f1xx_hal_pwr.o
HAL_PWR_EnableWakeUpPin                           /workspaces/qgv/hoverboard-firmware-hack-FOC/build/stm32f1xx_hal_pwr.o
HAL_PWR_EnterSLEEPMode                            /workspaces/qgv/hoverboard-firmware-hack-FOC/build/stm32f1xx_hal_pwr.o
HAL_PWR_EnterSTANDBYMode                          /workspaces/qgv/hoverboard-firmware-hack-FOC/build/stm32f1xx_hal_pwr.o
HAL_PWR_EnterSTOPMode                             /workspaces/qgv/hoverboard-firmware-hack-FOC/build/stm32f1xx_hal_pwr.o
HAL_PWR_PVDCallback                               /workspaces/qgv/hoverboard-firmware-hack-FOC/build/stm32f1xx_hal_pwr.o
HAL_PWR_PVD_IRQHandler                            /workspaces/qgv/hoverboard-firmware-hack-FOC/build/stm32f1xx_hal_pwr.o
HAL_RCCEx_GetPeriphCLKConfig                      /workspaces/qgv/hoverboard-firmware-hack-FOC/build/stm32f1xx_hal_rcc_ex.o
HAL_RCCEx_GetPeriphCLKFreq                        /workspaces/qgv/hoverboard-firmware-hack-FOC/build/stm32f1xx_hal_rcc_ex.o
                                                  /workspaces/qgv/hoverboard-firmware-hack-FOC/build/stm32f1xx_hal_adc.o
                                                  /workspaces/qgv/hoverboard-firmware-hack-FOC/build/stm32f1xx_hal_adc_ex.o
HAL_RCCEx_PeriphCLKConfig                         /workspaces/qgv/hoverboard-firmware-hack-FOC/build/stm32f1xx_hal_rcc_ex.o
                                                  /workspaces/qgv/hoverboard-firmware-hack-FOC/build/main.o
HAL_RCC_CSSCallback                               /workspaces/qgv/hoverboard-firmware-hack-FOC/build/stm32f1xx_hal_rcc.o
HAL_RCC_ClockConfig                               /workspaces/qgv/hoverboard-firmware-hack-FOC/build/stm32f1xx_hal_rcc.o
                                                  /workspaces/qgv/hoverboard-firmware-hack-FOC/build/main.o
HAL_RCC_DeInit                                    /workspaces/qgv/hoverboard-firmware-hack-FOC/build/stm32f1xx_hal_rcc.o
HAL_RCC_DisableCSS                                /workspaces/qgv/hoverboard-firmware-hack-FOC/build/stm32f1xx_hal_rcc.o
HAL_RCC_EnableCSS                                 /workspaces/qgv/hoverboard-firmware-hack-FOC/build/stm32f1xx_hal_rcc.o
HAL_RCC_GetClockConfig                            /workspaces/qgv/hoverboard-firmware-hack-FOC/build/stm32f1xx_hal_rcc.o
HAL_RCC_GetHCLKFreq                               /workspaces/qgv/hoverboard-firmware-hack-FOC/build/stm32f1xx_hal_rcc.o
                                                  /workspaces/qgv/hoverboard-firmware-hack-FOC/build/main.o
HAL_RCC_GetOscConfig                              /workspaces/qgv/hoverboard-firmware-hack-FOC/build/stm32f1xx_hal_rcc.o
HAL_RCC_GetPCLK1Freq                              /workspaces/qgv/hoverboard-firmware-hack-FOC/build/stm32f1xx_hal_rcc.o
                                                  /workspaces/qgv/hoverboard-firmware-hack-FOC/build/stm32f1xx_hal_i2c.o
                                                  /workspaces/qgv/hoverboard-firmware-hack-FOC/build/stm32f1xx_hal_uart.o
HAL_RCC_GetPCLK2Freq                              /workspaces/qgv/hoverboard-firmware-hack-FOC/build/stm32f1xx_hal_rcc.o
                                                  /workspaces/qgv/hoverboard-firmware-hack-FOC/build/stm32f1xx_hal_uart.o
                                                  /workspaces/qgv/hoverboard-firmware-hack-FOC/build/stm32f1xx_hal_rcc_ex.o
HAL_RCC_GetSysClockFreq                           /workspaces/qgv/hoverboard-firmware-hack-FOC/build/stm32f1xx_hal_rcc.o
                                                  /workspaces/qgv/hoverboard-firmware-hack-FOC/build/stm32f1xx_hal_rcc_ex.o
HAL_RCC_MCOConfig                                 /workspaces/qgv/hoverboard-firmware-hack-FOC/build/stm32f1xx_hal_rcc.o
HAL_RCC_NMI_IRQHandler                            /workspaces/qgv/hoverboard-firmware-hack-FOC/build/stm32f1xx_hal_rcc.o
HAL_RCC_OscConfig                                 /workspaces/qgv/hoverboard-firmware-hack-FOC/build/stm32f1xx_hal_rcc.o
                                                  /workspaces/qgv/hoverboard-firmware-hack-FOC/build/main.o
HAL_ResumeTick                                    /workspaces/qgv/hoverboard-firmware-hack-FOC/build/stm32f1xx_hal.o
HAL_SYSTICK_CLKSourceConfig                       /workspaces/qgv/hoverboard-firmware-hack-FOC/build/stm32f1xx_hal_cortex.o
                                                  /workspaces/qgv/hoverboard-firmware-hack-FOC/build/main.o
HAL_SYSTICK_Callback                              /workspaces/qgv/hoverboard-firmware-hack-FOC/build/stm32f1xx_hal_cortex.o
HAL_SYSTICK_Config                                /workspaces/qgv/hoverboard-firmware-hack-FOC/build/stm32f1xx_hal_cortex.o
                                                  /workspaces/qgv/hoverboard-firmware-hack-FOC/build/main.o
                                                  /workspaces/qgv/hoverboard-firmware-hack-FOC/build/stm32f1xx_hal.o
HAL_SYSTICK_IRQHandler                            /workspaces/qgv/hoverboard-firmware-hack-FOC/build/stm32f1xx_hal_cortex.o
                                                  /workspaces/qgv/hoverboard-firmware-hack-FOC/build/stm32f1xx_it.o
HAL_SuspendTick                                   /workspaces/qgv/hoverboard-firmware-hack-FOC/build/stm32f1xx_hal.o
HAL_TIMEx_BreakCallback                           /workspaces/qgv/hoverboard-firmware-hack-FOC/build/stm32f1xx_hal_tim_ex.o
                                                  /workspaces/qgv/hoverboard-firmware-hack-FOC/build/stm32f1xx_hal_tim.o
HAL_TIMEx_CommutationCallback                     /workspaces/qgv/hoverboard-firmware-hack-FOC/build/stm32f1xx_hal_tim_ex.o
                                                  /workspaces/qgv/hoverboard-firmware-hack-FOC/build/stm32f1xx_hal_tim.o
HAL_TIMEx_ConfigBreakDeadTime                     /workspaces/qgv/hoverboard-firmware-hack-FOC/build/stm32f1xx_hal_tim_ex.o
                                                  /workspaces/qgv/hoverboard-firmware-hack-FOC/build/setup.o
HAL_TIMEx_ConfigCommutationEvent                  /workspaces/qgv/hoverboard-firmware-hack-FOC/build/stm32f1xx_hal_tim_ex.o
HAL_TIMEx_ConfigCommutationEvent_DMA              /workspaces/qgv/hoverboard-firmware-hack-FOC/build/stm32f1xx_hal_tim_ex.o
HAL_TIMEx_ConfigCommutationEvent_IT               /workspaces/qgv/hoverboard-firmware-hack-FOC/build/stm32f1xx_hal_tim_ex.o
HAL_TIMEx_HallSensor_DeInit                       /workspaces/qgv/hoverboard-firmware-hack-FOC/build/stm32f1xx_hal_tim_ex.o
HAL_TIMEx_HallSensor_GetState                     /workspaces/qgv/hoverboard-firmware-hack-FOC/build/stm32f1xx_hal_tim_ex.o
HAL_TIMEx_HallSensor_Init                         /workspaces/qgv/hoverboard-firmware-hack-FOC/build/stm32f1xx_hal_tim_ex.o
HAL_TIMEx_HallSensor_MspDeInit                    /workspaces/qgv/hoverboard-firmware-hack-FOC/build/stm32f1xx_hal_tim_ex.o
HAL_TIMEx_HallSensor_MspInit                      /workspaces/qgv/hoverboard-firmware-hack-FOC/build/stm32f1xx_hal_tim_ex.o
HAL_TIMEx_HallSensor_Start                        /workspaces/qgv/hoverboard-firmware-hack-FOC/build/stm32f1xx_hal_tim_ex.o
HAL_TIMEx_HallSensor_Start_DMA                    /workspaces/qgv/hoverboard-firmware-hack-FOC/build/stm32f1xx_hal_tim_ex.o
HAL_TIMEx_HallSensor_Start_IT                     /workspaces/qgv/hoverboard-firmware-hack-FOC/build/stm32f1xx_hal_tim_ex.o
HAL_TIMEx_HallSensor_Stop                         /workspaces/qgv/hoverboard-firmware-hack-FOC/build/stm32f1xx_hal_tim_ex.o
HAL_TIMEx_HallSensor_Stop_DMA                     /workspaces/qgv/hoverboard-firmware-hack-FOC/build/stm32f1xx_hal_tim_ex.o
HAL_TIMEx_HallSensor_Stop_IT                      /workspaces/qgv/hoverboard-firmware-hack-FOC/build/stm32f1xx_hal_tim_ex.o
HAL_TIMEx_MasterConfigSynchronization             /workspaces/qgv/hoverboard-firmware-hack-FOC/build/stm32f1xx_hal_tim_ex.o
                                                  /workspaces/qgv/hoverboard-firmware-hack-FOC/build/setup.o
HAL_TIMEx_OCN_Start                               /workspaces/qgv/hoverboard-firmware-hack-FOC/build/stm32f1xx_hal_tim_ex.o
HAL_TIMEx_OCN_Start_DMA                           /workspaces/qgv/hoverboard-firmware-hack-FOC/build/stm32f1xx_hal_tim_ex.o
HAL_TIMEx_OCN_Start_IT                            /workspaces/qgv/hoverboard-firmware-hack-FOC/build/stm32f1xx_hal_tim_ex.o
HAL_TIMEx_OCN_Stop                                /workspaces/qgv/hoverboard-firmware-hack-FOC/build/stm32f1xx_hal_tim_ex.o
HAL_TIMEx_OCN_Stop_DMA                            /workspaces/qgv/hoverboard-firmware-hack-FOC/build/stm32f1xx_hal_tim_ex.o
HAL_TIMEx_OCN_Stop_IT                             /workspaces/qgv/hoverboard-firmware-hack-FOC/build/stm32f1xx_hal_tim_ex.o
HAL_TIMEx_OnePulseN_Start                         /workspaces/qgv/hoverboard-firmware-hack-FOC/build/stm32f1xx_hal_tim_ex.o
HAL_TIMEx_OnePulseN_Start_IT                      /workspaces/qgv/hoverboard-firmware-hack-FOC/build/stm32f1xx_hal_tim_ex.o
HAL_TIMEx_OnePulseN_Stop                          /workspaces/qgv/hoverboard-firmware-hack-FOC/build/stm32f1xx_hal_tim_ex.o
HAL_TIMEx_OnePulseN_Stop_IT                       /workspaces/qgv/hoverboard-firmware-hack-FOC/build/stm32f1xx_hal_tim_ex.o
HAL_TIMEx_PWMN_Start                              /workspaces/qgv/hoverboard-firmware-hack-FOC/build/stm32f1xx_hal_tim_ex.o
                                                  /workspaces/qgv/hoverboard-firmware-hack-FOC/build/setup.o
HAL_TIMEx_PWMN_Start_DMA                          /workspaces/qgv/hoverboard-firmware-hack-FOC/build/stm32f1xx_hal_tim_ex.o
HAL_TIMEx_PWMN_Start_IT                           /workspaces/qgv/hoverboard-firmware-hack-FOC/build/stm32f1xx_hal_tim_ex.o
HAL_TIMEx_PWMN_Stop                               /workspaces/qgv/hoverboard-firmware-hack-FOC/build/stm32f1xx_hal_tim_ex.o
HAL_TIMEx_PWMN_Stop_DMA                           /workspaces/qgv/hoverboard-firmware-hack-FOC/build/stm32f1xx_hal_tim_ex.o
HAL_TIMEx_PWMN_Stop_IT                            /workspaces/qgv/hoverboard-firmware-hack-FOC/build/stm32f1xx_hal_tim_ex.o
HAL_TIM_Base_DeInit                               /workspaces/qgv/hoverboard-firmware-hack-FOC/build/stm32f1xx_hal_tim.o
HAL_TIM_Base_GetState                             /workspaces/qgv/hoverboard-firmware-hack-FOC/build/stm32f1xx_hal_tim.o
HAL_TIM_Base_Init                                 /workspaces/qgv/hoverboard-firmware-hack-FOC/build/stm32f1xx_hal_tim.o
HAL_TIM_Base_MspDeInit                            /workspaces/qgv/hoverboard-firmware-hack-FOC/build/stm32f1xx_hal_tim.o
HAL_TIM_Base_MspInit                              /workspaces/qgv/hoverboard-firmware-hack-FOC/build/stm32f1xx_hal_tim.o
HAL_TIM_Base_Start                                /workspaces/qgv/hoverboard-firmware-hack-FOC/build/stm32f1xx_hal_tim.o
HAL_TIM_Base_Start_DMA                            /workspaces/qgv/hoverboard-firmware-hack-FOC/build/stm32f1xx_hal_tim.o
HAL_TIM_Base_Start_IT                             /workspaces/qgv/hoverboard-firmware-hack-FOC/build/stm32f1xx_hal_tim.o
HAL_TIM_Base_Stop                                 /workspaces/qgv/hoverboard-firmware-hack-FOC/build/stm32f1xx_hal_tim.o
HAL_TIM_Base_Stop_DMA                             /workspaces/qgv/hoverboard-firmware-hack-FOC/build/stm32f1xx_hal_tim.o
HAL_TIM_Base_Stop_IT                              /workspaces/qgv/hoverboard-firmware-hack-FOC/build/stm32f1xx_hal_tim.o
HAL_TIM_ConfigClockSource                         /workspaces/qgv/hoverboard-firmware-hack-FOC/build/stm32f1xx_hal_tim.o
HAL_TIM_ConfigOCrefClear                          /workspaces/qgv/hoverboard-firmware-hack-FOC/build/stm32f1xx_hal_tim.o
HAL_TIM_ConfigTI1Input                            /workspaces/qgv/hoverboard-firmware-hack-FOC/build/stm32f1xx_hal_tim.o
HAL_TIM_DMABurst_ReadStart                        /workspaces/qgv/hoverboard-firmware-hack-FOC/build/stm32f1xx_hal_tim.o
HAL_TIM_DMABurst_ReadStop                         /workspaces/qgv/hoverboard-firmware-hack-FOC/build/stm32f1xx_hal_tim.o
HAL_TIM_DMABurst_WriteStart                       /workspaces/qgv/hoverboard-firmware-hack-FOC/build/stm32f1xx_hal_tim.o
HAL_TIM_DMABurst_WriteStop                        /workspaces/qgv/hoverboard-firmware-hack-FOC/build/stm32f1xx_hal_tim.o
HAL_TIM_Encoder_DeInit                            /workspaces/qgv/hoverboard-firmware-hack-FOC/build/stm32f1xx_hal_tim.o
HAL_TIM_Encoder_GetState                          /workspaces/qgv/hoverboard-firmware-hack-FOC/build/stm32f1xx_hal_tim.o
HAL_TIM_Encoder_Init                              /workspaces/qgv/hoverboard-firmware-hack-FOC/build/stm32f1xx_hal_tim.o
HAL_TIM_Encoder_MspDeInit                         /workspaces/qgv/hoverboard-firmware-hack-FOC/build/stm32f1xx_hal_tim.o
HAL_TIM_Encoder_MspInit                           /workspaces/qgv/hoverboard-firmware-hack-FOC/build/stm32f1xx_hal_tim.o
HAL_TIM_Encoder_Start                             /workspaces/qgv/hoverboard-firmware-hack-FOC/build/stm32f1xx_hal_tim.o
HAL_TIM_Encoder_Start_DMA                         /workspaces/qgv/hoverboard-firmware-hack-FOC/build/stm32f1xx_hal_tim.o
HAL_TIM_Encoder_Start_IT                          /workspaces/qgv/hoverboard-firmware-hack-FOC/build/stm32f1xx_hal_tim.o
HAL_TIM_Encoder_Stop                              /workspaces/qgv/hoverboard-firmware-hack-FOC/build/stm32f1xx_hal_tim.o
HAL_TIM_Encoder_Stop_DMA                          /workspaces/qgv/hoverboard-firmware-hack-FOC/build/stm32f1xx_hal_tim.o
HAL_TIM_Encoder_Stop_IT                           /workspaces/qgv/hoverboard-firmware-hack-FOC/build/stm32f1xx_hal_tim.o
HAL_TIM_ErrorCallback                             /workspaces/qgv/hoverboard-firmware-hack-FOC/build/stm32f1xx_hal_tim.o
HAL_TIM_GenerateEvent                             /workspaces/qgv/hoverboard-firmware-hack-FOC/build/stm32f1xx_hal_tim.o
HAL_TIM_IC_CaptureCallback                        /workspaces/qgv/hoverboard-firmware-hack-FOC/build/stm32f1xx_hal_tim.o
HAL_TIM_IC_ConfigChannel                          /workspaces/qgv/hoverboard-firmware-hack-FOC/build/stm32f1xx_hal_tim.o
HAL_TIM_IC_DeInit                                 /workspaces/qgv/hoverboard-firmware-hack-FOC/build/stm32f1xx_hal_tim.o
HAL_TIM_IC_GetState                               /workspaces/qgv/hoverboard-firmware-hack-FOC/build/stm32f1xx_hal_tim.o
HAL_TIM_IC_Init                                   /workspaces/qgv/hoverboard-firmware-hack-FOC/build/stm32f1xx_hal_tim.o
HAL_TIM_IC_MspDeInit                              /workspaces/qgv/hoverboard-firmware-hack-FOC/build/stm32f1xx_hal_tim.o
HAL_TIM_IC_MspInit                                /workspaces/qgv/hoverboard-firmware-hack-FOC/build/stm32f1xx_hal_tim.o
HAL_TIM_IC_Start                                  /workspaces/qgv/hoverboard-firmware-hack-FOC/build/stm32f1xx_hal_tim.o
HAL_TIM_IC_Start_DMA                              /workspaces/qgv/hoverboard-firmware-hack-FOC/build/stm32f1xx_hal_tim.o
HAL_TIM_IC_Start_IT                               /workspaces/qgv/hoverboard-firmware-hack-FOC/build/stm32f1xx_hal_tim.o
HAL_TIM_IC_Stop                                   /workspaces/qgv/hoverboard-firmware-hack-FOC/build/stm32f1xx_hal_tim.o
HAL_TIM_IC_Stop_DMA                               /workspaces/qgv/hoverboard-firmware-hack-FOC/build/stm32f1xx_hal_tim.o
HAL_TIM_IC_Stop_IT                                /workspaces/qgv/hoverboard-firmware-hack-FOC/build/stm32f1xx_hal_tim.o
HAL_TIM_IRQHandler                                /workspaces/qgv/hoverboard-firmware-hack-FOC/build/stm32f1xx_hal_tim.o
HAL_TIM_OC_ConfigChannel                          /workspaces/qgv/hoverboard-firmware-hack-FOC/build/stm32f1xx_hal_tim.o
HAL_TIM_OC_DeInit                                 /workspaces/qgv/hoverboard-firmware-hack-FOC/build/stm32f1xx_hal_tim.o
HAL_TIM_OC_DelayElapsedCallback                   /workspaces/qgv/hoverboard-firmware-hack-FOC/build/stm32f1xx_hal_tim.o
HAL_TIM_OC_GetState                               /workspaces/qgv/hoverboard-firmware-hack-FOC/build/stm32f1xx_hal_tim.o
HAL_TIM_OC_Init                                   /workspaces/qgv/hoverboard-firmware-hack-FOC/build/stm32f1xx_hal_tim.o
HAL_TIM_OC_MspDeInit                              /workspaces/qgv/hoverboard-firmware-hack-FOC/build/stm32f1xx_hal_tim.o
HAL_TIM_OC_MspInit                                /workspaces/qgv/hoverboard-firmware-hack-FOC/build/stm32f1xx_hal_tim.o
HAL_TIM_OC_Start                                  /workspaces/qgv/hoverboard-firmware-hack-FOC/build/stm32f1xx_hal_tim.o
HAL_TIM_OC_Start_DMA                              /workspaces/qgv/hoverboard-firmware-hack-FOC/build/stm32f1xx_hal_tim.o
HAL_TIM_OC_Start_IT                               /workspaces/qgv/hoverboard-firmware-hack-FOC/build/stm32f1xx_hal_tim.o
HAL_TIM_OC_Stop                                   /workspaces/qgv/hoverboard-firmware-hack-FOC/build/stm32f1xx_hal_tim.o
HAL_TIM_OC_Stop_DMA                               /workspaces/qgv/hoverboard-firmware-hack-FOC/build/stm32f1xx_hal_tim.o
HAL_TIM_OC_Stop_IT                                /workspaces/qgv/hoverboard-firmware-hack-FOC/build/stm32f1xx_hal_tim.o
HAL_TIM_OnePulse_ConfigChannel                    /workspaces/qgv/hoverboard-firmware-hack-FOC/build/stm32f1xx_hal_tim.o
HAL_TIM_OnePulse_DeInit                           /workspaces/qgv/hoverboard-firmware-hack-FOC/build/stm32f1xx_hal_tim.o
HAL_TIM_OnePulse_GetState                         /workspaces/qgv/hoverboard-firmware-hack-FOC/build/stm32f1xx_hal_tim.o
HAL_TIM_OnePulse_Init                             /workspaces/qgv/hoverboard-firmware-hack-FOC/build/stm32f1xx_hal_tim.o
HAL_TIM_OnePulse_MspDeInit                        /workspaces/qgv/hoverboard-firmware-hack-FOC/build/stm32f1xx_hal_tim.o
HAL_TIM_OnePulse_MspInit                          /workspaces/qgv/hoverboard-firmware-hack-FOC/build/stm32f1xx_hal_tim.o
HAL_TIM_OnePulse_Start                            /workspaces/qgv/hoverboard-firmware-hack-FOC/build/stm32f1xx_hal_tim.o
HAL_TIM_OnePulse_Start_IT                         /workspaces/qgv/hoverboard-firmware-hack-FOC/build/stm32f1xx_hal_tim.o
HAL_TIM_OnePulse_Stop                             /workspaces/qgv/hoverboard-firmware-hack-FOC/build/stm32f1xx_hal_tim.o
HAL_TIM_OnePulse_Stop_IT                          /workspaces/qgv/hoverboard-firmware-hack-FOC/build/stm32f1xx_hal_tim.o
HAL_TIM_PWM_ConfigChannel                         /workspaces/qgv/hoverboard-firmware-hack-FOC/build/stm32f1xx_hal_tim.o
                                                  /workspaces/qgv/hoverboard-firmware-hack-FOC/build/setup.o
HAL_TIM_PWM_DeInit                                /workspaces/qgv/hoverboard-firmware-hack-FOC/build/stm32f1xx_hal_tim.o
HAL_TIM_PWM_GetState                              /workspaces/qgv/hoverboard-firmware-hack-FOC/build/stm32f1xx_hal_tim.o
HAL_TIM_PWM_Init                                  /workspaces/qgv/hoverboard-firmware-hack-FOC/build/stm32f1xx_hal_tim.o
                                                  /workspaces/qgv/hoverboard-firmware-hack-FOC/build/setup.o
HAL_TIM_PWM_MspDeInit                             /workspaces/qgv/hoverboard-firmware-hack-FOC/build/stm32f1xx_hal_tim.o
HAL_TIM_PWM_MspInit                               /workspaces/qgv/hoverboard-firmware-hack-FOC/build/stm32f1xx_hal_tim.o
HAL_TIM_PWM_PulseFinishedCallback                 /workspaces/qgv/hoverboard-firmware-hack-FOC/build/stm32f1xx_hal_tim.o
HAL_TIM_PWM_Start                                 /workspaces/qgv/hoverboard-firmware-hack-FOC/build/stm32f1xx_hal_tim.o
                                                  /workspaces/qgv/hoverboard-firmware-hack-FOC/build/setup.o
HAL_TIM_PWM_Start_DMA                             /workspaces/qgv/hoverboard-firmware-hack-FOC/build/stm32f1xx_hal_tim.o
HAL_TIM_PWM_Start_IT                              /workspaces/qgv/hoverboard-firmware-hack-FOC/build/stm32f1xx_hal_tim.o
HAL_TIM_PWM_Stop                                  /workspaces/qgv/hoverboard-firmware-hack-FOC/build/stm32f1xx_hal_tim.o
HAL_TIM_PWM_Stop_DMA                              /workspaces/qgv/hoverboard-firmware-hack-FOC/build/stm32f1xx_hal_tim.o
HAL_TIM_PWM_Stop_IT                               /workspaces/qgv/hoverboard-firmware-hack-FOC/build/stm32f1xx_hal_tim.o
HAL_TIM_PeriodElapsedCallback                     /workspaces/qgv/hoverboard-firmware-hack-FOC/build/stm32f1xx_hal_tim.o
HAL_TIM_ReadCapturedValue                         /workspaces/qgv/hoverboard-firmware-hack-FOC/build/stm32f1xx_hal_tim.o
HAL_TIM_SlaveConfigSynchronization                /workspaces/qgv/hoverboard-firmware-hack-FOC/build/stm32f1xx_hal_tim.o
                                                  /workspaces/qgv/hoverboard-firmware-hack-FOC/build/setup.o
HAL_TIM_SlaveConfigSynchronization_IT             /workspaces/qgv/hoverboard-firmware-hack-FOC/build/stm32f1xx_hal_tim.o
HAL_TIM_TriggerCallback                           /workspaces/qgv/hoverboard-firmware-hack-FOC/build/stm32f1xx_hal_tim.o
HAL_UART_Abort                                    /workspaces/qgv/hoverboard-firmware-hack-FOC/build/stm32f1xx_hal_uart.o
HAL_UART_AbortCpltCallback                        /workspaces/qgv/hoverboard-firmware-hack-FOC/build/stm32f1xx_hal_uart.o
HAL_UART_AbortReceive                             /workspaces/qgv/hoverboard-firmware-hack-FOC/build/stm32f1xx_hal_uart.o
HAL_UART_AbortReceiveCpltCallback                 /workspaces/qgv/hoverboard-firmware-hack-FOC/build/stm32f1xx_hal_uart.o
HAL_UART_AbortReceive_IT                          /workspaces/qgv/hoverboard-firmware-hack-FOC/build/stm32f1xx_hal_uart.o
HAL_UART_AbortTransmit                            /workspaces/qgv/hoverboard-firmware-hack-FOC/build/stm32f1xx_hal_uart.o
HAL_UART_AbortTransmitCpltCallback                /workspaces/qgv/hoverboard-firmware-hack-FOC/build/stm32f1xx_hal_uart.o
HAL_UART_AbortTransmit_IT                         /workspaces/qgv/hoverboard-firmware-hack-FOC/build/stm32f1xx_hal_uart.o
HAL_UART_Abort_IT                                 /workspaces/qgv/hoverboard-firmware-hack-FOC/build/stm32f1xx_hal_uart.o
HAL_UART_DMAPause                                 /workspaces/qgv/hoverboard-firmware-hack-FOC/build/stm32f1xx_hal_uart.o
HAL_UART_DMAResume                                /workspaces/qgv/hoverboard-firmware-hack-FOC/build/stm32f1xx_hal_uart.o
HAL_UART_DMAStop                                  /workspaces/qgv/hoverboard-firmware-hack-FOC/build/stm32f1xx_hal_uart.o
HAL_UART_DeInit                                   /workspaces/qgv/hoverboard-firmware-hack-FOC/build/stm32f1xx_hal_uart.o
HAL_UART_ErrorCallback                            /workspaces/qgv/hoverboard-firmware-hack-FOC/build/stm32f1xx_hal_uart.o
HAL_UART_GetError                                 /workspaces/qgv/hoverboard-firmware-hack-FOC/build/stm32f1xx_hal_uart.o
HAL_UART_GetState                                 /workspaces/qgv/hoverboard-firmware-hack-FOC/build/stm32f1xx_hal_uart.o
HAL_UART_IRQHandler                               /workspaces/qgv/hoverboard-firmware-hack-FOC/build/stm32f1xx_hal_uart.o
                                                  /workspaces/qgv/hoverboard-firmware-hack-FOC/build/stm32f1xx_it.o
HAL_UART_Init                                     /workspaces/qgv/hoverboard-firmware-hack-FOC/build/stm32f1xx_hal_uart.o
                                                  /workspaces/qgv/hoverboard-firmware-hack-FOC/build/setup.o
HAL_UART_MspDeInit                                /workspaces/qgv/hoverboard-firmware-hack-FOC/build/setup.o
                                                  /workspaces/qgv/hoverboard-firmware-hack-FOC/build/stm32f1xx_hal_uart.o
HAL_UART_MspInit                                  /workspaces/qgv/hoverboard-firmware-hack-FOC/build/setup.o
                                                  /workspaces/qgv/hoverboard-firmware-hack-FOC/build/stm32f1xx_hal_uart.o
HAL_UART_Receive                                  /workspaces/qgv/hoverboard-firmware-hack-FOC/build/stm32f1xx_hal_uart.o
HAL_UART_Receive_DMA                              /workspaces/qgv/hoverboard-firmware-hack-FOC/build/stm32f1xx_hal_uart.o
                                                  /workspaces/qgv/hoverboard-firmware-hack-FOC/build/util.o
HAL_UART_Receive_IT                               /workspaces/qgv/hoverboard-firmware-hack-FOC/build/stm32f1xx_hal_uart.o
HAL_UART_RxCpltCallback                           /workspaces/qgv/hoverboard-firmware-hack-FOC/build/stm32f1xx_hal_uart.o
HAL_UART_RxHalfCpltCallback                       /workspaces/qgv/hoverboard-firmware-hack-FOC/build/stm32f1xx_hal_uart.o
HAL_UART_Transmit                                 /workspaces/qgv/hoverboard-firmware-hack-FOC/build/stm32f1xx_hal_uart.o
HAL_UART_Transmit_DMA                             /workspaces/qgv/hoverboard-firmware-hack-FOC/build/stm32f1xx_hal_uart.o
                                                  /workspaces/qgv/hoverboard-firmware-hack-FOC/build/main.o
HAL_UART_Transmit_IT                              /workspaces/qgv/hoverboard-firmware-hack-FOC/build/stm32f1xx_hal_uart.o
HAL_UART_TxCpltCallback                           /workspaces/qgv/hoverboard-firmware-hack-FOC/build/stm32f1xx_hal_uart.o
HAL_UART_TxHalfCpltCallback                       /workspaces/qgv/hoverboard-firmware-hack-FOC/build/stm32f1xx_hal_uart.o
HardFault_Handler                                 /workspaces/qgv/hoverboard-firmware-hack-FOC/build/stm32f1xx_it.o
I2C1_ER_IRQHandler                                /workspaces/qgv/hoverboard-firmware-hack-FOC/build/startup_stm32f103xe.o
I2C1_EV_IRQHandler                                /workspaces/qgv/hoverboard-firmware-hack-FOC/build/startup_stm32f103xe.o
I2C2_ER_IRQHandler                                /workspaces/qgv/hoverboard-firmware-hack-FOC/build/startup_stm32f103xe.o
I2C2_EV_IRQHandler                                /workspaces/qgv/hoverboard-firmware-hack-FOC/build/startup_stm32f103xe.o
I2C_Init                                          /workspaces/qgv/hoverboard-firmware-hack-FOC/build/setup.o
                                                  /workspaces/qgv/hoverboard-firmware-hack-FOC/build/control.o
I_backCalc_fixdt                                  /workspaces/qgv/hoverboard-firmware-hack-FOC/build/BLDC_controller.o
I_backCalc_fixdt_Init                             /workspaces/qgv/hoverboard-firmware-hack-FOC/build/BLDC_controller.o
I_backCalc_fixdt_Reset                            /workspaces/qgv/hoverboard-firmware-hack-FOC/build/BLDC_controller.o
Input_Init                                        /workspaces/qgv/hoverboard-firmware-hack-FOC/build/util.o
                                                  /workspaces/qgv/hoverboard-firmware-hack-FOC/build/main.o
Input_Lim_Init                                    /workspaces/qgv/hoverboard-firmware-hack-FOC/build/util.o
                                                  /workspaces/qgv/hoverboard-firmware-hack-FOC/build/main.o
LCD_ClearDisplay                                  /workspaces/qgv/hoverboard-firmware-hack-FOC/build/hd44780.o
LCD_CursorOFF                                     /workspaces/qgv/hoverboard-firmware-hack-FOC/build/hd44780.o
LCD_CursorON                                      /workspaces/qgv/hoverboard-firmware-hack-FOC/build/hd44780.o
LCD_CustomChar                                    /workspaces/qgv/hoverboard-firmware-hack-FOC/build/hd44780.o
LCD_DisplayOFF                                    /workspaces/qgv/hoverboard-firmware-hack-FOC/build/hd44780.o
LCD_DisplayON                                     /workspaces/qgv/hoverboard-firmware-hack-FOC/build/hd44780.o
LCD_EntryModeSet                                  /workspaces/qgv/hoverboard-firmware-hack-FOC/build/hd44780.o
LCD_GetBusyFlag                                   /workspaces/qgv/hoverboard-firmware-hack-FOC/build/hd44780.o
LCD_I2C_WriteOut                                  /workspaces/qgv/hoverboard-firmware-hack-FOC/build/hd44780.o
LCD_Init                                          /workspaces/qgv/hoverboard-firmware-hack-FOC/build/hd44780.o
LCD_SetLocation                                   /workspaces/qgv/hoverboard-firmware-hack-FOC/build/hd44780.o
LCD_ShiftCursor                                   /workspaces/qgv/hoverboard-firmware-hack-FOC/build/hd44780.o
LCD_ShiftDisplay                                  /workspaces/qgv/hoverboard-firmware-hack-FOC/build/hd44780.o
LCD_StateLEDControl                               /workspaces/qgv/hoverboard-firmware-hack-FOC/build/hd44780.o
LCD_StateWriteBit                                 /workspaces/qgv/hoverboard-firmware-hack-FOC/build/hd44780.o
LCD_WaitForBusyFlag                               /workspaces/qgv/hoverboard-firmware-hack-FOC/build/hd44780.o
LCD_WriteCMD                                      /workspaces/qgv/hoverboard-firmware-hack-FOC/build/hd44780.o
LCD_WriteDATA                                     /workspaces/qgv/hoverboard-firmware-hack-FOC/build/hd44780.o
LCD_WriteFloat                                    /workspaces/qgv/hoverboard-firmware-hack-FOC/build/hd44780.o
LCD_WriteNumber                                   /workspaces/qgv/hoverboard-firmware-hack-FOC/build/hd44780.o
LCD_WriteString                                   /workspaces/qgv/hoverboard-firmware-hack-FOC/build/hd44780.o
LCD_WriteToDataBus                                /workspaces/qgv/hoverboard-firmware-hack-FOC/build/hd44780.o
LCDerrorFlag                                      /workspaces/qgv/hoverboard-firmware-hack-FOC/build/hd44780.o
Low_Pass_Filter                                   /workspaces/qgv/hoverboard-firmware-hack-FOC/build/BLDC_controller.o
Low_Pass_Filter_Reset                             /workspaces/qgv/hoverboard-firmware-hack-FOC/build/BLDC_controller.o
MX_ADC1_Init                                      /workspaces/qgv/hoverboard-firmware-hack-FOC/build/setup.o
                                                  /workspaces/qgv/hoverboard-firmware-hack-FOC/build/main.o
MX_ADC2_Init                                      /workspaces/qgv/hoverboard-firmware-hack-FOC/build/setup.o
                                                  /workspaces/qgv/hoverboard-firmware-hack-FOC/build/main.o
MX_GPIO_Init                                      /workspaces/qgv/hoverboard-firmware-hack-FOC/build/setup.o
                                                  /workspaces/qgv/hoverboard-firmware-hack-FOC/build/main.o
MX_TIM_Init                                       /workspaces/qgv/hoverboard-firmware-hack-FOC/build/setup.o
                                                  /workspaces/qgv/hoverboard-firmware-hack-FOC/build/main.o
MemManage_Handler                                 /workspaces/qgv/hoverboard-firmware-hack-FOC/build/stm32f1xx_it.o
NMI_Handler                                       /workspaces/qgv/hoverboard-firmware-hack-FOC/build/stm32f1xx_it.o
Nunchuk_Connect                                   /workspaces/qgv/hoverboard-firmware-hack-FOC/build/control.o
Nunchuk_Init                                      /workspaces/qgv/hoverboard-firmware-hack-FOC/build/control.o
Nunchuk_Read                                      /workspaces/qgv/hoverboard-firmware-hack-FOC/build/control.o
Nunchuk_rx                                        /workspaces/qgv/hoverboard-firmware-hack-FOC/build/control.o
Nunchuk_tx                                        /workspaces/qgv/hoverboard-firmware-hack-FOC/build/control.o
PCF8574_DeInit                                    /workspaces/qgv/hoverboard-firmware-hack-FOC/build/pcf8574.o
PCF8574_Init                                      /workspaces/qgv/hoverboard-firmware-hack-FOC/build/pcf8574.o
                                                  /workspaces/qgv/hoverboard-firmware-hack-FOC/build/hd44780.o
PCF8574_Read                                      /workspaces/qgv/hoverboard-firmware-hack-FOC/build/pcf8574.o
PCF8574_Type0Pins                                 /workspaces/qgv/hoverboard-firmware-hack-FOC/build/hd44780.o
PCF8574_Write                                     /workspaces/qgv/hoverboard-firmware-hack-FOC/build/pcf8574.o
                                                  /workspaces/qgv/hoverboard-firmware-hack-FOC/build/hd44780.o
PI_clamp_fixdt                                    /workspaces/qgv/hoverboard-firmware-hack-FOC/build/BLDC_controller.o
PI_clamp_fixdt_Init                               /workspaces/qgv/hoverboard-firmware-hack-FOC/build/BLDC_controller.o
PI_clamp_fixdt_Reset                              /workspaces/qgv/hoverboard-firmware-hack-FOC/build/BLDC_controller.o
PI_clamp_fixdt_b_Reset                            /workspaces/qgv/hoverboard-firmware-hack-FOC/build/BLDC_controller.o
PI_clamp_fixdt_d_Init                             /workspaces/qgv/hoverboard-firmware-hack-FOC/build/BLDC_controller.o
PI_clamp_fixdt_f_Init                             /workspaces/qgv/hoverboard-firmware-hack-FOC/build/BLDC_controller.o
PI_clamp_fixdt_g_Reset                            /workspaces/qgv/hoverboard-firmware-hack-FOC/build/BLDC_controller.o
PI_clamp_fixdt_k                                  /workspaces/qgv/hoverboard-firmware-hack-FOC/build/BLDC_controller.o
PI_clamp_fixdt_l                                  /workspaces/qgv/hoverboard-firmware-hack-FOC/build/BLDC_controller.o
PVD_IRQHandler                                    /workspaces/qgv/hoverboard-firmware-hack-FOC/build/startup_stm32f103xe.o
PendSV_Handler                                    /workspaces/qgv/hoverboard-firmware-hack-FOC/build/stm32f1xx_it.o
RCC_IRQHandler                                    /workspaces/qgv/hoverboard-firmware-hack-FOC/build/startup_stm32f103xe.o
RTC_Alarm_IRQHandler                              /workspaces/qgv/hoverboard-firmware-hack-FOC/build/startup_stm32f103xe.o
RTC_IRQHandler                                    /workspaces/qgv/hoverboard-firmware-hack-FOC/build/startup_stm32f103xe.o
Reset_Handler                                     /workspaces/qgv/hoverboard-firmware-hack-FOC/build/startup_stm32f103xe.o
SDIO_IRQHandler                                   /workspaces/qgv/hoverboard-firmware-hack-FOC/build/startup_stm32f103xe.o
SPI1_IRQHandler                                   /workspaces/qgv/hoverboard-firmware-hack-FOC/build/startup_stm32f103xe.o
SPI2_IRQHandler                                   /workspaces/qgv/hoverboard-firmware-hack-FOC/build/startup_stm32f103xe.o
SPI3_IRQHandler                                   /workspaces/qgv/hoverboard-firmware-hack-FOC/build/startup_stm32f103xe.o
SVC_Handler                                       /workspaces/qgv/hoverboard-firmware-hack-FOC/build/stm32f1xx_it.o
Sideboard_R                                       /workspaces/qgv/hoverboard-firmware-hack-FOC/build/util.o
                                                  /workspaces/qgv/hoverboard-firmware-hack-FOC/build/main.o
Sideboard_R_raw                                   /workspaces/qgv/hoverboard-firmware-hack-FOC/build/util.o
SysTick_Handler                                   /workspaces/qgv/hoverboard-firmware-hack-FOC/build/stm32f1xx_it.o
SystemClock_Config                                /workspaces/qgv/hoverboard-firmware-hack-FOC/build/main.o
SystemCoreClock                                   /workspaces/qgv/hoverboard-firmware-hack-FOC/build/system_stm32f1xx.o
                                                  /workspaces/qgv/hoverboard-firmware-hack-FOC/build/stm32f1xx_hal_i2c.o
                                                  /workspaces/qgv/hoverboard-firmware-hack-FOC/build/stm32f1xx_hal_adc.o
                                                  /workspaces/qgv/hoverboard-firmware-hack-FOC/build/stm32f1xx_hal.o
                                                  /workspaces/qgv/hoverboard-firmware-hack-FOC/build/stm32f1xx_hal_adc_ex.o
                                                  /workspaces/qgv/hoverboard-firmware-hack-FOC/build/stm32f1xx_hal_rcc.o
SystemCoreClockUpdate                             /workspaces/qgv/hoverboard-firmware-hack-FOC/build/system_stm32f1xx.o
SystemInit                                        /workspaces/qgv/hoverboard-firmware-hack-FOC/build/system_stm32f1xx.o
                                                  /workspaces/qgv/hoverboard-firmware-hack-FOC/build/startup_stm32f103xe.o
TAMPER_IRQHandler                                 /workspaces/qgv/hoverboard-firmware-hack-FOC/build/startup_stm32f103xe.o
TIM1_BRK_IRQHandler                               /workspaces/qgv/hoverboard-firmware-hack-FOC/build/startup_stm32f103xe.o
TIM1_CC_IRQHandler                                /workspaces/qgv/hoverboard-firmware-hack-FOC/build/startup_stm32f103xe.o
TIM1_TRG_COM_IRQHandler                           /workspaces/qgv/hoverboard-firmware-hack-FOC/build/startup_stm32f103xe.o
TIM1_UP_IRQHandler                                /workspaces/qgv/hoverboard-firmware-hack-FOC/build/startup_stm32f103xe.o
TIM2_IRQHandler                                   /workspaces/qgv/hoverboard-firmware-hack-FOC/build/startup_stm32f103xe.o
TIM3_IRQHandler                                   /workspaces/qgv/hoverboard-firmware-hack-FOC/build/startup_stm32f103xe.o
TIM4_IRQHandler                                   /workspaces/qgv/hoverboard-firmware-hack-FOC/build/startup_stm32f103xe.o
TIM5_IRQHandler                                   /workspaces/qgv/hoverboard-firmware-hack-FOC/build/startup_stm32f103xe.o
TIM6_IRQHandler                                   /workspaces/qgv/hoverboard-firmware-hack-FOC/build/startup_stm32f103xe.o
TIM7_IRQHandler                                   /workspaces/qgv/hoverboard-firmware-hack-FOC/build/startup_stm32f103xe.o
TIM8_BRK_IRQHandler                               /workspaces/qgv/hoverboard-firmware-hack-FOC/build/startup_stm32f103xe.o
TIM8_CC_IRQHandler                                /workspaces/qgv/hoverboard-firmware-hack-FOC/build/startup_stm32f103xe.o
TIM8_TRG_COM_IRQHandler                           /workspaces/qgv/hoverboard-firmware-hack-FOC/build/startup_stm32f103xe.o
TIM8_UP_IRQHandler                                /workspaces/qgv/hoverboard-firmware-hack-FOC/build/startup_stm32f103xe.o
TIMEx_DMACommutationCplt                          /workspaces/qgv/hoverboard-firmware-hack-FOC/build/stm32f1xx_hal_tim_ex.o
                                                  /workspaces/qgv/hoverboard-firmware-hack-FOC/build/stm32f1xx_hal_tim.o
TIM_Base_SetConfig                                /workspaces/qgv/hoverboard-firmware-hack-FOC/build/stm32f1xx_hal_tim.o
                                                  /workspaces/qgv/hoverboard-firmware-hack-FOC/build/stm32f1xx_hal_tim_ex.o
TIM_CCxChannelCmd                                 /workspaces/qgv/hoverboard-firmware-hack-FOC/build/stm32f1xx_hal_tim.o
                                                  /workspaces/qgv/hoverboard-firmware-hack-FOC/build/stm32f1xx_hal_tim_ex.o
TIM_DMACaptureCplt                                /workspaces/qgv/hoverboard-firmware-hack-FOC/build/stm32f1xx_hal_tim.o
                                                  /workspaces/qgv/hoverboard-firmware-hack-FOC/build/stm32f1xx_hal_tim_ex.o
TIM_DMADelayPulseCplt                             /workspaces/qgv/hoverboard-firmware-hack-FOC/build/stm32f1xx_hal_tim.o
                                                  /workspaces/qgv/hoverboard-firmware-hack-FOC/build/stm32f1xx_hal_tim_ex.o
TIM_DMAError                                      /workspaces/qgv/hoverboard-firmware-hack-FOC/build/stm32f1xx_hal_tim.o
                                                  /workspaces/qgv/hoverboard-firmware-hack-FOC/build/stm32f1xx_hal_tim_ex.o
TIM_OC2_SetConfig                                 /workspaces/qgv/hoverboard-firmware-hack-FOC/build/stm32f1xx_hal_tim.o
                                                  /workspaces/qgv/hoverboard-firmware-hack-FOC/build/stm32f1xx_hal_tim_ex.o
TIM_TI1_SetConfig                                 /workspaces/qgv/hoverboard-firmware-hack-FOC/build/stm32f1xx_hal_tim.o
                                                  /workspaces/qgv/hoverboard-firmware-hack-FOC/build/stm32f1xx_hal_tim_ex.o
TimHandle                                         /workspaces/qgv/hoverboard-firmware-hack-FOC/build/control.o
TimHandle2                                        /workspaces/qgv/hoverboard-firmware-hack-FOC/build/control.o
UART3_Init                                        /workspaces/qgv/hoverboard-firmware-hack-FOC/build/setup.o
                                                  /workspaces/qgv/hoverboard-firmware-hack-FOC/build/util.o
UART4_IRQHandler                                  /workspaces/qgv/hoverboard-firmware-hack-FOC/build/startup_stm32f103xe.o
UART5_IRQHandler                                  /workspaces/qgv/hoverboard-firmware-hack-FOC/build/startup_stm32f103xe.o
UART_DisableRxErrors                              /workspaces/qgv/hoverboard-firmware-hack-FOC/build/util.o
USART1_IRQHandler                                 /workspaces/qgv/hoverboard-firmware-hack-FOC/build/startup_stm32f103xe.o
USART2_IRQHandler                                 /workspaces/qgv/hoverboard-firmware-hack-FOC/build/startup_stm32f103xe.o
USART3_IRQHandler                                 /workspaces/qgv/hoverboard-firmware-hack-FOC/build/stm32f1xx_it.o
USBWakeUp_IRQHandler                              /workspaces/qgv/hoverboard-firmware-hack-FOC/build/startup_stm32f103xe.o
USB_HP_CAN1_TX_IRQHandler                         /workspaces/qgv/hoverboard-firmware-hack-FOC/build/startup_stm32f103xe.o
USB_LP_CAN1_RX0_IRQHandler                        /workspaces/qgv/hoverboard-firmware-hack-FOC/build/startup_stm32f103xe.o
UsageFault_Handler                                /workspaces/qgv/hoverboard-firmware-hack-FOC/build/stm32f1xx_it.o
VirtAddVarTab                                     /workspaces/qgv/hoverboard-firmware-hack-FOC/build/util.o
                                                  /workspaces/qgv/hoverboard-firmware-hack-FOC/build/eeprom.o
WWDG_IRQHandler                                   /workspaces/qgv/hoverboard-firmware-hack-FOC/build/startup_stm32f103xe.o
_ITM_deregisterTMCloneTable                       /usr/lib/gcc/arm-none-eabi/13.2.1/thumb/v7-m/nofp/crtbegin.o
_ITM_registerTMCloneTable                         /usr/lib/gcc/arm-none-eabi/13.2.1/thumb/v7-m/nofp/crtbegin.o
__TMC_END__                                       /usr/lib/gcc/arm-none-eabi/13.2.1/thumb/v7-m/nofp/crtend.o
                                                  /usr/lib/gcc/arm-none-eabi/13.2.1/thumb/v7-m/nofp/crtbegin.o
__adddf3                                          /usr/lib/gcc/arm-none-eabi/13.2.1/thumb/v7-m/nofp/libgcc.a(_arm_addsubdf3.o)
__aeabi_cdcmpeq                                   /usr/lib/gcc/arm-none-eabi/13.2.1/thumb/v7-m/nofp/libgcc.a(_arm_cmpdf2.o)
__aeabi_cdcmple                                   /usr/lib/gcc/arm-none-eabi/13.2.1/thumb/v7-m/nofp/libgcc.a(_arm_cmpdf2.o)
__aeabi_cdrcmple                                  /usr/lib/gcc/arm-none-eabi/13.2.1/thumb/v7-m/nofp/libgcc.a(_arm_cmpdf2.o)
__aeabi_d2iz                                      /usr/lib/gcc/arm-none-eabi/13.2.1/thumb/v7-m/nofp/libgcc.a(_arm_fixdfsi.o)
                                                  /workspaces/qgv/hoverboard-firmware-hack-FOC/build/hd44780.o
__aeabi_d2uiz                                     /usr/lib/gcc/arm-none-eabi/13.2.1/thumb/v7-m/nofp/libgcc.a(_arm_fixunsdfsi.o)
                                                  /workspaces/qgv/hoverboard-firmware-hack-FOC/build/hd44780.o
__aeabi_dadd                                      /usr/lib/gcc/arm-none-eabi/13.2.1/thumb/v7-m/nofp/libgcc.a(_arm_addsubdf3.o)
                                                  /workspaces/qgv/hoverboard-firmware-hack-FOC/build/hd44780.o
__aeabi_dcmpeq                                    /usr/lib/gcc/arm-none-eabi/13.2.1/thumb/v7-m/nofp/libgcc.a(_arm_cmpdf2.o)
__aeabi_dcmpge                                    /usr/lib/gcc/arm-none-eabi/13.2.1/thumb/v7-m/nofp/libgcc.a(_arm_cmpdf2.o)
__aeabi_dcmpgt                                    /usr/lib/gcc/arm-none-eabi/13.2.1/thumb/v7-m/nofp/libgcc.a(_arm_cmpdf2.o)
__aeabi_dcmple                                    /usr/lib/gcc/arm-none-eabi/13.2.1/thumb/v7-m/nofp/libgcc.a(_arm_cmpdf2.o)
__aeabi_dcmplt                                    /usr/lib/gcc/arm-none-eabi/13.2.1/thumb/v7-m/nofp/libgcc.a(_arm_cmpdf2.o)
                                                  /workspaces/qgv/hoverboard-firmware-hack-FOC/build/hd44780.o
__aeabi_ddiv                                      /usr/lib/gcc/arm-none-eabi/13.2.1/thumb/v7-m/nofp/libgcc.a(_arm_muldivdf3.o)
                                                  /workspaces/qgv/hoverboard-firmware-hack-FOC/build/hd44780.o
__aeabi_dmul                                      /usr/lib/gcc/arm-none-eabi/13.2.1/thumb/v7-m/nofp/libgcc.a(_arm_muldivdf3.o)
                                                  /usr/lib/gcc/arm-none-eabi/13.2.1/thumb/v7-m/nofp/libgcc.a(_arm_muldf3.o)
                                                  /workspaces/qgv/hoverboard-firmware-hack-FOC/build/hd44780.o
__aeabi_drsub                                     /usr/lib/gcc/arm-none-eabi/13.2.1/thumb/v7-m/nofp/libgcc.a(_arm_addsubdf3.o)
__aeabi_dsub                                      /usr/lib/gcc/arm-none-eabi/13.2.1/thumb/v7-m/nofp/libgcc.a(_arm_addsubdf3.o)
                                                  /workspaces/qgv/hoverboard-firmware-hack-FOC/build/hd44780.o
__aeabi_f2d                                       /usr/lib/gcc/arm-none-eabi/13.2.1/thumb/v7-m/nofp/libgcc.a(_arm_addsubdf3.o)
__aeabi_i2d                                       /usr/lib/gcc/arm-none-eabi/13.2.1/thumb/v7-m/nofp/libgcc.a(_arm_addsubdf3.o)
                                                  /workspaces/qgv/hoverboard-firmware-hack-FOC/build/hd44780.o
__aeabi_l2d                                       /usr/lib/gcc/arm-none-eabi/13.2.1/thumb/v7-m/nofp/libgcc.a(_arm_addsubdf3.o)
__aeabi_ui2d                                      /usr/lib/gcc/arm-none-eabi/13.2.1/thumb/v7-m/nofp/libgcc.a(_arm_addsubdf3.o)
                                                  /workspaces/qgv/hoverboard-firmware-hack-FOC/build/hd44780.o
__aeabi_ul2d                                      /usr/lib/gcc/arm-none-eabi/13.2.1/thumb/v7-m/nofp/libgcc.a(_arm_addsubdf3.o)
__atexit                                          /usr/lib/gcc/arm-none-eabi/13.2.1/../../../arm-none-eabi/lib/thumb/v7-m/nofp/libc_nano.a(libc_a-__call_atexit.o)
                                                  /usr/lib/gcc/arm-none-eabi/13.2.1/../../../arm-none-eabi/lib/thumb/v7-m/nofp/libc_nano.a(libc_a-__atexit.o)
__atexit0                                         /usr/lib/gcc/arm-none-eabi/13.2.1/../../../arm-none-eabi/lib/thumb/v7-m/nofp/libc_nano.a(libc_a-__atexit.o)
__atexit_dummy                                    /usr/lib/gcc/arm-none-eabi/13.2.1/../../../arm-none-eabi/lib/thumb/v7-m/nofp/libc_nano.a(libc_a-__atexit.o)
__bss_end__                                       /usr/lib/gcc/arm-none-eabi/13.2.1/../../../arm-none-eabi/lib/thumb/v7-m/nofp/crt0.o
__bss_start__                                     /usr/lib/gcc/arm-none-eabi/13.2.1/../../../arm-none-eabi/lib/thumb/v7-m/nofp/crt0.o
__call_exitprocs                                  /usr/lib/gcc/arm-none-eabi/13.2.1/../../../arm-none-eabi/lib/thumb/v7-m/nofp/libc_nano.a(libc_a-__call_atexit.o)
                                                  /usr/lib/gcc/arm-none-eabi/13.2.1/../../../arm-none-eabi/lib/thumb/v7-m/nofp/libc_nano.a(libc_a-__atexit.o)
                                                  /usr/lib/gcc/arm-none-eabi/13.2.1/../../../arm-none-eabi/lib/thumb/v7-m/nofp/libc_nano.a(libc_a-exit.o)
__cmpdf2                                          /usr/lib/gcc/arm-none-eabi/13.2.1/thumb/v7-m/nofp/libgcc.a(_arm_cmpdf2.o)
__deregister_frame_info                           /usr/lib/gcc/arm-none-eabi/13.2.1/thumb/v7-m/nofp/crtbegin.o
__divdf3                                          /usr/lib/gcc/arm-none-eabi/13.2.1/thumb/v7-m/nofp/libgcc.a(_arm_muldivdf3.o)
__dso_handle                                      /usr/lib/gcc/arm-none-eabi/13.2.1/thumb/v7-m/nofp/crtbegin.o
__eqdf2                                           /usr/lib/gcc/arm-none-eabi/13.2.1/thumb/v7-m/nofp/libgcc.a(_arm_cmpdf2.o)
__extendsfdf2                                     /usr/lib/gcc/arm-none-eabi/13.2.1/thumb/v7-m/nofp/libgcc.a(_arm_addsubdf3.o)
__fini_array_end                                  /usr/lib/gcc/arm-none-eabi/13.2.1/../../../arm-none-eabi/lib/thumb/v7-m/nofp/libc_nano.a(libc_a-fini.o)
__fini_array_start                                /usr/lib/gcc/arm-none-eabi/13.2.1/../../../arm-none-eabi/lib/thumb/v7-m/nofp/libc_nano.a(libc_a-fini.o)
__fixdfsi                                         /usr/lib/gcc/arm-none-eabi/13.2.1/thumb/v7-m/nofp/libgcc.a(_arm_fixdfsi.o)
__fixunsdfsi                                      /usr/lib/gcc/arm-none-eabi/13.2.1/thumb/v7-m/nofp/libgcc.a(_arm_fixunsdfsi.o)
__floatdidf                                       /usr/lib/gcc/arm-none-eabi/13.2.1/thumb/v7-m/nofp/libgcc.a(_arm_addsubdf3.o)
__floatsidf                                       /usr/lib/gcc/arm-none-eabi/13.2.1/thumb/v7-m/nofp/libgcc.a(_arm_addsubdf3.o)
__floatundidf                                     /usr/lib/gcc/arm-none-eabi/13.2.1/thumb/v7-m/nofp/libgcc.a(_arm_addsubdf3.o)
__floatunsidf                                     /usr/lib/gcc/arm-none-eabi/13.2.1/thumb/v7-m/nofp/libgcc.a(_arm_addsubdf3.o)
__fp_lock_all                                     /usr/lib/gcc/arm-none-eabi/13.2.1/../../../arm-none-eabi/lib/thumb/v7-m/nofp/libc_nano.a(libc_a-findfp.o)
__fp_unlock_all                                   /usr/lib/gcc/arm-none-eabi/13.2.1/../../../arm-none-eabi/lib/thumb/v7-m/nofp/libc_nano.a(libc_a-findfp.o)
__gedf2                                           /usr/lib/gcc/arm-none-eabi/13.2.1/thumb/v7-m/nofp/libgcc.a(_arm_cmpdf2.o)
__gtdf2                                           /usr/lib/gcc/arm-none-eabi/13.2.1/thumb/v7-m/nofp/libgcc.a(_arm_cmpdf2.o)
__init_array_end                                  /usr/lib/gcc/arm-none-eabi/13.2.1/../../../arm-none-eabi/lib/thumb/v7-m/nofp/libc_nano.a(libc_a-init.o)
__init_array_start                                /usr/lib/gcc/arm-none-eabi/13.2.1/../../../arm-none-eabi/lib/thumb/v7-m/nofp/libc_nano.a(libc_a-init.o)
__ledf2                                           /usr/lib/gcc/arm-none-eabi/13.2.1/thumb/v7-m/nofp/libgcc.a(_arm_cmpdf2.o)
__libc_fini_array                                 /usr/lib/gcc/arm-none-eabi/13.2.1/../../../arm-none-eabi/lib/thumb/v7-m/nofp/libc_nano.a(libc_a-fini.o)
                                                  /usr/lib/gcc/arm-none-eabi/13.2.1/../../../arm-none-eabi/lib/thumb/v7-m/nofp/crt0.o
__libc_init_array                                 /usr/lib/gcc/arm-none-eabi/13.2.1/../../../arm-none-eabi/lib/thumb/v7-m/nofp/libc_nano.a(libc_a-init.o)
                                                  /workspaces/qgv/hoverboard-firmware-hack-FOC/build/startup_stm32f103xe.o
                                                  /usr/lib/gcc/arm-none-eabi/13.2.1/../../../arm-none-eabi/lib/thumb/v7-m/nofp/crt0.o
__ltdf2                                           /usr/lib/gcc/arm-none-eabi/13.2.1/thumb/v7-m/nofp/libgcc.a(_arm_cmpdf2.o)
__malloc_free_list                                /usr/lib/gcc/arm-none-eabi/13.2.1/../../../arm-none-eabi/lib/thumb/v7-m/nofp/libc_nano.a(libc_a-mallocr.o)
                                                  /usr/lib/gcc/arm-none-eabi/13.2.1/../../../arm-none-eabi/lib/thumb/v7-m/nofp/libc_nano.a(libc_a-freer.o)
__malloc_lock                                     /usr/lib/gcc/arm-none-eabi/13.2.1/../../../arm-none-eabi/lib/thumb/v7-m/nofp/libc_nano.a(libc_a-mlock.o)
                                                  /usr/lib/gcc/arm-none-eabi/13.2.1/../../../arm-none-eabi/lib/thumb/v7-m/nofp/libc_nano.a(libc_a-freer.o)
                                                  /usr/lib/gcc/arm-none-eabi/13.2.1/../../../arm-none-eabi/lib/thumb/v7-m/nofp/libc_nano.a(libc_a-mallocr.o)
__malloc_sbrk_start                               /usr/lib/gcc/arm-none-eabi/13.2.1/../../../arm-none-eabi/lib/thumb/v7-m/nofp/libc_nano.a(libc_a-mallocr.o)
__malloc_unlock                                   /usr/lib/gcc/arm-none-eabi/13.2.1/../../../arm-none-eabi/lib/thumb/v7-m/nofp/libc_nano.a(libc_a-mlock.o)
                                                  /usr/lib/gcc/arm-none-eabi/13.2.1/../../../arm-none-eabi/lib/thumb/v7-m/nofp/libc_nano.a(libc_a-freer.o)
                                                  /usr/lib/gcc/arm-none-eabi/13.2.1/../../../arm-none-eabi/lib/thumb/v7-m/nofp/libc_nano.a(libc_a-mallocr.o)
__muldf3                                          /usr/lib/gcc/arm-none-eabi/13.2.1/thumb/v7-m/nofp/libgcc.a(_arm_muldivdf3.o)
                                                  /usr/lib/gcc/arm-none-eabi/13.2.1/thumb/v7-m/nofp/libgcc.a(_arm_muldf3.o)
__nedf2                                           /usr/lib/gcc/arm-none-eabi/13.2.1/thumb/v7-m/nofp/libgcc.a(_arm_cmpdf2.o)
__on_exit_args                                    /usr/lib/gcc/arm-none-eabi/13.2.1/../../../arm-none-eabi/lib/thumb/v7-m/nofp/libc_nano.a(libc_a-__atexit.o)
__preinit_array_end                               /usr/lib/gcc/arm-none-eabi/13.2.1/../../../arm-none-eabi/lib/thumb/v7-m/nofp/libc_nano.a(libc_a-init.o)
__preinit_array_start                             /usr/lib/gcc/arm-none-eabi/13.2.1/../../../arm-none-eabi/lib/thumb/v7-m/nofp/libc_nano.a(libc_a-init.o)
__register_exitproc                               /usr/lib/gcc/arm-none-eabi/13.2.1/../../../arm-none-eabi/lib/thumb/v7-m/nofp/libc_nano.a(libc_a-__atexit.o)
                                                  /usr/lib/gcc/arm-none-eabi/13.2.1/../../../arm-none-eabi/lib/thumb/v7-m/nofp/libc_nano.a(libc_a-atexit.o)
__register_frame_info                             /usr/lib/gcc/arm-none-eabi/13.2.1/thumb/v7-m/nofp/crtbegin.o
__sclose                                          /usr/lib/gcc/arm-none-eabi/13.2.1/../../../arm-none-eabi/lib/thumb/v7-m/nofp/libc_nano.a(libc_a-stdio.o)
                                                  /usr/lib/gcc/arm-none-eabi/13.2.1/../../../arm-none-eabi/lib/thumb/v7-m/nofp/libc_nano.a(libc_a-findfp.o)
__seofread                                        /usr/lib/gcc/arm-none-eabi/13.2.1/../../../arm-none-eabi/lib/thumb/v7-m/nofp/libc_nano.a(libc_a-stdio.o)
__sf                                              /usr/lib/gcc/arm-none-eabi/13.2.1/../../../arm-none-eabi/lib/thumb/v7-m/nofp/libc_nano.a(libc_a-findfp.o)
                                                  /usr/lib/gcc/arm-none-eabi/13.2.1/../../../arm-none-eabi/lib/thumb/v7-m/nofp/libc_nano.a(libc_a-impure.o)
__sflush_r                                        /usr/lib/gcc/arm-none-eabi/13.2.1/../../../arm-none-eabi/lib/thumb/v7-m/nofp/libc_nano.a(libc_a-fflush.o)
__sfp                                             /usr/lib/gcc/arm-none-eabi/13.2.1/../../../arm-none-eabi/lib/thumb/v7-m/nofp/libc_nano.a(libc_a-findfp.o)
__sfp_lock_acquire                                /usr/lib/gcc/arm-none-eabi/13.2.1/../../../arm-none-eabi/lib/thumb/v7-m/nofp/libc_nano.a(libc_a-findfp.o)
__sfp_lock_release                                /usr/lib/gcc/arm-none-eabi/13.2.1/../../../arm-none-eabi/lib/thumb/v7-m/nofp/libc_nano.a(libc_a-findfp.o)
__sfputs_r                                        /usr/lib/gcc/arm-none-eabi/13.2.1/../../../arm-none-eabi/lib/thumb/v7-m/nofp/libc_nano.a(libc_a-nano-vfprintf.o)
__sfvwrite_r                                      /usr/lib/gcc/arm-none-eabi/13.2.1/../../../arm-none-eabi/lib/thumb/v7-m/nofp/libc_nano.a(libc_a-fvwrite.o)
                                                  /usr/lib/gcc/arm-none-eabi/13.2.1/../../../arm-none-eabi/lib/thumb/v7-m/nofp/libc_nano.a(libc_a-nano-vfprintf.o)
__sglue                                           /usr/lib/gcc/arm-none-eabi/13.2.1/../../../arm-none-eabi/lib/thumb/v7-m/nofp/libc_nano.a(libc_a-findfp.o)
                                                  /usr/lib/gcc/arm-none-eabi/13.2.1/../../../arm-none-eabi/lib/thumb/v7-m/nofp/libc_nano.a(libc_a-fflush.o)
__sinit                                           /usr/lib/gcc/arm-none-eabi/13.2.1/../../../arm-none-eabi/lib/thumb/v7-m/nofp/libc_nano.a(libc_a-findfp.o)
                                                  /usr/lib/gcc/arm-none-eabi/13.2.1/../../../arm-none-eabi/lib/thumb/v7-m/nofp/libc_nano.a(libc_a-wsetup.o)
                                                  /usr/lib/gcc/arm-none-eabi/13.2.1/../../../arm-none-eabi/lib/thumb/v7-m/nofp/libc_nano.a(libc_a-fflush.o)
                                                  /usr/lib/gcc/arm-none-eabi/13.2.1/../../../arm-none-eabi/lib/thumb/v7-m/nofp/libc_nano.a(libc_a-wbuf.o)
                                                  /usr/lib/gcc/arm-none-eabi/13.2.1/../../../arm-none-eabi/lib/thumb/v7-m/nofp/libc_nano.a(libc_a-nano-vfprintf.o)
__smakebuf_r                                      /usr/lib/gcc/arm-none-eabi/13.2.1/../../../arm-none-eabi/lib/thumb/v7-m/nofp/libc_nano.a(libc_a-makebuf.o)
                                                  /usr/lib/gcc/arm-none-eabi/13.2.1/../../../arm-none-eabi/lib/thumb/v7-m/nofp/libc_nano.a(libc_a-wsetup.o)
__sprint_r                                        /usr/lib/gcc/arm-none-eabi/13.2.1/../../../arm-none-eabi/lib/thumb/v7-m/nofp/libc_nano.a(libc_a-nano-vfprintf.o)
__sread                                           /usr/lib/gcc/arm-none-eabi/13.2.1/../../../arm-none-eabi/lib/thumb/v7-m/nofp/libc_nano.a(libc_a-stdio.o)
                                                  /usr/lib/gcc/arm-none-eabi/13.2.1/../../../arm-none-eabi/lib/thumb/v7-m/nofp/libc_nano.a(libc_a-findfp.o)
__sseek                                           /usr/lib/gcc/arm-none-eabi/13.2.1/../../../arm-none-eabi/lib/thumb/v7-m/nofp/libc_nano.a(libc_a-stdio.o)
                                                  /usr/lib/gcc/arm-none-eabi/13.2.1/../../../arm-none-eabi/lib/thumb/v7-m/nofp/libc_nano.a(libc_a-findfp.o)
__stack                                           /usr/lib/gcc/arm-none-eabi/13.2.1/../../../arm-none-eabi/lib/thumb/v7-m/nofp/crt0.o
__stdio_exit_handler                              /usr/lib/gcc/arm-none-eabi/13.2.1/../../../arm-none-eabi/lib/thumb/v7-m/nofp/libc_nano.a(libc_a-findfp.o)
                                                  /usr/lib/gcc/arm-none-eabi/13.2.1/../../../arm-none-eabi/lib/thumb/v7-m/nofp/libc_nano.a(libc_a-exit.o)
__subdf3                                          /usr/lib/gcc/arm-none-eabi/13.2.1/thumb/v7-m/nofp/libgcc.a(_arm_addsubdf3.o)
__swbuf                                           /usr/lib/gcc/arm-none-eabi/13.2.1/../../../arm-none-eabi/lib/thumb/v7-m/nofp/libc_nano.a(libc_a-wbuf.o)
__swbuf_r                                         /usr/lib/gcc/arm-none-eabi/13.2.1/../../../arm-none-eabi/lib/thumb/v7-m/nofp/libc_nano.a(libc_a-wbuf.o)
                                                  /usr/lib/gcc/arm-none-eabi/13.2.1/../../../arm-none-eabi/lib/thumb/v7-m/nofp/libc_nano.a(libc_a-nano-vfprintf.o)
__swhatbuf_r                                      /usr/lib/gcc/arm-none-eabi/13.2.1/../../../arm-none-eabi/lib/thumb/v7-m/nofp/libc_nano.a(libc_a-makebuf.o)
__swrite                                          /usr/lib/gcc/arm-none-eabi/13.2.1/../../../arm-none-eabi/lib/thumb/v7-m/nofp/libc_nano.a(libc_a-stdio.o)
                                                  /usr/lib/gcc/arm-none-eabi/13.2.1/../../../arm-none-eabi/lib/thumb/v7-m/nofp/libc_nano.a(libc_a-findfp.o)
__swsetup_r                                       /usr/lib/gcc/arm-none-eabi/13.2.1/../../../arm-none-eabi/lib/thumb/v7-m/nofp/libc_nano.a(libc_a-wsetup.o)
                                                  /usr/lib/gcc/arm-none-eabi/13.2.1/../../../arm-none-eabi/lib/thumb/v7-m/nofp/libc_nano.a(libc_a-fvwrite.o)
                                                  /usr/lib/gcc/arm-none-eabi/13.2.1/../../../arm-none-eabi/lib/thumb/v7-m/nofp/libc_nano.a(libc_a-wbuf.o)
                                                  /usr/lib/gcc/arm-none-eabi/13.2.1/../../../arm-none-eabi/lib/thumb/v7-m/nofp/libc_nano.a(libc_a-nano-vfprintf.o)
_close                                            /usr/lib/gcc/arm-none-eabi/13.2.1/../../../arm-none-eabi/lib/thumb/v7-m/nofp/libnosys.a(close.o)
                                                  /usr/lib/gcc/arm-none-eabi/13.2.1/../../../arm-none-eabi/lib/thumb/v7-m/nofp/libc_nano.a(libc_a-closer.o)
_close_r                                          /usr/lib/gcc/arm-none-eabi/13.2.1/../../../arm-none-eabi/lib/thumb/v7-m/nofp/libc_nano.a(libc_a-closer.o)
                                                  /usr/lib/gcc/arm-none-eabi/13.2.1/../../../arm-none-eabi/lib/thumb/v7-m/nofp/libc_nano.a(libc_a-stdio.o)
_ebss                                             /workspaces/qgv/hoverboard-firmware-hack-FOC/build/startup_stm32f103xe.o
_edata                                            /workspaces/qgv/hoverboard-firmware-hack-FOC/build/startup_stm32f103xe.o
_estack                                           /workspaces/qgv/hoverboard-firmware-hack-FOC/build/startup_stm32f103xe.o
_exit                                             /usr/lib/gcc/arm-none-eabi/13.2.1/../../../arm-none-eabi/lib/thumb/v7-m/nofp/libnosys.a(_exit.o)
                                                  /usr/lib/gcc/arm-none-eabi/13.2.1/../../../arm-none-eabi/lib/thumb/v7-m/nofp/libc_nano.a(libc_a-exit.o)
_fflush_r                                         /usr/lib/gcc/arm-none-eabi/13.2.1/../../../arm-none-eabi/lib/thumb/v7-m/nofp/libc_nano.a(libc_a-fflush.o)
                                                  /usr/lib/gcc/arm-none-eabi/13.2.1/../../../arm-none-eabi/lib/thumb/v7-m/nofp/libc_nano.a(libc_a-findfp.o)
                                                  /usr/lib/gcc/arm-none-eabi/13.2.1/../../../arm-none-eabi/lib/thumb/v7-m/nofp/libc_nano.a(libc_a-fvwrite.o)
                                                  /usr/lib/gcc/arm-none-eabi/13.2.1/../../../arm-none-eabi/lib/thumb/v7-m/nofp/libc_nano.a(libc_a-wbuf.o)
_fini                                             /usr/lib/gcc/arm-none-eabi/13.2.1/thumb/v7-m/nofp/crti.o
                                                  /usr/lib/gcc/arm-none-eabi/13.2.1/../../../arm-none-eabi/lib/thumb/v7-m/nofp/libc_nano.a(libc_a-fini.o)
_free_r                                           /usr/lib/gcc/arm-none-eabi/13.2.1/../../../arm-none-eabi/lib/thumb/v7-m/nofp/libc_nano.a(libc_a-freer.o)
                                                  /usr/lib/gcc/arm-none-eabi/13.2.1/../../../arm-none-eabi/lib/thumb/v7-m/nofp/libc_nano.a(libc_a-reent.o)
                                                  /usr/lib/gcc/arm-none-eabi/13.2.1/../../../arm-none-eabi/lib/thumb/v7-m/nofp/libc_nano.a(libc_a-reallocr.o)
                                                  /usr/lib/gcc/arm-none-eabi/13.2.1/../../../arm-none-eabi/lib/thumb/v7-m/nofp/libc_nano.a(libc_a-wsetup.o)
                                                  /usr/lib/gcc/arm-none-eabi/13.2.1/../../../arm-none-eabi/lib/thumb/v7-m/nofp/libc_nano.a(libc_a-fflush.o)
                                                  /usr/lib/gcc/arm-none-eabi/13.2.1/../../../arm-none-eabi/lib/thumb/v7-m/nofp/libc_nano.a(libc_a-fvwrite.o)
_fstat                                            /usr/lib/gcc/arm-none-eabi/13.2.1/../../../arm-none-eabi/lib/thumb/v7-m/nofp/libnosys.a(fstat.o)
                                                  /usr/lib/gcc/arm-none-eabi/13.2.1/../../../arm-none-eabi/lib/thumb/v7-m/nofp/libc_nano.a(libc_a-fstatr.o)
_fstat_r                                          /usr/lib/gcc/arm-none-eabi/13.2.1/../../../arm-none-eabi/lib/thumb/v7-m/nofp/libc_nano.a(libc_a-fstatr.o)
                                                  /usr/lib/gcc/arm-none-eabi/13.2.1/../../../arm-none-eabi/lib/thumb/v7-m/nofp/libc_nano.a(libc_a-makebuf.o)
_fwalk_sglue                                      /usr/lib/gcc/arm-none-eabi/13.2.1/../../../arm-none-eabi/lib/thumb/v7-m/nofp/libc_nano.a(libc_a-fwalk.o)
                                                  /usr/lib/gcc/arm-none-eabi/13.2.1/../../../arm-none-eabi/lib/thumb/v7-m/nofp/libc_nano.a(libc_a-fflush.o)
                                                  /usr/lib/gcc/arm-none-eabi/13.2.1/../../../arm-none-eabi/lib/thumb/v7-m/nofp/libc_nano.a(libc_a-findfp.o)
_impure_data                                      /usr/lib/gcc/arm-none-eabi/13.2.1/../../../arm-none-eabi/lib/thumb/v7-m/nofp/libc_nano.a(libc_a-impure.o)
                                                  /usr/lib/gcc/arm-none-eabi/13.2.1/../../../arm-none-eabi/lib/thumb/v7-m/nofp/libc_nano.a(libc_a-fflush.o)
                                                  /usr/lib/gcc/arm-none-eabi/13.2.1/../../../arm-none-eabi/lib/thumb/v7-m/nofp/libc_nano.a(libc_a-findfp.o)
_impure_ptr                                       /usr/lib/gcc/arm-none-eabi/13.2.1/../../../arm-none-eabi/lib/thumb/v7-m/nofp/libc_nano.a(libc_a-impure.o)
                                                  /usr/lib/gcc/arm-none-eabi/13.2.1/../../../arm-none-eabi/lib/thumb/v7-m/nofp/libc_nano.a(libc_a-reent.o)
                                                  /usr/lib/gcc/arm-none-eabi/13.2.1/../../../arm-none-eabi/lib/thumb/v7-m/nofp/libc_nano.a(libc_a-wsetup.o)
                                                  /usr/lib/gcc/arm-none-eabi/13.2.1/../../../arm-none-eabi/lib/thumb/v7-m/nofp/libc_nano.a(libc_a-fflush.o)
                                                  /usr/lib/gcc/arm-none-eabi/13.2.1/../../../arm-none-eabi/lib/thumb/v7-m/nofp/libc_nano.a(libc_a-wbuf.o)
                                                  /usr/lib/gcc/arm-none-eabi/13.2.1/../../../arm-none-eabi/lib/thumb/v7-m/nofp/libc_nano.a(libc_a-nano-vfprintf.o)
                                                  /usr/lib/gcc/arm-none-eabi/13.2.1/../../../arm-none-eabi/lib/thumb/v7-m/nofp/libc_nano.a(libc_a-printf.o)
_init                                             /usr/lib/gcc/arm-none-eabi/13.2.1/thumb/v7-m/nofp/crti.o
                                                  /usr/lib/gcc/arm-none-eabi/13.2.1/../../../arm-none-eabi/lib/thumb/v7-m/nofp/libc_nano.a(libc_a-init.o)
_iprintf_r                                        /usr/lib/gcc/arm-none-eabi/13.2.1/../../../arm-none-eabi/lib/thumb/v7-m/nofp/libc_nano.a(libc_a-printf.o)
_isatty                                           /usr/lib/gcc/arm-none-eabi/13.2.1/../../../arm-none-eabi/lib/thumb/v7-m/nofp/libnosys.a(isatty.o)
                                                  /usr/lib/gcc/arm-none-eabi/13.2.1/../../../arm-none-eabi/lib/thumb/v7-m/nofp/libc_nano.a(libc_a-isattyr.o)
_isatty_r                                         /usr/lib/gcc/arm-none-eabi/13.2.1/../../../arm-none-eabi/lib/thumb/v7-m/nofp/libc_nano.a(libc_a-isattyr.o)
                                                  /usr/lib/gcc/arm-none-eabi/13.2.1/../../../arm-none-eabi/lib/thumb/v7-m/nofp/libc_nano.a(libc_a-makebuf.o)
_lseek                                            /usr/lib/gcc/arm-none-eabi/13.2.1/../../../arm-none-eabi/lib/thumb/v7-m/nofp/libnosys.a(lseek.o)
                                                  /usr/lib/gcc/arm-none-eabi/13.2.1/../../../arm-none-eabi/lib/thumb/v7-m/nofp/libc_nano.a(libc_a-lseekr.o)
_lseek_r                                          /usr/lib/gcc/arm-none-eabi/13.2.1/../../../arm-none-eabi/lib/thumb/v7-m/nofp/libc_nano.a(libc_a-lseekr.o)
                                                  /usr/lib/gcc/arm-none-eabi/13.2.1/../../../arm-none-eabi/lib/thumb/v7-m/nofp/libc_nano.a(libc_a-stdio.o)
_mainCRTStartup                                   /usr/lib/gcc/arm-none-eabi/13.2.1/../../../arm-none-eabi/lib/thumb/v7-m/nofp/crt0.o
_malloc_r                                         /usr/lib/gcc/arm-none-eabi/13.2.1/../../../arm-none-eabi/lib/thumb/v7-m/nofp/libc_nano.a(libc_a-mallocr.o)
                                                  /usr/lib/gcc/arm-none-eabi/13.2.1/../../../arm-none-eabi/lib/thumb/v7-m/nofp/libc_nano.a(libc_a-makebuf.o)
                                                  /usr/lib/gcc/arm-none-eabi/13.2.1/../../../arm-none-eabi/lib/thumb/v7-m/nofp/libc_nano.a(libc_a-reallocr.o)
                                                  /usr/lib/gcc/arm-none-eabi/13.2.1/../../../arm-none-eabi/lib/thumb/v7-m/nofp/libc_nano.a(libc_a-findfp.o)
                                                  /usr/lib/gcc/arm-none-eabi/13.2.1/../../../arm-none-eabi/lib/thumb/v7-m/nofp/libc_nano.a(libc_a-fvwrite.o)
_malloc_usable_size_r                             /usr/lib/gcc/arm-none-eabi/13.2.1/../../../arm-none-eabi/lib/thumb/v7-m/nofp/libc_nano.a(libc_a-msizer.o)
                                                  /usr/lib/gcc/arm-none-eabi/13.2.1/../../../arm-none-eabi/lib/thumb/v7-m/nofp/libc_nano.a(libc_a-reallocr.o)
_printf_common                                    /usr/lib/gcc/arm-none-eabi/13.2.1/../../../arm-none-eabi/lib/thumb/v7-m/nofp/libc_nano.a(libc_a-nano-vfprintf_i.o)
_printf_float                                     /usr/lib/gcc/arm-none-eabi/13.2.1/../../../arm-none-eabi/lib/thumb/v7-m/nofp/libc_nano.a(libc_a-nano-vfprintf.o)
_printf_i                                         /usr/lib/gcc/arm-none-eabi/13.2.1/../../../arm-none-eabi/lib/thumb/v7-m/nofp/libc_nano.a(libc_a-nano-vfprintf_i.o)
                                                  /usr/lib/gcc/arm-none-eabi/13.2.1/../../../arm-none-eabi/lib/thumb/v7-m/nofp/libc_nano.a(libc_a-nano-vfprintf.o)
_printf_r                                         /usr/lib/gcc/arm-none-eabi/13.2.1/../../../arm-none-eabi/lib/thumb/v7-m/nofp/libc_nano.a(libc_a-printf.o)
_read                                             /usr/lib/gcc/arm-none-eabi/13.2.1/../../../arm-none-eabi/lib/thumb/v7-m/nofp/libnosys.a(read.o)
                                                  /usr/lib/gcc/arm-none-eabi/13.2.1/../../../arm-none-eabi/lib/thumb/v7-m/nofp/libc_nano.a(libc_a-readr.o)
_read_r                                           /usr/lib/gcc/arm-none-eabi/13.2.1/../../../arm-none-eabi/lib/thumb/v7-m/nofp/libc_nano.a(libc_a-readr.o)
                                                  /usr/lib/gcc/arm-none-eabi/13.2.1/../../../arm-none-eabi/lib/thumb/v7-m/nofp/libc_nano.a(libc_a-stdio.o)
_realloc_r                                        /usr/lib/gcc/arm-none-eabi/13.2.1/../../../arm-none-eabi/lib/thumb/v7-m/nofp/libc_nano.a(libc_a-reallocr.o)
                                                  /usr/lib/gcc/arm-none-eabi/13.2.1/../../../arm-none-eabi/lib/thumb/v7-m/nofp/libc_nano.a(libc_a-fvwrite.o)
_reclaim_reent                                    /usr/lib/gcc/arm-none-eabi/13.2.1/../../../arm-none-eabi/lib/thumb/v7-m/nofp/libc_nano.a(libc_a-reent.o)
_sbrk                                             /usr/lib/gcc/arm-none-eabi/13.2.1/../../../arm-none-eabi/lib/thumb/v7-m/nofp/libnosys.a(sbrk.o)
                                                  /usr/lib/gcc/arm-none-eabi/13.2.1/../../../arm-none-eabi/lib/thumb/v7-m/nofp/libc_nano.a(libc_a-sbrkr.o)
_sbrk_r                                           /usr/lib/gcc/arm-none-eabi/13.2.1/../../../arm-none-eabi/lib/thumb/v7-m/nofp/libc_nano.a(libc_a-sbrkr.o)
                                                  /usr/lib/gcc/arm-none-eabi/13.2.1/../../../arm-none-eabi/lib/thumb/v7-m/nofp/libc_nano.a(libc_a-mallocr.o)
_sbss                                             /workspaces/qgv/hoverboard-firmware-hack-FOC/build/startup_stm32f103xe.o
_sdata                                            /workspaces/qgv/hoverboard-firmware-hack-FOC/build/startup_stm32f103xe.o
_sidata                                           /workspaces/qgv/hoverboard-firmware-hack-FOC/build/startup_stm32f103xe.o
_stack_init                                       /usr/lib/gcc/arm-none-eabi/13.2.1/../../../arm-none-eabi/lib/thumb/v7-m/nofp/crt0.o
_start                                            /usr/lib/gcc/arm-none-eabi/13.2.1/../../../arm-none-eabi/lib/thumb/v7-m/nofp/crt0.o
_vfiprintf_r                                      /usr/lib/gcc/arm-none-eabi/13.2.1/../../../arm-none-eabi/lib/thumb/v7-m/nofp/libc_nano.a(libc_a-nano-vfprintf.o)
_vfprintf_r                                       /usr/lib/gcc/arm-none-eabi/13.2.1/../../../arm-none-eabi/lib/thumb/v7-m/nofp/libc_nano.a(libc_a-nano-vfprintf.o)
                                                  /usr/lib/gcc/arm-none-eabi/13.2.1/../../../arm-none-eabi/lib/thumb/v7-m/nofp/libc_nano.a(libc_a-printf.o)
_write                                            /usr/lib/gcc/arm-none-eabi/13.2.1/../../../arm-none-eabi/lib/thumb/v7-m/nofp/libnosys.a(write.o)
                                                  /usr/lib/gcc/arm-none-eabi/13.2.1/../../../arm-none-eabi/lib/thumb/v7-m/nofp/libc_nano.a(libc_a-writer.o)
_write_r                                          /usr/lib/gcc/arm-none-eabi/13.2.1/../../../arm-none-eabi/lib/thumb/v7-m/nofp/libc_nano.a(libc_a-writer.o)
                                                  /usr/lib/gcc/arm-none-eabi/13.2.1/../../../arm-none-eabi/lib/thumb/v7-m/nofp/libc_nano.a(libc_a-stdio.o)
adcCalibLim                                       /workspaces/qgv/hoverboard-firmware-hack-FOC/build/util.o
adc_buffer                                        /workspaces/qgv/hoverboard-firmware-hack-FOC/build/setup.o
                                                  /workspaces/qgv/hoverboard-firmware-hack-FOC/build/bldc.o
                                                  /workspaces/qgv/hoverboard-firmware-hack-FOC/build/main.o
                                                  /workspaces/qgv/hoverboard-firmware-hack-FOC/build/util.o
atexit                                            /usr/lib/gcc/arm-none-eabi/13.2.1/../../../arm-none-eabi/lib/thumb/v7-m/nofp/libc_nano.a(libc_a-atexit.o)
                                                  /usr/lib/gcc/arm-none-eabi/13.2.1/../../../arm-none-eabi/lib/thumb/v7-m/nofp/crt0.o
backwardDrive                                     /workspaces/qgv/hoverboard-firmware-hack-FOC/build/main.o
                                                  /workspaces/qgv/hoverboard-firmware-hack-FOC/build/util.o
batVoltage                                        /workspaces/qgv/hoverboard-firmware-hack-FOC/build/bldc.o
                                                  /workspaces/qgv/hoverboard-firmware-hack-FOC/build/main.o
                                                  /workspaces/qgv/hoverboard-firmware-hack-FOC/build/util.o
batVoltageCalib                                   /workspaces/qgv/hoverboard-firmware-hack-FOC/build/main.o
beepCount                                         /workspaces/qgv/hoverboard-firmware-hack-FOC/build/util.o
                                                  /workspaces/qgv/hoverboard-firmware-hack-FOC/build/main.o
beepLong                                          /workspaces/qgv/hoverboard-firmware-hack-FOC/build/util.o
beepShort                                         /workspaces/qgv/hoverboard-firmware-hack-FOC/build/util.o
                                                  /workspaces/qgv/hoverboard-firmware-hack-FOC/build/main.o
beepShortMany                                     /workspaces/qgv/hoverboard-firmware-hack-FOC/build/util.o
board_temp_deg_c                                  /workspaces/qgv/hoverboard-firmware-hack-FOC/build/main.o
buzzerCount                                       /workspaces/qgv/hoverboard-firmware-hack-FOC/build/bldc.o
                                                  /workspaces/qgv/hoverboard-firmware-hack-FOC/build/util.o
buzzerFreq                                        /workspaces/qgv/hoverboard-firmware-hack-FOC/build/bldc.o
                                                  /workspaces/qgv/hoverboard-firmware-hack-FOC/build/util.o
buzzerPattern                                     /workspaces/qgv/hoverboard-firmware-hack-FOC/build/bldc.o
                                                  /workspaces/qgv/hoverboard-firmware-hack-FOC/build/util.o
buzzerTimer                                       /workspaces/qgv/hoverboard-firmware-hack-FOC/build/bldc.o
                                                  /workspaces/qgv/hoverboard-firmware-hack-FOC/build/main.o
calcAvgSpeed                                      /workspaces/qgv/hoverboard-firmware-hack-FOC/build/util.o
                                                  /workspaces/qgv/hoverboard-firmware-hack-FOC/build/main.o
calcInputCmd                                      /workspaces/qgv/hoverboard-firmware-hack-FOC/build/util.o
checkInputType                                    /workspaces/qgv/hoverboard-firmware-hack-FOC/build/util.o
cmdL                                              /workspaces/qgv/hoverboard-firmware-hack-FOC/build/main.o
cmdR                                              /workspaces/qgv/hoverboard-firmware-hack-FOC/build/main.o
cruiseControl                                     /workspaces/qgv/hoverboard-firmware-hack-FOC/build/util.o
                                                  /workspaces/qgv/hoverboard-firmware-hack-FOC/build/main.o
ctrlModReq                                        /workspaces/qgv/hoverboard-firmware-hack-FOC/build/util.o
                                                  /workspaces/qgv/hoverboard-firmware-hack-FOC/build/bldc.o
ctrlModReqRaw                                     /workspaces/qgv/hoverboard-firmware-hack-FOC/build/util.o
curL_DC                                           /workspaces/qgv/hoverboard-firmware-hack-FOC/build/bldc.o
curL_phaA                                         /workspaces/qgv/hoverboard-firmware-hack-FOC/build/bldc.o
curL_phaB                                         /workspaces/qgv/hoverboard-firmware-hack-FOC/build/bldc.o
curR_DC                                           /workspaces/qgv/hoverboard-firmware-hack-FOC/build/bldc.o
curR_phaB                                         /workspaces/qgv/hoverboard-firmware-hack-FOC/build/bldc.o
curR_phaC                                         /workspaces/qgv/hoverboard-firmware-hack-FOC/build/bldc.o
dc_curr                                           /workspaces/qgv/hoverboard-firmware-hack-FOC/build/main.o
div_nde_s32_floor                                 /workspaces/qgv/hoverboard-firmware-hack-FOC/build/BLDC_controller.o
either_edge                                       /workspaces/qgv/hoverboard-firmware-hack-FOC/build/BLDC_controller.o
electricBrake                                     /workspaces/qgv/hoverboard-firmware-hack-FOC/build/util.o
enable                                            /workspaces/qgv/hoverboard-firmware-hack-FOC/build/bldc.o
                                                  /workspaces/qgv/hoverboard-firmware-hack-FOC/build/main.o
                                                  /workspaces/qgv/hoverboard-firmware-hack-FOC/build/util.o
end                                               /usr/lib/gcc/arm-none-eabi/13.2.1/../../../arm-none-eabi/lib/thumb/v7-m/nofp/libnosys.a(sbrk.o)
errno                                             /usr/lib/gcc/arm-none-eabi/13.2.1/../../../arm-none-eabi/lib/thumb/v7-m/nofp/libc_nano.a(libc_a-reent.o)
                                                  /usr/lib/gcc/arm-none-eabi/13.2.1/../../../arm-none-eabi/lib/thumb/v7-m/nofp/libnosys.a(write.o)
                                                  /usr/lib/gcc/arm-none-eabi/13.2.1/../../../arm-none-eabi/lib/thumb/v7-m/nofp/libnosys.a(read.o)
                                                  /usr/lib/gcc/arm-none-eabi/13.2.1/../../../arm-none-eabi/lib/thumb/v7-m/nofp/libnosys.a(lseek.o)
                                                  /usr/lib/gcc/arm-none-eabi/13.2.1/../../../arm-none-eabi/lib/thumb/v7-m/nofp/libnosys.a(isatty.o)
                                                  /usr/lib/gcc/arm-none-eabi/13.2.1/../../../arm-none-eabi/lib/thumb/v7-m/nofp/libnosys.a(fstat.o)
                                                  /usr/lib/gcc/arm-none-eabi/13.2.1/../../../arm-none-eabi/lib/thumb/v7-m/nofp/libnosys.a(close.o)
                                                  /usr/lib/gcc/arm-none-eabi/13.2.1/../../../arm-none-eabi/lib/thumb/v7-m/nofp/libc_nano.a(libc_a-writer.o)
                                                  /usr/lib/gcc/arm-none-eabi/13.2.1/../../../arm-none-eabi/lib/thumb/v7-m/nofp/libc_nano.a(libc_a-lseekr.o)
                                                  /usr/lib/gcc/arm-none-eabi/13.2.1/../../../arm-none-eabi/lib/thumb/v7-m/nofp/libc_nano.a(libc_a-fstatr.o)
                                                  /usr/lib/gcc/arm-none-eabi/13.2.1/../../../arm-none-eabi/lib/thumb/v7-m/nofp/libc_nano.a(libc_a-readr.o)
                                                  /usr/lib/gcc/arm-none-eabi/13.2.1/../../../arm-none-eabi/lib/thumb/v7-m/nofp/libc_nano.a(libc_a-closer.o)
                                                  /usr/lib/gcc/arm-none-eabi/13.2.1/../../../arm-none-eabi/lib/thumb/v7-m/nofp/libc_nano.a(libc_a-sbrkr.o)
                                                  /usr/lib/gcc/arm-none-eabi/13.2.1/../../../arm-none-eabi/lib/thumb/v7-m/nofp/libc_nano.a(libc_a-isattyr.o)
exit                                              /usr/lib/gcc/arm-none-eabi/13.2.1/../../../arm-none-eabi/lib/thumb/v7-m/nofp/libc_nano.a(libc_a-exit.o)
                                                  /usr/lib/gcc/arm-none-eabi/13.2.1/../../../arm-none-eabi/lib/thumb/v7-m/nofp/crt0.o
fflush                                            /usr/lib/gcc/arm-none-eabi/13.2.1/../../../arm-none-eabi/lib/thumb/v7-m/nofp/libc_nano.a(libc_a-fflush.o)
filtLowPass32                                     /workspaces/qgv/hoverboard-firmware-hack-FOC/build/util.o
                                                  /workspaces/qgv/hoverboard-firmware-hack-FOC/build/bldc.o
                                                  /workspaces/qgv/hoverboard-firmware-hack-FOC/build/main.o
g_pfnVectors                                      /workspaces/qgv/hoverboard-firmware-hack-FOC/build/startup_stm32f103xe.o
hadc1                                             /workspaces/qgv/hoverboard-firmware-hack-FOC/build/setup.o
                                                  /workspaces/qgv/hoverboard-firmware-hack-FOC/build/main.o
hadc2                                             /workspaces/qgv/hoverboard-firmware-hack-FOC/build/setup.o
                                                  /workspaces/qgv/hoverboard-firmware-hack-FOC/build/main.o
handleTimeout                                     /workspaces/qgv/hoverboard-firmware-hack-FOC/build/util.o
hardware_init_hook                                /usr/lib/gcc/arm-none-eabi/13.2.1/../../../arm-none-eabi/lib/thumb/v7-m/nofp/crt0.o
hdma_i2c2_rx                                      /workspaces/qgv/hoverboard-firmware-hack-FOC/build/setup.o
hdma_i2c2_tx                                      /workspaces/qgv/hoverboard-firmware-hack-FOC/build/setup.o
hdma_usart2_rx                                    /workspaces/qgv/hoverboard-firmware-hack-FOC/build/setup.o
hdma_usart2_tx                                    /workspaces/qgv/hoverboard-firmware-hack-FOC/build/setup.o
hdma_usart3_rx                                    /workspaces/qgv/hoverboard-firmware-hack-FOC/build/setup.o
                                                  /workspaces/qgv/hoverboard-firmware-hack-FOC/build/stm32f1xx_it.o
hdma_usart3_tx                                    /workspaces/qgv/hoverboard-firmware-hack-FOC/build/setup.o
                                                  /workspaces/qgv/hoverboard-firmware-hack-FOC/build/stm32f1xx_it.o
hi2c2                                             /workspaces/qgv/hoverboard-firmware-hack-FOC/build/setup.o
                                                  /workspaces/qgv/hoverboard-firmware-hack-FOC/build/control.o
htim_left                                         /workspaces/qgv/hoverboard-firmware-hack-FOC/build/setup.o
htim_right                                        /workspaces/qgv/hoverboard-firmware-hack-FOC/build/setup.o
huart2                                            /workspaces/qgv/hoverboard-firmware-hack-FOC/build/setup.o
huart3                                            /workspaces/qgv/hoverboard-firmware-hack-FOC/build/setup.o
                                                  /workspaces/qgv/hoverboard-firmware-hack-FOC/build/stm32f1xx_it.o
                                                  /workspaces/qgv/hoverboard-firmware-hack-FOC/build/main.o
                                                  /workspaces/qgv/hoverboard-firmware-hack-FOC/build/util.o
i2cBuffer                                         /workspaces/qgv/hoverboard-firmware-hack-FOC/build/control.o
inIdx                                             /workspaces/qgv/hoverboard-firmware-hack-FOC/build/util.o
                                                  /workspaces/qgv/hoverboard-firmware-hack-FOC/build/main.o
inIdx_prev                                        /workspaces/qgv/hoverboard-firmware-hack-FOC/build/util.o
                                                  /workspaces/qgv/hoverboard-firmware-hack-FOC/build/main.o
input1                                            /workspaces/qgv/hoverboard-firmware-hack-FOC/build/util.o
                                                  /workspaces/qgv/hoverboard-firmware-hack-FOC/build/main.o
input2                                            /workspaces/qgv/hoverboard-firmware-hack-FOC/build/util.o
                                                  /workspaces/qgv/hoverboard-firmware-hack-FOC/build/main.o
iprintf                                           /usr/lib/gcc/arm-none-eabi/13.2.1/../../../arm-none-eabi/lib/thumb/v7-m/nofp/libc_nano.a(libc_a-printf.o)
left_dc_curr                                      /workspaces/qgv/hoverboard-firmware-hack-FOC/build/main.o
main                                              /workspaces/qgv/hoverboard-firmware-hack-FOC/build/main.o
                                                  /workspaces/qgv/hoverboard-firmware-hack-FOC/build/startup_stm32f103xe.o
                                                  /usr/lib/gcc/arm-none-eabi/13.2.1/../../../arm-none-eabi/lib/thumb/v7-m/nofp/crt0.o
main_loop_counter                                 /workspaces/qgv/hoverboard-firmware-hack-FOC/build/main.o
                                                  /workspaces/qgv/hoverboard-firmware-hack-FOC/build/util.o
malloc                                            /usr/lib/gcc/arm-none-eabi/13.2.1/../../../arm-none-eabi/lib/thumb/v7-m/nofp/libc_nano.a(libc_a-__atexit.o)
memchr                                            /usr/lib/gcc/arm-none-eabi/13.2.1/../../../arm-none-eabi/lib/thumb/v7-m/nofp/libc_nano.a(libc_a-memchr-stub.o)
                                                  /usr/lib/gcc/arm-none-eabi/13.2.1/../../../arm-none-eabi/lib/thumb/v7-m/nofp/libc_nano.a(libc_a-nano-vfprintf_i.o)
                                                  /usr/lib/gcc/arm-none-eabi/13.2.1/../../../arm-none-eabi/lib/thumb/v7-m/nofp/libc_nano.a(libc_a-fvwrite.o)
                                                  /usr/lib/gcc/arm-none-eabi/13.2.1/../../../arm-none-eabi/lib/thumb/v7-m/nofp/libc_nano.a(libc_a-nano-vfprintf.o)
memcpy                                            /usr/lib/gcc/arm-none-eabi/13.2.1/../../../arm-none-eabi/lib/thumb/v7-m/nofp/libc_nano.a(libc_a-memcpy.o)
                                                  /usr/lib/gcc/arm-none-eabi/13.2.1/../../../arm-none-eabi/lib/thumb/v7-m/nofp/libc_nano.a(libc_a-reallocr.o)
                                                  /usr/lib/gcc/arm-none-eabi/13.2.1/../../../arm-none-eabi/lib/thumb/v7-m/nofp/libc_nano.a(libc_a-fvwrite.o)
                                                  /workspaces/qgv/hoverboard-firmware-hack-FOC/build/util.o
memmove                                           /usr/lib/gcc/arm-none-eabi/13.2.1/../../../arm-none-eabi/lib/thumb/v7-m/nofp/libc_nano.a(libc_a-memmove.o)
                                                  /usr/lib/gcc/arm-none-eabi/13.2.1/../../../arm-none-eabi/lib/thumb/v7-m/nofp/libc_nano.a(libc_a-fvwrite.o)
memset                                            /usr/lib/gcc/arm-none-eabi/13.2.1/../../../arm-none-eabi/lib/thumb/v7-m/nofp/libc_nano.a(libc_a-memset.o)
                                                  /usr/lib/gcc/arm-none-eabi/13.2.1/../../../arm-none-eabi/lib/thumb/v7-m/nofp/libc_nano.a(libc_a-findfp.o)
                                                  /usr/lib/gcc/arm-none-eabi/13.2.1/../../../arm-none-eabi/lib/thumb/v7-m/nofp/crt0.o
mixerFcn                                          /workspaces/qgv/hoverboard-firmware-hack-FOC/build/util.o
                                                  /workspaces/qgv/hoverboard-firmware-hack-FOC/build/main.o
multipleTapDet                                    /workspaces/qgv/hoverboard-firmware-hack-FOC/build/util.o
                                                  /workspaces/qgv/hoverboard-firmware-hack-FOC/build/main.o
nunchukState                                      /workspaces/qgv/hoverboard-firmware-hack-FOC/build/control.o
nunchuk_data                                      /workspaces/qgv/hoverboard-firmware-hack-FOC/build/control.o
pFlash                                            /workspaces/qgv/hoverboard-firmware-hack-FOC/build/stm32f1xx_hal_flash.o
                                                  /workspaces/qgv/hoverboard-firmware-hack-FOC/build/stm32f1xx_hal_flash_ex.o
plook_u8s16_evencka                               /workspaces/qgv/hoverboard-firmware-hack-FOC/build/BLDC_controller.o
plook_u8u16_evencka                               /workspaces/qgv/hoverboard-firmware-hack-FOC/build/BLDC_controller.o
poweroff                                          /workspaces/qgv/hoverboard-firmware-hack-FOC/build/util.o
                                                  /workspaces/qgv/hoverboard-firmware-hack-FOC/build/main.o
poweroffPressCheck                                /workspaces/qgv/hoverboard-firmware-hack-FOC/build/util.o
                                                  /workspaces/qgv/hoverboard-firmware-hack-FOC/build/main.o
poweronMelody                                     /workspaces/qgv/hoverboard-firmware-hack-FOC/build/util.o
                                                  /workspaces/qgv/hoverboard-firmware-hack-FOC/build/main.o
ppm_count                                         /workspaces/qgv/hoverboard-firmware-hack-FOC/build/control.o
printf                                            /usr/lib/gcc/arm-none-eabi/13.2.1/../../../arm-none-eabi/lib/thumb/v7-m/nofp/libc_nano.a(libc_a-printf.o)
                                                  /workspaces/qgv/hoverboard-firmware-hack-FOC/build/main.o
                                                  /workspaces/qgv/hoverboard-firmware-hack-FOC/build/util.o
pwm_count                                         /workspaces/qgv/hoverboard-firmware-hack-FOC/build/control.o
pwml                                              /workspaces/qgv/hoverboard-firmware-hack-FOC/build/bldc.o
                                                  /workspaces/qgv/hoverboard-firmware-hack-FOC/build/main.o
pwmr                                              /workspaces/qgv/hoverboard-firmware-hack-FOC/build/bldc.o
                                                  /workspaces/qgv/hoverboard-firmware-hack-FOC/build/main.o
rateLimiter16                                     /workspaces/qgv/hoverboard-firmware-hack-FOC/build/util.o
                                                  /workspaces/qgv/hoverboard-firmware-hack-FOC/build/main.o
readCommand                                       /workspaces/qgv/hoverboard-firmware-hack-FOC/build/util.o
                                                  /workspaces/qgv/hoverboard-firmware-hack-FOC/build/main.o
readInputRaw                                      /workspaces/qgv/hoverboard-firmware-hack-FOC/build/util.o
right_dc_curr                                     /workspaces/qgv/hoverboard-firmware-hack-FOC/build/main.o
rtConstP                                          /workspaces/qgv/hoverboard-firmware-hack-FOC/build/BLDC_controller_data.o
                                                  /workspaces/qgv/hoverboard-firmware-hack-FOC/build/BLDC_controller.o
rtDW_Left                                         /workspaces/qgv/hoverboard-firmware-hack-FOC/build/util.o
rtDW_Right                                        /workspaces/qgv/hoverboard-firmware-hack-FOC/build/util.o
rtM_Left                                          /workspaces/qgv/hoverboard-firmware-hack-FOC/build/util.o
                                                  /workspaces/qgv/hoverboard-firmware-hack-FOC/build/bldc.o
rtM_Left_                                         /workspaces/qgv/hoverboard-firmware-hack-FOC/build/util.o
rtM_Right                                         /workspaces/qgv/hoverboard-firmware-hack-FOC/build/util.o
                                                  /workspaces/qgv/hoverboard-firmware-hack-FOC/build/bldc.o
rtM_Right_                                        /workspaces/qgv/hoverboard-firmware-hack-FOC/build/util.o
rtP_Left                                          /workspaces/qgv/hoverboard-firmware-hack-FOC/build/BLDC_controller_data.o
                                                  /workspaces/qgv/hoverboard-firmware-hack-FOC/build/bldc.o
                                                  /workspaces/qgv/hoverboard-firmware-hack-FOC/build/main.o
                                                  /workspaces/qgv/hoverboard-firmware-hack-FOC/build/util.o
rtP_Right                                         /workspaces/qgv/hoverboard-firmware-hack-FOC/build/util.o
                                                  /workspaces/qgv/hoverboard-firmware-hack-FOC/build/main.o
rtU_Left                                          /workspaces/qgv/hoverboard-firmware-hack-FOC/build/util.o
                                                  /workspaces/qgv/hoverboard-firmware-hack-FOC/build/bldc.o
                                                  /workspaces/qgv/hoverboard-firmware-hack-FOC/build/main.o
rtU_Right                                         /workspaces/qgv/hoverboard-firmware-hack-FOC/build/util.o
                                                  /workspaces/qgv/hoverboard-firmware-hack-FOC/build/bldc.o
                                                  /workspaces/qgv/hoverboard-firmware-hack-FOC/build/main.o
rtY_Left                                          /workspaces/qgv/hoverboard-firmware-hack-FOC/build/util.o
                                                  /workspaces/qgv/hoverboard-firmware-hack-FOC/build/bldc.o
                                                  /workspaces/qgv/hoverboard-firmware-hack-FOC/build/main.o
rtY_Right                                         /workspaces/qgv/hoverboard-firmware-hack-FOC/build/util.o
                                                  /workspaces/qgv/hoverboard-firmware-hack-FOC/build/bldc.o
                                                  /workspaces/qgv/hoverboard-firmware-hack-FOC/build/main.o
saveConfig                                        /workspaces/qgv/hoverboard-firmware-hack-FOC/build/util.o
sideboardLeds                                     /workspaces/qgv/hoverboard-firmware-hack-FOC/build/util.o
                                                  /workspaces/qgv/hoverboard-firmware-hack-FOC/build/main.o
sideboardSensors                                  /workspaces/qgv/hoverboard-firmware-hack-FOC/build/util.o
                                                  /workspaces/qgv/hoverboard-firmware-hack-FOC/build/main.o
software_init_hook                                /usr/lib/gcc/arm-none-eabi/13.2.1/../../../arm-none-eabi/lib/thumb/v7-m/nofp/crt0.o
speedAvg                                          /workspaces/qgv/hoverboard-firmware-hack-FOC/build/util.o
                                                  /workspaces/qgv/hoverboard-firmware-hack-FOC/build/main.o
speedAvgAbs                                       /workspaces/qgv/hoverboard-firmware-hack-FOC/build/util.o
                                                  /workspaces/qgv/hoverboard-firmware-hack-FOC/build/main.o
standstillHold                                    /workspaces/qgv/hoverboard-firmware-hack-FOC/build/util.o
timeoutCntGen                                     /workspaces/qgv/hoverboard-firmware-hack-FOC/build/control.o
timeoutFlgADC                                     /workspaces/qgv/hoverboard-firmware-hack-FOC/build/util.o
                                                  /workspaces/qgv/hoverboard-firmware-hack-FOC/build/main.o
timeoutFlgGen                                     /workspaces/qgv/hoverboard-firmware-hack-FOC/build/control.o
                                                  /workspaces/qgv/hoverboard-firmware-hack-FOC/build/main.o
                                                  /workspaces/qgv/hoverboard-firmware-hack-FOC/build/util.o
timeoutFlgSerial                                  /workspaces/qgv/hoverboard-firmware-hack-FOC/build/util.o
                                                  /workspaces/qgv/hoverboard-firmware-hack-FOC/build/main.o
uart_buf                                          /workspaces/qgv/hoverboard-firmware-hack-FOC/build/main.o
updateCurSpdLim                                   /workspaces/qgv/hoverboard-firmware-hack-FOC/build/util.o
usart2_rx_check                                   /workspaces/qgv/hoverboard-firmware-hack-FOC/build/util.o
usart3_rx_check                                   /workspaces/qgv/hoverboard-firmware-hack-FOC/build/util.o
                                                  /workspaces/qgv/hoverboard-firmware-hack-FOC/build/stm32f1xx_it.o
usart_process_sideboard                           /workspaces/qgv/hoverboard-firmware-hack-FOC/build/util.o
uwTick                                            /workspaces/qgv/hoverboard-firmware-hack-FOC/build/stm32f1xx_hal.o
vfiprintf                                         /usr/lib/gcc/arm-none-eabi/13.2.1/../../../arm-none-eabi/lib/thumb/v7-m/nofp/libc_nano.a(libc_a-nano-vfprintf.o)
vfprintf                                          /usr/lib/gcc/arm-none-eabi/13.2.1/../../../arm-none-eabi/lib/thumb/v7-m/nofp/libc_nano.a(libc_a-nano-vfprintf.o)
