Archive member included to satisfy reference by file (symbol)

/usr/lib/gcc/arm-none-eabi/13.2.1/../../../arm-none-eabi/lib/thumb/v7-m/nofp/libc_nano.a(libc_a-init.o)
                              /usr/lib/gcc/arm-none-eabi/13.2.1/../../../arm-none-eabi/lib/thumb/v7-m/nofp/crt0.o (__libc_init_array)
/usr/lib/gcc/arm-none-eabi/13.2.1/../../../arm-none-eabi/lib/thumb/v7-m/nofp/libc_nano.a(libc_a-memset.o)
                              /usr/lib/gcc/arm-none-eabi/13.2.1/../../../arm-none-eabi/lib/thumb/v7-m/nofp/crt0.o (memset)
/usr/lib/gcc/arm-none-eabi/13.2.1/../../../arm-none-eabi/lib/thumb/v7-m/nofp/libc_nano.a(libc_a-memcpy.o)
                              /workspaces/hoverboard-firmware-hack-FOC/build/util.o (memcpy)
/usr/lib/gcc/arm-none-eabi/13.2.1/../../../arm-none-eabi/lib/thumb/v7-m/nofp/libc_nano.a(libc_a-exit.o)
                              /usr/lib/gcc/arm-none-eabi/13.2.1/../../../arm-none-eabi/lib/thumb/v7-m/nofp/crt0.o (exit)
/usr/lib/gcc/arm-none-eabi/13.2.1/../../../arm-none-eabi/lib/thumb/v7-m/nofp/libc_nano.a(libc_a-atexit.o)
                              /usr/lib/gcc/arm-none-eabi/13.2.1/../../../arm-none-eabi/lib/thumb/v7-m/nofp/crt0.o (atexit)
/usr/lib/gcc/arm-none-eabi/13.2.1/../../../arm-none-eabi/lib/thumb/v7-m/nofp/libc_nano.a(libc_a-snprintf.o)
                              /workspaces/hoverboard-firmware-hack-FOC/build/util.o (snprintf)
/usr/lib/gcc/arm-none-eabi/13.2.1/../../../arm-none-eabi/lib/thumb/v7-m/nofp/libc_nano.a(libc_a-printf.o)
                              /workspaces/hoverboard-firmware-hack-FOC/build/util.o (printf)
/usr/lib/gcc/arm-none-eabi/13.2.1/../../../arm-none-eabi/lib/thumb/v7-m/nofp/libc_nano.a(libc_a-nano-vfprintf.o)
                              /usr/lib/gcc/arm-none-eabi/13.2.1/../../../arm-none-eabi/lib/thumb/v7-m/nofp/libc_nano.a(libc_a-printf.o) (_vfprintf_r)
/usr/lib/gcc/arm-none-eabi/13.2.1/../../../arm-none-eabi/lib/thumb/v7-m/nofp/libc_nano.a(libc_a-fini.o)
                              /usr/lib/gcc/arm-none-eabi/13.2.1/../../../arm-none-eabi/lib/thumb/v7-m/nofp/crt0.o (__libc_fini_array)
/usr/lib/gcc/arm-none-eabi/13.2.1/../../../arm-none-eabi/lib/thumb/v7-m/nofp/libc_nano.a(libc_a-wbuf.o)
                              /usr/lib/gcc/arm-none-eabi/13.2.1/../../../arm-none-eabi/lib/thumb/v7-m/nofp/libc_nano.a(libc_a-nano-vfprintf.o) (__swbuf_r)
/usr/lib/gcc/arm-none-eabi/13.2.1/../../../arm-none-eabi/lib/thumb/v7-m/nofp/libc_nano.a(libc_a-impure.o)
                              /usr/lib/gcc/arm-none-eabi/13.2.1/../../../arm-none-eabi/lib/thumb/v7-m/nofp/libc_nano.a(libc_a-snprintf.o) (_impure_ptr)
/usr/lib/gcc/arm-none-eabi/13.2.1/../../../arm-none-eabi/lib/thumb/v7-m/nofp/libc_nano.a(libc_a-nano-svfprintf.o)
                              /usr/lib/gcc/arm-none-eabi/13.2.1/../../../arm-none-eabi/lib/thumb/v7-m/nofp/libc_nano.a(libc_a-snprintf.o) (_svfprintf_r)
/usr/lib/gcc/arm-none-eabi/13.2.1/../../../arm-none-eabi/lib/thumb/v7-m/nofp/libc_nano.a(libc_a-fvwrite.o)
                              /usr/lib/gcc/arm-none-eabi/13.2.1/../../../arm-none-eabi/lib/thumb/v7-m/nofp/libc_nano.a(libc_a-nano-vfprintf.o) (__sfvwrite_r)
/usr/lib/gcc/arm-none-eabi/13.2.1/../../../arm-none-eabi/lib/thumb/v7-m/nofp/libc_nano.a(libc_a-findfp.o)
                              /usr/lib/gcc/arm-none-eabi/13.2.1/../../../arm-none-eabi/lib/thumb/v7-m/nofp/libc_nano.a(libc_a-nano-vfprintf.o) (__sinit)
/usr/lib/gcc/arm-none-eabi/13.2.1/../../../arm-none-eabi/lib/thumb/v7-m/nofp/libc_nano.a(libc_a-fflush.o)
                              /usr/lib/gcc/arm-none-eabi/13.2.1/../../../arm-none-eabi/lib/thumb/v7-m/nofp/libc_nano.a(libc_a-wbuf.o) (_fflush_r)
/usr/lib/gcc/arm-none-eabi/13.2.1/../../../arm-none-eabi/lib/thumb/v7-m/nofp/libc_nano.a(libc_a-mallocr.o)
                              /usr/lib/gcc/arm-none-eabi/13.2.1/../../../arm-none-eabi/lib/thumb/v7-m/nofp/libc_nano.a(libc_a-nano-svfprintf.o) (_malloc_r)
/usr/lib/gcc/arm-none-eabi/13.2.1/../../../arm-none-eabi/lib/thumb/v7-m/nofp/libc_nano.a(libc_a-freer.o)
                              /usr/lib/gcc/arm-none-eabi/13.2.1/../../../arm-none-eabi/lib/thumb/v7-m/nofp/libc_nano.a(libc_a-nano-svfprintf.o) (_free_r)
/usr/lib/gcc/arm-none-eabi/13.2.1/../../../arm-none-eabi/lib/thumb/v7-m/nofp/libc_nano.a(libc_a-memmove.o)
                              /usr/lib/gcc/arm-none-eabi/13.2.1/../../../arm-none-eabi/lib/thumb/v7-m/nofp/libc_nano.a(libc_a-nano-svfprintf.o) (memmove)
/usr/lib/gcc/arm-none-eabi/13.2.1/../../../arm-none-eabi/lib/thumb/v7-m/nofp/libc_nano.a(libc_a-fwalk.o)
                              /usr/lib/gcc/arm-none-eabi/13.2.1/../../../arm-none-eabi/lib/thumb/v7-m/nofp/libc_nano.a(libc_a-findfp.o) (_fwalk_sglue)
/usr/lib/gcc/arm-none-eabi/13.2.1/../../../arm-none-eabi/lib/thumb/v7-m/nofp/libc_nano.a(libc_a-wsetup.o)
                              /usr/lib/gcc/arm-none-eabi/13.2.1/../../../arm-none-eabi/lib/thumb/v7-m/nofp/libc_nano.a(libc_a-nano-vfprintf.o) (__swsetup_r)
/usr/lib/gcc/arm-none-eabi/13.2.1/../../../arm-none-eabi/lib/thumb/v7-m/nofp/libc_nano.a(libc_a-__atexit.o)
                              /usr/lib/gcc/arm-none-eabi/13.2.1/../../../arm-none-eabi/lib/thumb/v7-m/nofp/libc_nano.a(libc_a-atexit.o) (__register_exitproc)
/usr/lib/gcc/arm-none-eabi/13.2.1/../../../arm-none-eabi/lib/thumb/v7-m/nofp/libc_nano.a(libc_a-reallocr.o)
                              /usr/lib/gcc/arm-none-eabi/13.2.1/../../../arm-none-eabi/lib/thumb/v7-m/nofp/libc_nano.a(libc_a-nano-svfprintf.o) (_realloc_r)
/usr/lib/gcc/arm-none-eabi/13.2.1/../../../arm-none-eabi/lib/thumb/v7-m/nofp/libc_nano.a(libc_a-nano-vfprintf_i.o)
                              /usr/lib/gcc/arm-none-eabi/13.2.1/../../../arm-none-eabi/lib/thumb/v7-m/nofp/libc_nano.a(libc_a-nano-vfprintf.o) (_printf_i)
/usr/lib/gcc/arm-none-eabi/13.2.1/../../../arm-none-eabi/lib/thumb/v7-m/nofp/libc_nano.a(libc_a-mlock.o)
                              /usr/lib/gcc/arm-none-eabi/13.2.1/../../../arm-none-eabi/lib/thumb/v7-m/nofp/libc_nano.a(libc_a-mallocr.o) (__malloc_lock)
/usr/lib/gcc/arm-none-eabi/13.2.1/../../../arm-none-eabi/lib/thumb/v7-m/nofp/libc_nano.a(libc_a-makebuf.o)
                              /usr/lib/gcc/arm-none-eabi/13.2.1/../../../arm-none-eabi/lib/thumb/v7-m/nofp/libc_nano.a(libc_a-wsetup.o) (__smakebuf_r)
/usr/lib/gcc/arm-none-eabi/13.2.1/../../../arm-none-eabi/lib/thumb/v7-m/nofp/libc_nano.a(libc_a-memchr-stub.o)
                              /usr/lib/gcc/arm-none-eabi/13.2.1/../../../arm-none-eabi/lib/thumb/v7-m/nofp/libc_nano.a(libc_a-nano-vfprintf.o) (memchr)
/usr/lib/gcc/arm-none-eabi/13.2.1/../../../arm-none-eabi/lib/thumb/v7-m/nofp/libc_nano.a(libc_a-isattyr.o)
                              /usr/lib/gcc/arm-none-eabi/13.2.1/../../../arm-none-eabi/lib/thumb/v7-m/nofp/libc_nano.a(libc_a-makebuf.o) (_isatty_r)
/usr/lib/gcc/arm-none-eabi/13.2.1/../../../arm-none-eabi/lib/thumb/v7-m/nofp/libc_nano.a(libc_a-sbrkr.o)
                              /usr/lib/gcc/arm-none-eabi/13.2.1/../../../arm-none-eabi/lib/thumb/v7-m/nofp/libc_nano.a(libc_a-mallocr.o) (_sbrk_r)
/usr/lib/gcc/arm-none-eabi/13.2.1/../../../arm-none-eabi/lib/thumb/v7-m/nofp/libc_nano.a(libc_a-stdio.o)
                              /usr/lib/gcc/arm-none-eabi/13.2.1/../../../arm-none-eabi/lib/thumb/v7-m/nofp/libc_nano.a(libc_a-findfp.o) (__sread)
/usr/lib/gcc/arm-none-eabi/13.2.1/../../../arm-none-eabi/lib/thumb/v7-m/nofp/libc_nano.a(libc_a-msizer.o)
                              /usr/lib/gcc/arm-none-eabi/13.2.1/../../../arm-none-eabi/lib/thumb/v7-m/nofp/libc_nano.a(libc_a-reallocr.o) (_malloc_usable_size_r)
/usr/lib/gcc/arm-none-eabi/13.2.1/../../../arm-none-eabi/lib/thumb/v7-m/nofp/libc_nano.a(libc_a-closer.o)
                              /usr/lib/gcc/arm-none-eabi/13.2.1/../../../arm-none-eabi/lib/thumb/v7-m/nofp/libc_nano.a(libc_a-stdio.o) (_close_r)
/usr/lib/gcc/arm-none-eabi/13.2.1/../../../arm-none-eabi/lib/thumb/v7-m/nofp/libc_nano.a(libc_a-__call_atexit.o)
                              /usr/lib/gcc/arm-none-eabi/13.2.1/../../../arm-none-eabi/lib/thumb/v7-m/nofp/libc_nano.a(libc_a-__atexit.o) (__call_exitprocs)
/usr/lib/gcc/arm-none-eabi/13.2.1/../../../arm-none-eabi/lib/thumb/v7-m/nofp/libc_nano.a(libc_a-readr.o)
                              /usr/lib/gcc/arm-none-eabi/13.2.1/../../../arm-none-eabi/lib/thumb/v7-m/nofp/libc_nano.a(libc_a-stdio.o) (_read_r)
/usr/lib/gcc/arm-none-eabi/13.2.1/../../../arm-none-eabi/lib/thumb/v7-m/nofp/libc_nano.a(libc_a-reent.o)
                              /usr/lib/gcc/arm-none-eabi/13.2.1/../../../arm-none-eabi/lib/thumb/v7-m/nofp/libc_nano.a(libc_a-isattyr.o) (errno)
/usr/lib/gcc/arm-none-eabi/13.2.1/../../../arm-none-eabi/lib/thumb/v7-m/nofp/libc_nano.a(libc_a-fstatr.o)
                              /usr/lib/gcc/arm-none-eabi/13.2.1/../../../arm-none-eabi/lib/thumb/v7-m/nofp/libc_nano.a(libc_a-makebuf.o) (_fstat_r)
/usr/lib/gcc/arm-none-eabi/13.2.1/../../../arm-none-eabi/lib/thumb/v7-m/nofp/libc_nano.a(libc_a-lseekr.o)
                              /usr/lib/gcc/arm-none-eabi/13.2.1/../../../arm-none-eabi/lib/thumb/v7-m/nofp/libc_nano.a(libc_a-stdio.o) (_lseek_r)
/usr/lib/gcc/arm-none-eabi/13.2.1/../../../arm-none-eabi/lib/thumb/v7-m/nofp/libc_nano.a(libc_a-writer.o)
                              /usr/lib/gcc/arm-none-eabi/13.2.1/../../../arm-none-eabi/lib/thumb/v7-m/nofp/libc_nano.a(libc_a-stdio.o) (_write_r)
/usr/lib/gcc/arm-none-eabi/13.2.1/../../../arm-none-eabi/lib/thumb/v7-m/nofp/libnosys.a(close.o)
                              /usr/lib/gcc/arm-none-eabi/13.2.1/../../../arm-none-eabi/lib/thumb/v7-m/nofp/libc_nano.a(libc_a-closer.o) (_close)
/usr/lib/gcc/arm-none-eabi/13.2.1/../../../arm-none-eabi/lib/thumb/v7-m/nofp/libnosys.a(fstat.o)
                              /usr/lib/gcc/arm-none-eabi/13.2.1/../../../arm-none-eabi/lib/thumb/v7-m/nofp/libc_nano.a(libc_a-fstatr.o) (_fstat)
/usr/lib/gcc/arm-none-eabi/13.2.1/../../../arm-none-eabi/lib/thumb/v7-m/nofp/libnosys.a(isatty.o)
                              /usr/lib/gcc/arm-none-eabi/13.2.1/../../../arm-none-eabi/lib/thumb/v7-m/nofp/libc_nano.a(libc_a-isattyr.o) (_isatty)
/usr/lib/gcc/arm-none-eabi/13.2.1/../../../arm-none-eabi/lib/thumb/v7-m/nofp/libnosys.a(lseek.o)
                              /usr/lib/gcc/arm-none-eabi/13.2.1/../../../arm-none-eabi/lib/thumb/v7-m/nofp/libc_nano.a(libc_a-lseekr.o) (_lseek)
/usr/lib/gcc/arm-none-eabi/13.2.1/../../../arm-none-eabi/lib/thumb/v7-m/nofp/libnosys.a(read.o)
                              /usr/lib/gcc/arm-none-eabi/13.2.1/../../../arm-none-eabi/lib/thumb/v7-m/nofp/libc_nano.a(libc_a-readr.o) (_read)
/usr/lib/gcc/arm-none-eabi/13.2.1/../../../arm-none-eabi/lib/thumb/v7-m/nofp/libnosys.a(sbrk.o)
                              /usr/lib/gcc/arm-none-eabi/13.2.1/../../../arm-none-eabi/lib/thumb/v7-m/nofp/libc_nano.a(libc_a-sbrkr.o) (_sbrk)
/usr/lib/gcc/arm-none-eabi/13.2.1/../../../arm-none-eabi/lib/thumb/v7-m/nofp/libnosys.a(write.o)
                              /usr/lib/gcc/arm-none-eabi/13.2.1/../../../arm-none-eabi/lib/thumb/v7-m/nofp/libc_nano.a(libc_a-writer.o) (_write)
/usr/lib/gcc/arm-none-eabi/13.2.1/../../../arm-none-eabi/lib/thumb/v7-m/nofp/libnosys.a(_exit.o)
                              /usr/lib/gcc/arm-none-eabi/13.2.1/../../../arm-none-eabi/lib/thumb/v7-m/nofp/libc_nano.a(libc_a-exit.o) (_exit)
/usr/lib/gcc/arm-none-eabi/13.2.1/thumb/v7-m/nofp/libgcc.a(_arm_muldf3.o)
                              /workspaces/hoverboard-firmware-hack-FOC/build/hd44780.o (__aeabi_dmul)
/usr/lib/gcc/arm-none-eabi/13.2.1/thumb/v7-m/nofp/libgcc.a(_arm_addsubdf3.o)
                              /workspaces/hoverboard-firmware-hack-FOC/build/hd44780.o (__aeabi_dsub)
/usr/lib/gcc/arm-none-eabi/13.2.1/thumb/v7-m/nofp/libgcc.a(_arm_muldivdf3.o)
                              /workspaces/hoverboard-firmware-hack-FOC/build/hd44780.o (__aeabi_ddiv)
/usr/lib/gcc/arm-none-eabi/13.2.1/thumb/v7-m/nofp/libgcc.a(_arm_cmpdf2.o)
                              /workspaces/hoverboard-firmware-hack-FOC/build/hd44780.o (__aeabi_dcmplt)
/usr/lib/gcc/arm-none-eabi/13.2.1/thumb/v7-m/nofp/libgcc.a(_arm_fixdfsi.o)
                              /workspaces/hoverboard-firmware-hack-FOC/build/hd44780.o (__aeabi_d2iz)
/usr/lib/gcc/arm-none-eabi/13.2.1/thumb/v7-m/nofp/libgcc.a(_arm_fixunsdfsi.o)
                              /workspaces/hoverboard-firmware-hack-FOC/build/hd44780.o (__aeabi_d2uiz)

Discarded input sections

 .text          0x00000000        0x0 /usr/lib/gcc/arm-none-eabi/13.2.1/thumb/v7-m/nofp/crti.o
 .data          0x00000000        0x0 /usr/lib/gcc/arm-none-eabi/13.2.1/thumb/v7-m/nofp/crti.o
 .bss           0x00000000        0x0 /usr/lib/gcc/arm-none-eabi/13.2.1/thumb/v7-m/nofp/crti.o
 .data          0x00000000        0x4 /usr/lib/gcc/arm-none-eabi/13.2.1/thumb/v7-m/nofp/crtbegin.o
 .rodata        0x00000000       0x24 /usr/lib/gcc/arm-none-eabi/13.2.1/thumb/v7-m/nofp/crtbegin.o
 .text          0x00000000       0x70 /usr/lib/gcc/arm-none-eabi/13.2.1/../../../arm-none-eabi/lib/thumb/v7-m/nofp/crt0.o
 .data          0x00000000        0x0 /usr/lib/gcc/arm-none-eabi/13.2.1/../../../arm-none-eabi/lib/thumb/v7-m/nofp/crt0.o
 .bss           0x00000000        0x0 /usr/lib/gcc/arm-none-eabi/13.2.1/../../../arm-none-eabi/lib/thumb/v7-m/nofp/crt0.o
 .ARM.extab     0x00000000        0x0 /usr/lib/gcc/arm-none-eabi/13.2.1/../../../arm-none-eabi/lib/thumb/v7-m/nofp/crt0.o
 .ARM.exidx     0x00000000       0x10 /usr/lib/gcc/arm-none-eabi/13.2.1/../../../arm-none-eabi/lib/thumb/v7-m/nofp/crt0.o
 .debug_line    0x00000000       0x75 /usr/lib/gcc/arm-none-eabi/13.2.1/../../../arm-none-eabi/lib/thumb/v7-m/nofp/crt0.o
 .debug_line_str
                0x00000000       0x7e /usr/lib/gcc/arm-none-eabi/13.2.1/../../../arm-none-eabi/lib/thumb/v7-m/nofp/crt0.o
 .debug_info    0x00000000       0x24 /usr/lib/gcc/arm-none-eabi/13.2.1/../../../arm-none-eabi/lib/thumb/v7-m/nofp/crt0.o
 .debug_abbrev  0x00000000       0x14 /usr/lib/gcc/arm-none-eabi/13.2.1/../../../arm-none-eabi/lib/thumb/v7-m/nofp/crt0.o
 .debug_aranges
                0x00000000       0x20 /usr/lib/gcc/arm-none-eabi/13.2.1/../../../arm-none-eabi/lib/thumb/v7-m/nofp/crt0.o
 .debug_str     0x00000000       0x8a /usr/lib/gcc/arm-none-eabi/13.2.1/../../../arm-none-eabi/lib/thumb/v7-m/nofp/crt0.o
 .ARM.attributes
                0x00000000       0x1b /usr/lib/gcc/arm-none-eabi/13.2.1/../../../arm-none-eabi/lib/thumb/v7-m/nofp/crt0.o
 .text          0x00000000        0x0 /workspaces/hoverboard-firmware-hack-FOC/build/stm32f1xx_hal_flash.o
 .data          0x00000000        0x0 /workspaces/hoverboard-firmware-hack-FOC/build/stm32f1xx_hal_flash.o
 .bss           0x00000000        0x0 /workspaces/hoverboard-firmware-hack-FOC/build/stm32f1xx_hal_flash.o
 .text.HAL_FLASH_Program_IT
                0x00000000       0x6c /workspaces/hoverboard-firmware-hack-FOC/build/stm32f1xx_hal_flash.o
 .text.HAL_FLASH_EndOfOperationCallback
                0x00000000        0x2 /workspaces/hoverboard-firmware-hack-FOC/build/stm32f1xx_hal_flash.o
 .text.HAL_FLASH_OperationErrorCallback
                0x00000000        0x2 /workspaces/hoverboard-firmware-hack-FOC/build/stm32f1xx_hal_flash.o
 .text.HAL_FLASH_IRQHandler
                0x00000000      0x154 /workspaces/hoverboard-firmware-hack-FOC/build/stm32f1xx_hal_flash.o
 .text.HAL_FLASH_OB_Unlock
                0x00000000       0x28 /workspaces/hoverboard-firmware-hack-FOC/build/stm32f1xx_hal_flash.o
 .text.HAL_FLASH_OB_Lock
                0x00000000       0x14 /workspaces/hoverboard-firmware-hack-FOC/build/stm32f1xx_hal_flash.o
 .text.HAL_FLASH_OB_Launch
                0x00000000        0x8 /workspaces/hoverboard-firmware-hack-FOC/build/stm32f1xx_hal_flash.o
 .text.HAL_FLASH_GetError
                0x00000000        0xc /workspaces/hoverboard-firmware-hack-FOC/build/stm32f1xx_hal_flash.o
 .text          0x00000000        0x0 /workspaces/hoverboard-firmware-hack-FOC/build/stm32f1xx_hal_pwr.o
 .data          0x00000000        0x0 /workspaces/hoverboard-firmware-hack-FOC/build/stm32f1xx_hal_pwr.o
 .bss           0x00000000        0x0 /workspaces/hoverboard-firmware-hack-FOC/build/stm32f1xx_hal_pwr.o
 .text.PWR_OverloadWfe
                0x00000000        0x6 /workspaces/hoverboard-firmware-hack-FOC/build/stm32f1xx_hal_pwr.o
 .text.HAL_PWR_DeInit
                0x00000000       0x18 /workspaces/hoverboard-firmware-hack-FOC/build/stm32f1xx_hal_pwr.o
 .text.HAL_PWR_EnableBkUpAccess
                0x00000000        0xc /workspaces/hoverboard-firmware-hack-FOC/build/stm32f1xx_hal_pwr.o
 .text.HAL_PWR_DisableBkUpAccess
                0x00000000        0xc /workspaces/hoverboard-firmware-hack-FOC/build/stm32f1xx_hal_pwr.o
 .text.HAL_PWR_ConfigPVD
                0x00000000       0x84 /workspaces/hoverboard-firmware-hack-FOC/build/stm32f1xx_hal_pwr.o
 .text.HAL_PWR_EnablePVD
                0x00000000        0xc /workspaces/hoverboard-firmware-hack-FOC/build/stm32f1xx_hal_pwr.o
 .text.HAL_PWR_DisablePVD
                0x00000000        0xc /workspaces/hoverboard-firmware-hack-FOC/build/stm32f1xx_hal_pwr.o
 .text.HAL_PWR_EnableWakeUpPin
                0x00000000       0x18 /workspaces/hoverboard-firmware-hack-FOC/build/stm32f1xx_hal_pwr.o
 .text.HAL_PWR_DisableWakeUpPin
                0x00000000       0x18 /workspaces/hoverboard-firmware-hack-FOC/build/stm32f1xx_hal_pwr.o
 .text.HAL_PWR_EnterSLEEPMode
                0x00000000       0x20 /workspaces/hoverboard-firmware-hack-FOC/build/stm32f1xx_hal_pwr.o
 .text.HAL_PWR_EnterSTOPMode
                0x00000000       0x48 /workspaces/hoverboard-firmware-hack-FOC/build/stm32f1xx_hal_pwr.o
 .text.HAL_PWR_EnterSTANDBYMode
                0x00000000       0x20 /workspaces/hoverboard-firmware-hack-FOC/build/stm32f1xx_hal_pwr.o
 .text.HAL_PWR_EnableSleepOnExit
                0x00000000       0x10 /workspaces/hoverboard-firmware-hack-FOC/build/stm32f1xx_hal_pwr.o
 .text.HAL_PWR_DisableSleepOnExit
                0x00000000       0x10 /workspaces/hoverboard-firmware-hack-FOC/build/stm32f1xx_hal_pwr.o
 .text.HAL_PWR_EnableSEVOnPend
                0x00000000       0x10 /workspaces/hoverboard-firmware-hack-FOC/build/stm32f1xx_hal_pwr.o
 .text.HAL_PWR_DisableSEVOnPend
                0x00000000       0x10 /workspaces/hoverboard-firmware-hack-FOC/build/stm32f1xx_hal_pwr.o
 .text.HAL_PWR_PVDCallback
                0x00000000        0x2 /workspaces/hoverboard-firmware-hack-FOC/build/stm32f1xx_hal_pwr.o
 .text.HAL_PWR_PVD_IRQHandler
                0x00000000       0x20 /workspaces/hoverboard-firmware-hack-FOC/build/stm32f1xx_hal_pwr.o
 .debug_info    0x00000000      0x7fb /workspaces/hoverboard-firmware-hack-FOC/build/stm32f1xx_hal_pwr.o
 .debug_abbrev  0x00000000      0x225 /workspaces/hoverboard-firmware-hack-FOC/build/stm32f1xx_hal_pwr.o
 .debug_loc     0x00000000      0x1b2 /workspaces/hoverboard-firmware-hack-FOC/build/stm32f1xx_hal_pwr.o
 .debug_aranges
                0x00000000       0xa8 /workspaces/hoverboard-firmware-hack-FOC/build/stm32f1xx_hal_pwr.o
 .debug_ranges  0x00000000       0x98 /workspaces/hoverboard-firmware-hack-FOC/build/stm32f1xx_hal_pwr.o
 .debug_line    0x00000000      0x444 /workspaces/hoverboard-firmware-hack-FOC/build/stm32f1xx_hal_pwr.o
 .debug_str     0x00000000      0x478 /workspaces/hoverboard-firmware-hack-FOC/build/stm32f1xx_hal_pwr.o
 .comment       0x00000000       0x27 /workspaces/hoverboard-firmware-hack-FOC/build/stm32f1xx_hal_pwr.o
 .debug_frame   0x00000000      0x140 /workspaces/hoverboard-firmware-hack-FOC/build/stm32f1xx_hal_pwr.o
 .ARM.attributes
                0x00000000       0x2d /workspaces/hoverboard-firmware-hack-FOC/build/stm32f1xx_hal_pwr.o
 .text          0x00000000        0x0 /workspaces/hoverboard-firmware-hack-FOC/build/stm32f1xx_hal_rcc.o
 .data          0x00000000        0x0 /workspaces/hoverboard-firmware-hack-FOC/build/stm32f1xx_hal_rcc.o
 .bss           0x00000000        0x0 /workspaces/hoverboard-firmware-hack-FOC/build/stm32f1xx_hal_rcc.o
 .text.HAL_RCC_DeInit
                0x00000000       0x44 /workspaces/hoverboard-firmware-hack-FOC/build/stm32f1xx_hal_rcc.o
 .text.HAL_RCC_MCOConfig
                0x00000000       0x50 /workspaces/hoverboard-firmware-hack-FOC/build/stm32f1xx_hal_rcc.o
 .text.HAL_RCC_EnableCSS
                0x00000000        0xc /workspaces/hoverboard-firmware-hack-FOC/build/stm32f1xx_hal_rcc.o
 .text.HAL_RCC_DisableCSS
                0x00000000        0xc /workspaces/hoverboard-firmware-hack-FOC/build/stm32f1xx_hal_rcc.o
 .text.HAL_RCC_GetOscConfig
                0x00000000       0xb4 /workspaces/hoverboard-firmware-hack-FOC/build/stm32f1xx_hal_rcc.o
 .text.HAL_RCC_GetClockConfig
                0x00000000       0x3c /workspaces/hoverboard-firmware-hack-FOC/build/stm32f1xx_hal_rcc.o
 .text.HAL_RCC_CSSCallback
                0x00000000        0x2 /workspaces/hoverboard-firmware-hack-FOC/build/stm32f1xx_hal_rcc.o
 .text.HAL_RCC_NMI_IRQHandler
                0x00000000       0x20 /workspaces/hoverboard-firmware-hack-FOC/build/stm32f1xx_hal_rcc.o
 .text          0x00000000        0x0 /workspaces/hoverboard-firmware-hack-FOC/build/stm32f1xx_hal_tim.o
 .data          0x00000000        0x0 /workspaces/hoverboard-firmware-hack-FOC/build/stm32f1xx_hal_tim.o
 .bss           0x00000000        0x0 /workspaces/hoverboard-firmware-hack-FOC/build/stm32f1xx_hal_tim.o
 .text.TIM_TI2_SetConfig
                0x00000000       0x36 /workspaces/hoverboard-firmware-hack-FOC/build/stm32f1xx_hal_tim.o
 .text.TIM_TI3_SetConfig
                0x00000000       0x36 /workspaces/hoverboard-firmware-hack-FOC/build/stm32f1xx_hal_tim.o
 .text.TIM_TI4_SetConfig
                0x00000000       0x36 /workspaces/hoverboard-firmware-hack-FOC/build/stm32f1xx_hal_tim.o
 .text.TIM_ITRx_SetConfig
                0x00000000       0x10 /workspaces/hoverboard-firmware-hack-FOC/build/stm32f1xx_hal_tim.o
 .text.HAL_TIM_Base_MspInit
                0x00000000        0x2 /workspaces/hoverboard-firmware-hack-FOC/build/stm32f1xx_hal_tim.o
 .text.HAL_TIM_Base_MspDeInit
                0x00000000        0x2 /workspaces/hoverboard-firmware-hack-FOC/build/stm32f1xx_hal_tim.o
 .text.HAL_TIM_Base_DeInit
                0x00000000       0x3a /workspaces/hoverboard-firmware-hack-FOC/build/stm32f1xx_hal_tim.o
 .text.HAL_TIM_Base_Start
                0x00000000       0x1a /workspaces/hoverboard-firmware-hack-FOC/build/stm32f1xx_hal_tim.o
 .text.HAL_TIM_Base_Stop
                0x00000000       0x2e /workspaces/hoverboard-firmware-hack-FOC/build/stm32f1xx_hal_tim.o
 .text.HAL_TIM_Base_Start_IT
                0x00000000       0x18 /workspaces/hoverboard-firmware-hack-FOC/build/stm32f1xx_hal_tim.o
 .text.HAL_TIM_Base_Stop_IT
                0x00000000       0x2c /workspaces/hoverboard-firmware-hack-FOC/build/stm32f1xx_hal_tim.o
 .text.HAL_TIM_Base_Start_DMA
                0x00000000       0x60 /workspaces/hoverboard-firmware-hack-FOC/build/stm32f1xx_hal_tim.o
 .text.HAL_TIM_Base_Stop_DMA
                0x00000000       0x32 /workspaces/hoverboard-firmware-hack-FOC/build/stm32f1xx_hal_tim.o
 .text.HAL_TIM_OC_MspInit
                0x00000000        0x2 /workspaces/hoverboard-firmware-hack-FOC/build/stm32f1xx_hal_tim.o
 .text.HAL_TIM_OC_MspDeInit
                0x00000000        0x2 /workspaces/hoverboard-firmware-hack-FOC/build/stm32f1xx_hal_tim.o
 .text.HAL_TIM_OC_DeInit
                0x00000000       0x3a /workspaces/hoverboard-firmware-hack-FOC/build/stm32f1xx_hal_tim.o
 .text.HAL_TIM_PWM_MspDeInit
                0x00000000        0x2 /workspaces/hoverboard-firmware-hack-FOC/build/stm32f1xx_hal_tim.o
 .text.HAL_TIM_PWM_DeInit
                0x00000000       0x3a /workspaces/hoverboard-firmware-hack-FOC/build/stm32f1xx_hal_tim.o
 .text.HAL_TIM_IC_MspInit
                0x00000000        0x2 /workspaces/hoverboard-firmware-hack-FOC/build/stm32f1xx_hal_tim.o
 .text.HAL_TIM_IC_MspDeInit
                0x00000000        0x2 /workspaces/hoverboard-firmware-hack-FOC/build/stm32f1xx_hal_tim.o
 .text.HAL_TIM_IC_DeInit
                0x00000000       0x3a /workspaces/hoverboard-firmware-hack-FOC/build/stm32f1xx_hal_tim.o
 .text.HAL_TIM_OnePulse_MspInit
                0x00000000        0x2 /workspaces/hoverboard-firmware-hack-FOC/build/stm32f1xx_hal_tim.o
 .text.HAL_TIM_OnePulse_MspDeInit
                0x00000000        0x2 /workspaces/hoverboard-firmware-hack-FOC/build/stm32f1xx_hal_tim.o
 .text.HAL_TIM_OnePulse_DeInit
                0x00000000       0x3a /workspaces/hoverboard-firmware-hack-FOC/build/stm32f1xx_hal_tim.o
 .text.HAL_TIM_Encoder_MspInit
                0x00000000        0x2 /workspaces/hoverboard-firmware-hack-FOC/build/stm32f1xx_hal_tim.o
 .text.HAL_TIM_Encoder_MspDeInit
                0x00000000        0x2 /workspaces/hoverboard-firmware-hack-FOC/build/stm32f1xx_hal_tim.o
 .text.HAL_TIM_Encoder_DeInit
                0x00000000       0x3a /workspaces/hoverboard-firmware-hack-FOC/build/stm32f1xx_hal_tim.o
 .text.HAL_TIM_DMABurst_WriteStart
                0x00000000      0x14c /workspaces/hoverboard-firmware-hack-FOC/build/stm32f1xx_hal_tim.o
 .text.HAL_TIM_DMABurst_WriteStop
                0x00000000       0x76 /workspaces/hoverboard-firmware-hack-FOC/build/stm32f1xx_hal_tim.o
 .text.HAL_TIM_DMABurst_ReadStart
                0x00000000      0x14c /workspaces/hoverboard-firmware-hack-FOC/build/stm32f1xx_hal_tim.o
 .text.HAL_TIM_DMABurst_ReadStop
                0x00000000       0x76 /workspaces/hoverboard-firmware-hack-FOC/build/stm32f1xx_hal_tim.o
 .text.HAL_TIM_GenerateEvent
                0x00000000       0x2a /workspaces/hoverboard-firmware-hack-FOC/build/stm32f1xx_hal_tim.o
 .text.HAL_TIM_ConfigOCrefClear
                0x00000000       0xce /workspaces/hoverboard-firmware-hack-FOC/build/stm32f1xx_hal_tim.o
 .text.HAL_TIM_ConfigClockSource
                0x00000000      0x10a /workspaces/hoverboard-firmware-hack-FOC/build/stm32f1xx_hal_tim.o
 .text.HAL_TIM_ConfigTI1Input
                0x00000000       0x10 /workspaces/hoverboard-firmware-hack-FOC/build/stm32f1xx_hal_tim.o
 .text.HAL_TIM_SlaveConfigSynchronization_IT
                0x00000000       0x40 /workspaces/hoverboard-firmware-hack-FOC/build/stm32f1xx_hal_tim.o
 .text.HAL_TIM_ReadCapturedValue
                0x00000000       0x4c /workspaces/hoverboard-firmware-hack-FOC/build/stm32f1xx_hal_tim.o
 .text.HAL_TIM_PeriodElapsedCallback
                0x00000000        0x2 /workspaces/hoverboard-firmware-hack-FOC/build/stm32f1xx_hal_tim.o
 .text.TIM_DMAPeriodElapsedCplt
                0x00000000       0x10 /workspaces/hoverboard-firmware-hack-FOC/build/stm32f1xx_hal_tim.o
 .text.HAL_TIM_OC_DelayElapsedCallback
                0x00000000        0x2 /workspaces/hoverboard-firmware-hack-FOC/build/stm32f1xx_hal_tim.o
 .text.HAL_TIM_IC_CaptureCallback
                0x00000000        0x2 /workspaces/hoverboard-firmware-hack-FOC/build/stm32f1xx_hal_tim.o
 .text.TIM_DMACaptureCplt
                0x00000000       0x44 /workspaces/hoverboard-firmware-hack-FOC/build/stm32f1xx_hal_tim.o
 .text.HAL_TIM_PWM_PulseFinishedCallback
                0x00000000        0x2 /workspaces/hoverboard-firmware-hack-FOC/build/stm32f1xx_hal_tim.o
 .text.TIM_DMADelayPulseCplt
                0x00000000       0x44 /workspaces/hoverboard-firmware-hack-FOC/build/stm32f1xx_hal_tim.o
 .text.HAL_TIM_TriggerCallback
                0x00000000        0x2 /workspaces/hoverboard-firmware-hack-FOC/build/stm32f1xx_hal_tim.o
 .text.HAL_TIM_IRQHandler
                0x00000000      0x17a /workspaces/hoverboard-firmware-hack-FOC/build/stm32f1xx_hal_tim.o
 .text.TIM_DMATriggerCplt
                0x00000000       0x10 /workspaces/hoverboard-firmware-hack-FOC/build/stm32f1xx_hal_tim.o
 .text.HAL_TIM_ErrorCallback
                0x00000000        0x2 /workspaces/hoverboard-firmware-hack-FOC/build/stm32f1xx_hal_tim.o
 .text.TIM_DMAError
                0x00000000       0x10 /workspaces/hoverboard-firmware-hack-FOC/build/stm32f1xx_hal_tim.o
 .text.HAL_TIM_Base_GetState
                0x00000000        0x6 /workspaces/hoverboard-firmware-hack-FOC/build/stm32f1xx_hal_tim.o
 .text.HAL_TIM_OC_GetState
                0x00000000        0x6 /workspaces/hoverboard-firmware-hack-FOC/build/stm32f1xx_hal_tim.o
 .text.HAL_TIM_PWM_GetState
                0x00000000        0x6 /workspaces/hoverboard-firmware-hack-FOC/build/stm32f1xx_hal_tim.o
 .text.HAL_TIM_IC_GetState
                0x00000000        0x6 /workspaces/hoverboard-firmware-hack-FOC/build/stm32f1xx_hal_tim.o
 .text.HAL_TIM_OnePulse_GetState
                0x00000000        0x6 /workspaces/hoverboard-firmware-hack-FOC/build/stm32f1xx_hal_tim.o
 .text.HAL_TIM_Encoder_GetState
                0x00000000        0x6 /workspaces/hoverboard-firmware-hack-FOC/build/stm32f1xx_hal_tim.o
 .text.HAL_TIM_Base_Init
                0x00000000       0x34 /workspaces/hoverboard-firmware-hack-FOC/build/stm32f1xx_hal_tim.o
 .text.HAL_TIM_OC_Init
                0x00000000       0x34 /workspaces/hoverboard-firmware-hack-FOC/build/stm32f1xx_hal_tim.o
 .text.HAL_TIM_IC_Init
                0x00000000       0x34 /workspaces/hoverboard-firmware-hack-FOC/build/stm32f1xx_hal_tim.o
 .text.HAL_TIM_OnePulse_Init
                0x00000000       0x48 /workspaces/hoverboard-firmware-hack-FOC/build/stm32f1xx_hal_tim.o
 .text.HAL_TIM_Encoder_Init
                0x00000000       0x9e /workspaces/hoverboard-firmware-hack-FOC/build/stm32f1xx_hal_tim.o
 .text.HAL_TIM_OC_ConfigChannel
                0x00000000       0x5e /workspaces/hoverboard-firmware-hack-FOC/build/stm32f1xx_hal_tim.o
 .text.TIM_TI1_SetConfig
                0x00000000       0x6c /workspaces/hoverboard-firmware-hack-FOC/build/stm32f1xx_hal_tim.o
 .text.HAL_TIM_IC_ConfigChannel
                0x00000000       0xc0 /workspaces/hoverboard-firmware-hack-FOC/build/stm32f1xx_hal_tim.o
 .text.HAL_TIM_OnePulse_ConfigChannel
                0x00000000       0xee /workspaces/hoverboard-firmware-hack-FOC/build/stm32f1xx_hal_tim.o
 .text.HAL_TIM_OC_Start
                0x00000000       0x38 /workspaces/hoverboard-firmware-hack-FOC/build/stm32f1xx_hal_tim.o
 .text.HAL_TIM_OC_Stop
                0x00000000       0x60 /workspaces/hoverboard-firmware-hack-FOC/build/stm32f1xx_hal_tim.o
 .text.HAL_TIM_OC_Start_IT
                0x00000000       0x7c /workspaces/hoverboard-firmware-hack-FOC/build/stm32f1xx_hal_tim.o
 .text.HAL_TIM_OC_Stop_IT
                0x00000000       0xa4 /workspaces/hoverboard-firmware-hack-FOC/build/stm32f1xx_hal_tim.o
 .text.HAL_TIM_OC_Start_DMA
                0x00000000      0x104 /workspaces/hoverboard-firmware-hack-FOC/build/stm32f1xx_hal_tim.o
 .text.HAL_TIM_OC_Stop_DMA
                0x00000000       0xac /workspaces/hoverboard-firmware-hack-FOC/build/stm32f1xx_hal_tim.o
 .text.HAL_TIM_PWM_Stop
                0x00000000       0x68 /workspaces/hoverboard-firmware-hack-FOC/build/stm32f1xx_hal_tim.o
 .text.HAL_TIM_PWM_Start_IT
                0x00000000       0x7c /workspaces/hoverboard-firmware-hack-FOC/build/stm32f1xx_hal_tim.o
 .text.HAL_TIM_PWM_Stop_IT
                0x00000000       0xa4 /workspaces/hoverboard-firmware-hack-FOC/build/stm32f1xx_hal_tim.o
 .text.HAL_TIM_PWM_Start_DMA
                0x00000000      0x104 /workspaces/hoverboard-firmware-hack-FOC/build/stm32f1xx_hal_tim.o
 .text.HAL_TIM_PWM_Stop_DMA
                0x00000000       0xac /workspaces/hoverboard-firmware-hack-FOC/build/stm32f1xx_hal_tim.o
 .text.HAL_TIM_IC_Start
                0x00000000       0x1a /workspaces/hoverboard-firmware-hack-FOC/build/stm32f1xx_hal_tim.o
 .text.HAL_TIM_IC_Stop
                0x00000000       0x2e /workspaces/hoverboard-firmware-hack-FOC/build/stm32f1xx_hal_tim.o
 .text.HAL_TIM_IC_Start_IT
                0x00000000       0x5e /workspaces/hoverboard-firmware-hack-FOC/build/stm32f1xx_hal_tim.o
 .text.HAL_TIM_IC_Stop_IT
                0x00000000       0x72 /workspaces/hoverboard-firmware-hack-FOC/build/stm32f1xx_hal_tim.o
 .text.HAL_TIM_IC_Start_DMA
                0x00000000       0xe8 /workspaces/hoverboard-firmware-hack-FOC/build/stm32f1xx_hal_tim.o
 .text.HAL_TIM_IC_Stop_DMA
                0x00000000       0x78 /workspaces/hoverboard-firmware-hack-FOC/build/stm32f1xx_hal_tim.o
 .text.HAL_TIM_OnePulse_Start
                0x00000000       0x38 /workspaces/hoverboard-firmware-hack-FOC/build/stm32f1xx_hal_tim.o
 .text.HAL_TIM_OnePulse_Stop
                0x00000000       0x6c /workspaces/hoverboard-firmware-hack-FOC/build/stm32f1xx_hal_tim.o
 .text.HAL_TIM_OnePulse_Start_IT
                0x00000000       0x4c /workspaces/hoverboard-firmware-hack-FOC/build/stm32f1xx_hal_tim.o
 .text.HAL_TIM_OnePulse_Stop_IT
                0x00000000       0x80 /workspaces/hoverboard-firmware-hack-FOC/build/stm32f1xx_hal_tim.o
 .text.HAL_TIM_Encoder_Start
                0x00000000       0x44 /workspaces/hoverboard-firmware-hack-FOC/build/stm32f1xx_hal_tim.o
 .text.HAL_TIM_Encoder_Stop
                0x00000000       0x58 /workspaces/hoverboard-firmware-hack-FOC/build/stm32f1xx_hal_tim.o
 .text.HAL_TIM_Encoder_Start_IT
                0x00000000       0x6c /workspaces/hoverboard-firmware-hack-FOC/build/stm32f1xx_hal_tim.o
 .text.HAL_TIM_Encoder_Stop_IT
                0x00000000       0x86 /workspaces/hoverboard-firmware-hack-FOC/build/stm32f1xx_hal_tim.o
 .text.HAL_TIM_Encoder_Start_DMA
                0x00000000      0x12c /workspaces/hoverboard-firmware-hack-FOC/build/stm32f1xx_hal_tim.o
 .text.HAL_TIM_Encoder_Stop_DMA
                0x00000000       0x86 /workspaces/hoverboard-firmware-hack-FOC/build/stm32f1xx_hal_tim.o
 .text          0x00000000        0x0 /workspaces/hoverboard-firmware-hack-FOC/build/stm32f1xx_hal_tim_ex.o
 .data          0x00000000        0x0 /workspaces/hoverboard-firmware-hack-FOC/build/stm32f1xx_hal_tim_ex.o
 .bss           0x00000000        0x0 /workspaces/hoverboard-firmware-hack-FOC/build/stm32f1xx_hal_tim_ex.o
 .text.HAL_TIMEx_HallSensor_MspInit
                0x00000000        0x2 /workspaces/hoverboard-firmware-hack-FOC/build/stm32f1xx_hal_tim_ex.o
 .text.HAL_TIMEx_HallSensor_Init
                0x00000000       0xc0 /workspaces/hoverboard-firmware-hack-FOC/build/stm32f1xx_hal_tim_ex.o
 .text.HAL_TIMEx_HallSensor_MspDeInit
                0x00000000        0x2 /workspaces/hoverboard-firmware-hack-FOC/build/stm32f1xx_hal_tim_ex.o
 .text.HAL_TIMEx_HallSensor_DeInit
                0x00000000       0x3a /workspaces/hoverboard-firmware-hack-FOC/build/stm32f1xx_hal_tim_ex.o
 .text.HAL_TIMEx_HallSensor_Start
                0x00000000       0x1c /workspaces/hoverboard-firmware-hack-FOC/build/stm32f1xx_hal_tim_ex.o
 .text.HAL_TIMEx_HallSensor_Stop
                0x00000000       0x30 /workspaces/hoverboard-firmware-hack-FOC/build/stm32f1xx_hal_tim_ex.o
 .text.HAL_TIMEx_HallSensor_Start_IT
                0x00000000       0x26 /workspaces/hoverboard-firmware-hack-FOC/build/stm32f1xx_hal_tim_ex.o
 .text.HAL_TIMEx_HallSensor_Stop_IT
                0x00000000       0x3a /workspaces/hoverboard-firmware-hack-FOC/build/stm32f1xx_hal_tim_ex.o
 .text.HAL_TIMEx_HallSensor_Start_DMA
                0x00000000       0x70 /workspaces/hoverboard-firmware-hack-FOC/build/stm32f1xx_hal_tim_ex.o
 .text.HAL_TIMEx_HallSensor_Stop_DMA
                0x00000000       0x3a /workspaces/hoverboard-firmware-hack-FOC/build/stm32f1xx_hal_tim_ex.o
 .text.HAL_TIMEx_OCN_Start
                0x00000000       0x24 /workspaces/hoverboard-firmware-hack-FOC/build/stm32f1xx_hal_tim_ex.o
 .text.HAL_TIMEx_OCN_Stop
                0x00000000       0x4c /workspaces/hoverboard-firmware-hack-FOC/build/stm32f1xx_hal_tim_ex.o
 .text.HAL_TIMEx_OCN_Start_IT
                0x00000000       0x72 /workspaces/hoverboard-firmware-hack-FOC/build/stm32f1xx_hal_tim_ex.o
 .text.HAL_TIMEx_OCN_Stop_IT
                0x00000000       0xa4 /workspaces/hoverboard-firmware-hack-FOC/build/stm32f1xx_hal_tim_ex.o
 .text.HAL_TIMEx_OCN_Start_DMA
                0x00000000       0xf4 /workspaces/hoverboard-firmware-hack-FOC/build/stm32f1xx_hal_tim_ex.o
 .text.HAL_TIMEx_OCN_Stop_DMA
                0x00000000       0x96 /workspaces/hoverboard-firmware-hack-FOC/build/stm32f1xx_hal_tim_ex.o
 .text.HAL_TIMEx_PWMN_Stop
                0x00000000       0x4c /workspaces/hoverboard-firmware-hack-FOC/build/stm32f1xx_hal_tim_ex.o
 .text.HAL_TIMEx_PWMN_Start_IT
                0x00000000       0x72 /workspaces/hoverboard-firmware-hack-FOC/build/stm32f1xx_hal_tim_ex.o
 .text.HAL_TIMEx_PWMN_Stop_IT
                0x00000000       0xa4 /workspaces/hoverboard-firmware-hack-FOC/build/stm32f1xx_hal_tim_ex.o
 .text.HAL_TIMEx_PWMN_Start_DMA
                0x00000000       0xf4 /workspaces/hoverboard-firmware-hack-FOC/build/stm32f1xx_hal_tim_ex.o
 .text.HAL_TIMEx_PWMN_Stop_DMA
                0x00000000       0x96 /workspaces/hoverboard-firmware-hack-FOC/build/stm32f1xx_hal_tim_ex.o
 .text.HAL_TIMEx_OnePulseN_Start
                0x00000000       0x1a /workspaces/hoverboard-firmware-hack-FOC/build/stm32f1xx_hal_tim_ex.o
 .text.HAL_TIMEx_OnePulseN_Stop
                0x00000000       0x4c /workspaces/hoverboard-firmware-hack-FOC/build/stm32f1xx_hal_tim_ex.o
 .text.HAL_TIMEx_OnePulseN_Start_IT
                0x00000000       0x2e /workspaces/hoverboard-firmware-hack-FOC/build/stm32f1xx_hal_tim_ex.o
 .text.HAL_TIMEx_OnePulseN_Stop_IT
                0x00000000       0x60 /workspaces/hoverboard-firmware-hack-FOC/build/stm32f1xx_hal_tim_ex.o
 .text.HAL_TIMEx_ConfigCommutationEvent
                0x00000000       0x60 /workspaces/hoverboard-firmware-hack-FOC/build/stm32f1xx_hal_tim_ex.o
 .text.HAL_TIMEx_ConfigCommutationEvent_IT
                0x00000000       0x6a /workspaces/hoverboard-firmware-hack-FOC/build/stm32f1xx_hal_tim_ex.o
 .text.HAL_TIMEx_ConfigCommutationEvent_DMA
                0x00000000       0x80 /workspaces/hoverboard-firmware-hack-FOC/build/stm32f1xx_hal_tim_ex.o
 .text.HAL_TIMEx_CommutationCallback
                0x00000000        0x2 /workspaces/hoverboard-firmware-hack-FOC/build/stm32f1xx_hal_tim_ex.o
 .text.TIMEx_DMACommutationCplt
                0x00000000       0x10 /workspaces/hoverboard-firmware-hack-FOC/build/stm32f1xx_hal_tim_ex.o
 .text.HAL_TIMEx_BreakCallback
                0x00000000        0x2 /workspaces/hoverboard-firmware-hack-FOC/build/stm32f1xx_hal_tim_ex.o
 .text.HAL_TIMEx_HallSensor_GetState
                0x00000000        0x6 /workspaces/hoverboard-firmware-hack-FOC/build/stm32f1xx_hal_tim_ex.o
 .text          0x00000000        0x0 /workspaces/hoverboard-firmware-hack-FOC/build/stm32f1xx_hal_gpio_ex.o
 .data          0x00000000        0x0 /workspaces/hoverboard-firmware-hack-FOC/build/stm32f1xx_hal_gpio_ex.o
 .bss           0x00000000        0x0 /workspaces/hoverboard-firmware-hack-FOC/build/stm32f1xx_hal_gpio_ex.o
 .text.HAL_GPIOEx_ConfigEventout
                0x00000000       0x14 /workspaces/hoverboard-firmware-hack-FOC/build/stm32f1xx_hal_gpio_ex.o
 .text.HAL_GPIOEx_EnableEventout
                0x00000000       0x10 /workspaces/hoverboard-firmware-hack-FOC/build/stm32f1xx_hal_gpio_ex.o
 .text.HAL_GPIOEx_DisableEventout
                0x00000000       0x10 /workspaces/hoverboard-firmware-hack-FOC/build/stm32f1xx_hal_gpio_ex.o
 .debug_info    0x00000000      0x171 /workspaces/hoverboard-firmware-hack-FOC/build/stm32f1xx_hal_gpio_ex.o
 .debug_abbrev  0x00000000       0xdc /workspaces/hoverboard-firmware-hack-FOC/build/stm32f1xx_hal_gpio_ex.o
 .debug_loc     0x00000000       0x2b /workspaces/hoverboard-firmware-hack-FOC/build/stm32f1xx_hal_gpio_ex.o
 .debug_aranges
                0x00000000       0x30 /workspaces/hoverboard-firmware-hack-FOC/build/stm32f1xx_hal_gpio_ex.o
 .debug_ranges  0x00000000       0x20 /workspaces/hoverboard-firmware-hack-FOC/build/stm32f1xx_hal_gpio_ex.o
 .debug_line    0x00000000      0x118 /workspaces/hoverboard-firmware-hack-FOC/build/stm32f1xx_hal_gpio_ex.o
 .debug_str     0x00000000      0x22c /workspaces/hoverboard-firmware-hack-FOC/build/stm32f1xx_hal_gpio_ex.o
 .comment       0x00000000       0x27 /workspaces/hoverboard-firmware-hack-FOC/build/stm32f1xx_hal_gpio_ex.o
 .debug_frame   0x00000000       0x40 /workspaces/hoverboard-firmware-hack-FOC/build/stm32f1xx_hal_gpio_ex.o
 .ARM.attributes
                0x00000000       0x2d /workspaces/hoverboard-firmware-hack-FOC/build/stm32f1xx_hal_gpio_ex.o
 .text          0x00000000        0x0 /workspaces/hoverboard-firmware-hack-FOC/build/stm32f1xx_hal_adc_ex.o
 .data          0x00000000        0x0 /workspaces/hoverboard-firmware-hack-FOC/build/stm32f1xx_hal_adc_ex.o
 .bss           0x00000000        0x0 /workspaces/hoverboard-firmware-hack-FOC/build/stm32f1xx_hal_adc_ex.o
 .text.HAL_ADCEx_Calibration_Start
                0x00000000       0xec /workspaces/hoverboard-firmware-hack-FOC/build/stm32f1xx_hal_adc_ex.o
 .text.HAL_ADCEx_InjectedStart
                0x00000000       0xb8 /workspaces/hoverboard-firmware-hack-FOC/build/stm32f1xx_hal_adc_ex.o
 .text.HAL_ADCEx_InjectedStop
                0x00000000       0x54 /workspaces/hoverboard-firmware-hack-FOC/build/stm32f1xx_hal_adc_ex.o
 .text.HAL_ADCEx_InjectedPollForConversion
                0x00000000      0x168 /workspaces/hoverboard-firmware-hack-FOC/build/stm32f1xx_hal_adc_ex.o
 .text.HAL_ADCEx_InjectedStart_IT
                0x00000000       0xc0 /workspaces/hoverboard-firmware-hack-FOC/build/stm32f1xx_hal_adc_ex.o
 .text.HAL_ADCEx_InjectedStop_IT
                0x00000000       0x5e /workspaces/hoverboard-firmware-hack-FOC/build/stm32f1xx_hal_adc_ex.o
 .text.HAL_ADCEx_MultiModeStart_DMA
                0x00000000       0xf4 /workspaces/hoverboard-firmware-hack-FOC/build/stm32f1xx_hal_adc_ex.o
 .text.HAL_ADCEx_MultiModeStop_DMA
                0x00000000       0x78 /workspaces/hoverboard-firmware-hack-FOC/build/stm32f1xx_hal_adc_ex.o
 .text.HAL_ADCEx_InjectedGetValue
                0x00000000       0x24 /workspaces/hoverboard-firmware-hack-FOC/build/stm32f1xx_hal_adc_ex.o
 .text.HAL_ADCEx_MultiModeGetValue
                0x00000000       0x20 /workspaces/hoverboard-firmware-hack-FOC/build/stm32f1xx_hal_adc_ex.o
 .text.HAL_ADCEx_InjectedConvCpltCallback
                0x00000000        0x2 /workspaces/hoverboard-firmware-hack-FOC/build/stm32f1xx_hal_adc_ex.o
 .text.HAL_ADCEx_InjectedConfigChannel
                0x00000000      0x238 /workspaces/hoverboard-firmware-hack-FOC/build/stm32f1xx_hal_adc_ex.o
 .text          0x00000000        0x0 /workspaces/hoverboard-firmware-hack-FOC/build/stm32f1xx_hal_cortex.o
 .data          0x00000000        0x0 /workspaces/hoverboard-firmware-hack-FOC/build/stm32f1xx_hal_cortex.o
 .bss           0x00000000        0x0 /workspaces/hoverboard-firmware-hack-FOC/build/stm32f1xx_hal_cortex.o
 .text.NVIC_GetPriority
                0x00000000       0x24 /workspaces/hoverboard-firmware-hack-FOC/build/stm32f1xx_hal_cortex.o
 .text.NVIC_DecodePriority
                0x00000000       0x3e /workspaces/hoverboard-firmware-hack-FOC/build/stm32f1xx_hal_cortex.o
 .text.NVIC_SystemReset
                0x00000000       0x24 /workspaces/hoverboard-firmware-hack-FOC/build/stm32f1xx_hal_cortex.o
 .text.HAL_NVIC_DisableIRQ
                0x00000000       0x18 /workspaces/hoverboard-firmware-hack-FOC/build/stm32f1xx_hal_cortex.o
 .text.HAL_NVIC_SystemReset
                0x00000000        0x6 /workspaces/hoverboard-firmware-hack-FOC/build/stm32f1xx_hal_cortex.o
 .text.HAL_NVIC_GetPriorityGrouping
                0x00000000       0x10 /workspaces/hoverboard-firmware-hack-FOC/build/stm32f1xx_hal_cortex.o
 .text.HAL_NVIC_GetPriority
                0x00000000       0x18 /workspaces/hoverboard-firmware-hack-FOC/build/stm32f1xx_hal_cortex.o
 .text.HAL_NVIC_SetPendingIRQ
                0x00000000       0x18 /workspaces/hoverboard-firmware-hack-FOC/build/stm32f1xx_hal_cortex.o
 .text.HAL_NVIC_GetPendingIRQ
                0x00000000       0x1c /workspaces/hoverboard-firmware-hack-FOC/build/stm32f1xx_hal_cortex.o
 .text.HAL_NVIC_ClearPendingIRQ
                0x00000000       0x18 /workspaces/hoverboard-firmware-hack-FOC/build/stm32f1xx_hal_cortex.o
 .text.HAL_NVIC_GetActive
                0x00000000       0x1c /workspaces/hoverboard-firmware-hack-FOC/build/stm32f1xx_hal_cortex.o
 .text          0x00000000        0x0 /workspaces/hoverboard-firmware-hack-FOC/build/stm32f1xx_hal_flash_ex.o
 .data          0x00000000        0x0 /workspaces/hoverboard-firmware-hack-FOC/build/stm32f1xx_hal_flash_ex.o
 .bss           0x00000000        0x0 /workspaces/hoverboard-firmware-hack-FOC/build/stm32f1xx_hal_flash_ex.o
 .text.FLASH_OB_GetWRP
                0x00000000        0xc /workspaces/hoverboard-firmware-hack-FOC/build/stm32f1xx_hal_flash_ex.o
 .text.FLASH_OB_GetRDP
                0x00000000       0x18 /workspaces/hoverboard-firmware-hack-FOC/build/stm32f1xx_hal_flash_ex.o
 .text.FLASH_OB_GetUser
                0x00000000       0x10 /workspaces/hoverboard-firmware-hack-FOC/build/stm32f1xx_hal_flash_ex.o
 .text.FLASH_OB_RDP_LevelConfig
                0x00000000       0x68 /workspaces/hoverboard-firmware-hack-FOC/build/stm32f1xx_hal_flash_ex.o
 .text.FLASH_OB_UserConfig
                0x00000000       0x48 /workspaces/hoverboard-firmware-hack-FOC/build/stm32f1xx_hal_flash_ex.o
 .text.FLASH_OB_ProgramData
                0x00000000       0x40 /workspaces/hoverboard-firmware-hack-FOC/build/stm32f1xx_hal_flash_ex.o
 .text.HAL_FLASHEx_OBErase
                0x00000000       0x50 /workspaces/hoverboard-firmware-hack-FOC/build/stm32f1xx_hal_flash_ex.o
 .text.FLASH_OB_EnableWRP
                0x00000000       0xc4 /workspaces/hoverboard-firmware-hack-FOC/build/stm32f1xx_hal_flash_ex.o
 .text.FLASH_OB_DisableWRP
                0x00000000       0xc8 /workspaces/hoverboard-firmware-hack-FOC/build/stm32f1xx_hal_flash_ex.o
 .text.HAL_FLASHEx_OBProgram
                0x00000000       0x9c /workspaces/hoverboard-firmware-hack-FOC/build/stm32f1xx_hal_flash_ex.o
 .text.HAL_FLASHEx_OBGetConfig
                0x00000000       0x1c /workspaces/hoverboard-firmware-hack-FOC/build/stm32f1xx_hal_flash_ex.o
 .text.HAL_FLASHEx_OBGetUserData
                0x00000000       0x24 /workspaces/hoverboard-firmware-hack-FOC/build/stm32f1xx_hal_flash_ex.o
 .text.HAL_FLASHEx_Erase_IT
                0x00000000       0x5c /workspaces/hoverboard-firmware-hack-FOC/build/stm32f1xx_hal_flash_ex.o
 .text          0x00000000        0x0 /workspaces/hoverboard-firmware-hack-FOC/build/stm32f1xx_hal_gpio.o
 .data          0x00000000        0x0 /workspaces/hoverboard-firmware-hack-FOC/build/stm32f1xx_hal_gpio.o
 .bss           0x00000000        0x0 /workspaces/hoverboard-firmware-hack-FOC/build/stm32f1xx_hal_gpio.o
 .text.HAL_GPIO_DeInit
                0x00000000      0x110 /workspaces/hoverboard-firmware-hack-FOC/build/stm32f1xx_hal_gpio.o
 .text.HAL_GPIO_LockPin
                0x00000000       0x2e /workspaces/hoverboard-firmware-hack-FOC/build/stm32f1xx_hal_gpio.o
 .text.HAL_GPIO_EXTI_Callback
                0x00000000        0x2 /workspaces/hoverboard-firmware-hack-FOC/build/stm32f1xx_hal_gpio.o
 .text.HAL_GPIO_EXTI_IRQHandler
                0x00000000       0x1c /workspaces/hoverboard-firmware-hack-FOC/build/stm32f1xx_hal_gpio.o
 .text          0x00000000        0x0 /workspaces/hoverboard-firmware-hack-FOC/build/stm32f1xx_hal_rcc_ex.o
 .data          0x00000000        0x0 /workspaces/hoverboard-firmware-hack-FOC/build/stm32f1xx_hal_rcc_ex.o
 .bss           0x00000000        0x0 /workspaces/hoverboard-firmware-hack-FOC/build/stm32f1xx_hal_rcc_ex.o
 .text.HAL_RCCEx_GetPeriphCLKConfig
                0x00000000       0x3c /workspaces/hoverboard-firmware-hack-FOC/build/stm32f1xx_hal_rcc_ex.o
 .rodata.HAL_RCCEx_GetPeriphCLKFreq.str1.4
                0x00000000       0x11 /workspaces/hoverboard-firmware-hack-FOC/build/stm32f1xx_hal_rcc_ex.o
 .text.HAL_RCCEx_GetPeriphCLKFreq
                0x00000000      0x118 /workspaces/hoverboard-firmware-hack-FOC/build/stm32f1xx_hal_rcc_ex.o
 .text          0x00000000        0x0 /workspaces/hoverboard-firmware-hack-FOC/build/stm32f1xx_hal.o
 .data          0x00000000        0x0 /workspaces/hoverboard-firmware-hack-FOC/build/stm32f1xx_hal.o
 .bss           0x00000000        0x0 /workspaces/hoverboard-firmware-hack-FOC/build/stm32f1xx_hal.o
 .text.HAL_MspDeInit
                0x00000000        0x2 /workspaces/hoverboard-firmware-hack-FOC/build/stm32f1xx_hal.o
 .text.HAL_DeInit
                0x00000000       0x20 /workspaces/hoverboard-firmware-hack-FOC/build/stm32f1xx_hal.o
 .text.HAL_SuspendTick
                0x00000000        0xe /workspaces/hoverboard-firmware-hack-FOC/build/stm32f1xx_hal.o
 .text.HAL_ResumeTick
                0x00000000        0xe /workspaces/hoverboard-firmware-hack-FOC/build/stm32f1xx_hal.o
 .text.HAL_GetHalVersion
                0x00000000        0x8 /workspaces/hoverboard-firmware-hack-FOC/build/stm32f1xx_hal.o
 .text.HAL_GetREVID
                0x00000000        0xc /workspaces/hoverboard-firmware-hack-FOC/build/stm32f1xx_hal.o
 .text.HAL_GetDEVID
                0x00000000       0x10 /workspaces/hoverboard-firmware-hack-FOC/build/stm32f1xx_hal.o
 .text.HAL_DBGMCU_EnableDBGSleepMode
                0x00000000       0x10 /workspaces/hoverboard-firmware-hack-FOC/build/stm32f1xx_hal.o
 .text.HAL_DBGMCU_DisableDBGSleepMode
                0x00000000       0x10 /workspaces/hoverboard-firmware-hack-FOC/build/stm32f1xx_hal.o
 .text.HAL_DBGMCU_EnableDBGStopMode
                0x00000000       0x10 /workspaces/hoverboard-firmware-hack-FOC/build/stm32f1xx_hal.o
 .text.HAL_DBGMCU_DisableDBGStopMode
                0x00000000       0x10 /workspaces/hoverboard-firmware-hack-FOC/build/stm32f1xx_hal.o
 .text.HAL_DBGMCU_EnableDBGStandbyMode
                0x00000000       0x10 /workspaces/hoverboard-firmware-hack-FOC/build/stm32f1xx_hal.o
 .text.HAL_DBGMCU_DisableDBGStandbyMode
                0x00000000       0x10 /workspaces/hoverboard-firmware-hack-FOC/build/stm32f1xx_hal.o
 .text.HAL_GetUID
                0x00000000       0x1c /workspaces/hoverboard-firmware-hack-FOC/build/stm32f1xx_hal.o
 .text          0x00000000        0x0 /workspaces/hoverboard-firmware-hack-FOC/build/stm32f1xx_hal_adc.o
 .data          0x00000000        0x0 /workspaces/hoverboard-firmware-hack-FOC/build/stm32f1xx_hal_adc.o
 .bss           0x00000000        0x0 /workspaces/hoverboard-firmware-hack-FOC/build/stm32f1xx_hal_adc.o
 .text.HAL_ADC_MspDeInit
                0x00000000        0x2 /workspaces/hoverboard-firmware-hack-FOC/build/stm32f1xx_hal_adc.o
 .text.HAL_ADC_PollForConversion
                0x00000000      0x170 /workspaces/hoverboard-firmware-hack-FOC/build/stm32f1xx_hal_adc.o
 .text.HAL_ADC_PollForEvent
                0x00000000       0x54 /workspaces/hoverboard-firmware-hack-FOC/build/stm32f1xx_hal_adc.o
 .text.HAL_ADC_GetValue
                0x00000000        0x6 /workspaces/hoverboard-firmware-hack-FOC/build/stm32f1xx_hal_adc.o
 .text.HAL_ADC_ConvCpltCallback
                0x00000000        0x2 /workspaces/hoverboard-firmware-hack-FOC/build/stm32f1xx_hal_adc.o
 .text.ADC_DMAConvCplt
                0x00000000       0x52 /workspaces/hoverboard-firmware-hack-FOC/build/stm32f1xx_hal_adc.o
 .text.HAL_ADC_ConvHalfCpltCallback
                0x00000000        0x2 /workspaces/hoverboard-firmware-hack-FOC/build/stm32f1xx_hal_adc.o
 .text.ADC_DMAHalfConvCplt
                0x00000000        0xa /workspaces/hoverboard-firmware-hack-FOC/build/stm32f1xx_hal_adc.o
 .text.HAL_ADC_LevelOutOfWindowCallback
                0x00000000        0x2 /workspaces/hoverboard-firmware-hack-FOC/build/stm32f1xx_hal_adc.o
 .text.HAL_ADC_IRQHandler
                0x00000000      0x10c /workspaces/hoverboard-firmware-hack-FOC/build/stm32f1xx_hal_adc.o
 .text.HAL_ADC_ErrorCallback
                0x00000000        0x2 /workspaces/hoverboard-firmware-hack-FOC/build/stm32f1xx_hal_adc.o
 .text.ADC_DMAError
                0x00000000       0x1a /workspaces/hoverboard-firmware-hack-FOC/build/stm32f1xx_hal_adc.o
 .text.HAL_ADC_AnalogWDGConfig
                0x00000000       0x60 /workspaces/hoverboard-firmware-hack-FOC/build/stm32f1xx_hal_adc.o
 .text.HAL_ADC_GetState
                0x00000000        0x4 /workspaces/hoverboard-firmware-hack-FOC/build/stm32f1xx_hal_adc.o
 .text.HAL_ADC_GetError
                0x00000000        0x4 /workspaces/hoverboard-firmware-hack-FOC/build/stm32f1xx_hal_adc.o
 .text.HAL_ADC_Start_IT
                0x00000000       0xf0 /workspaces/hoverboard-firmware-hack-FOC/build/stm32f1xx_hal_adc.o
 .text.HAL_ADC_Start_DMA
                0x00000000      0x130 /workspaces/hoverboard-firmware-hack-FOC/build/stm32f1xx_hal_adc.o
 .text.HAL_ADC_DeInit
                0x00000000       0xe4 /workspaces/hoverboard-firmware-hack-FOC/build/stm32f1xx_hal_adc.o
 .text.HAL_ADC_Stop
                0x00000000       0x34 /workspaces/hoverboard-firmware-hack-FOC/build/stm32f1xx_hal_adc.o
 .text.HAL_ADC_Stop_IT
                0x00000000       0x3e /workspaces/hoverboard-firmware-hack-FOC/build/stm32f1xx_hal_adc.o
 .text.HAL_ADC_Stop_DMA
                0x00000000       0x52 /workspaces/hoverboard-firmware-hack-FOC/build/stm32f1xx_hal_adc.o
 .text          0x00000000        0x0 /workspaces/hoverboard-firmware-hack-FOC/build/stm32f1xx_hal_uart.o
 .data          0x00000000        0x0 /workspaces/hoverboard-firmware-hack-FOC/build/stm32f1xx_hal_uart.o
 .bss           0x00000000        0x0 /workspaces/hoverboard-firmware-hack-FOC/build/stm32f1xx_hal_uart.o
 .text.HAL_UART_MspInit
                0x00000000        0x2 /workspaces/hoverboard-firmware-hack-FOC/build/stm32f1xx_hal_uart.o
 .text.HAL_HalfDuplex_Init
                0x00000000       0x6a /workspaces/hoverboard-firmware-hack-FOC/build/stm32f1xx_hal_uart.o
 .text.HAL_LIN_Init
                0x00000000       0x78 /workspaces/hoverboard-firmware-hack-FOC/build/stm32f1xx_hal_uart.o
 .text.HAL_MultiProcessor_Init
                0x00000000       0x7e /workspaces/hoverboard-firmware-hack-FOC/build/stm32f1xx_hal_uart.o
 .text.HAL_UART_MspDeInit
                0x00000000        0x2 /workspaces/hoverboard-firmware-hack-FOC/build/stm32f1xx_hal_uart.o
 .text.HAL_UART_DeInit
                0x00000000       0x26 /workspaces/hoverboard-firmware-hack-FOC/build/stm32f1xx_hal_uart.o
 .text.HAL_UART_Receive
                0x00000000       0xe6 /workspaces/hoverboard-firmware-hack-FOC/build/stm32f1xx_hal_uart.o
 .text.HAL_UART_Transmit_IT
                0x00000000       0x4e /workspaces/hoverboard-firmware-hack-FOC/build/stm32f1xx_hal_uart.o
 .text.HAL_UART_Receive_IT
                0x00000000       0x62 /workspaces/hoverboard-firmware-hack-FOC/build/stm32f1xx_hal_uart.o
 .text.HAL_UART_DMAPause
                0x00000000       0x70 /workspaces/hoverboard-firmware-hack-FOC/build/stm32f1xx_hal_uart.o
 .text.HAL_UART_DMAResume
                0x00000000       0x74 /workspaces/hoverboard-firmware-hack-FOC/build/stm32f1xx_hal_uart.o
 .text.HAL_UART_DMAStop
                0x00000000       0x64 /workspaces/hoverboard-firmware-hack-FOC/build/stm32f1xx_hal_uart.o
 .text.HAL_UART_Abort
                0x00000000       0x6c /workspaces/hoverboard-firmware-hack-FOC/build/stm32f1xx_hal_uart.o
 .text.HAL_UART_AbortTransmit
                0x00000000       0x3a /workspaces/hoverboard-firmware-hack-FOC/build/stm32f1xx_hal_uart.o
 .text.HAL_UART_AbortReceive
                0x00000000       0x44 /workspaces/hoverboard-firmware-hack-FOC/build/stm32f1xx_hal_uart.o
 .text.HAL_UART_AbortCpltCallback
                0x00000000        0x2 /workspaces/hoverboard-firmware-hack-FOC/build/stm32f1xx_hal_uart.o
 .text.HAL_UART_Abort_IT
                0x00000000       0xc4 /workspaces/hoverboard-firmware-hack-FOC/build/stm32f1xx_hal_uart.o
 .text.UART_DMARxAbortCallback
                0x00000000       0x2a /workspaces/hoverboard-firmware-hack-FOC/build/stm32f1xx_hal_uart.o
 .text.UART_DMATxAbortCallback
                0x00000000       0x2a /workspaces/hoverboard-firmware-hack-FOC/build/stm32f1xx_hal_uart.o
 .text.HAL_UART_AbortTransmitCpltCallback
                0x00000000        0x2 /workspaces/hoverboard-firmware-hack-FOC/build/stm32f1xx_hal_uart.o
 .text.HAL_UART_AbortTransmit_IT
                0x00000000       0x60 /workspaces/hoverboard-firmware-hack-FOC/build/stm32f1xx_hal_uart.o
 .text.UART_DMATxOnlyAbortCallback
                0x00000000       0x14 /workspaces/hoverboard-firmware-hack-FOC/build/stm32f1xx_hal_uart.o
 .text.HAL_UART_AbortReceiveCpltCallback
                0x00000000        0x2 /workspaces/hoverboard-firmware-hack-FOC/build/stm32f1xx_hal_uart.o
 .text.HAL_UART_AbortReceive_IT
                0x00000000       0x68 /workspaces/hoverboard-firmware-hack-FOC/build/stm32f1xx_hal_uart.o
 .text.UART_DMARxOnlyAbortCallback
                0x00000000       0x14 /workspaces/hoverboard-firmware-hack-FOC/build/stm32f1xx_hal_uart.o
 .text.HAL_LIN_SendBreak
                0x00000000       0x32 /workspaces/hoverboard-firmware-hack-FOC/build/stm32f1xx_hal_uart.o
 .text.HAL_MultiProcessor_EnterMuteMode
                0x00000000       0x32 /workspaces/hoverboard-firmware-hack-FOC/build/stm32f1xx_hal_uart.o
 .text.HAL_MultiProcessor_ExitMuteMode
                0x00000000       0x32 /workspaces/hoverboard-firmware-hack-FOC/build/stm32f1xx_hal_uart.o
 .text.HAL_HalfDuplex_EnableTransmitter
                0x00000000       0x36 /workspaces/hoverboard-firmware-hack-FOC/build/stm32f1xx_hal_uart.o
 .text.HAL_HalfDuplex_EnableReceiver
                0x00000000       0x36 /workspaces/hoverboard-firmware-hack-FOC/build/stm32f1xx_hal_uart.o
 .text.HAL_UART_GetState
                0x00000000        0xc /workspaces/hoverboard-firmware-hack-FOC/build/stm32f1xx_hal_uart.o
 .text.HAL_UART_GetError
                0x00000000        0x4 /workspaces/hoverboard-firmware-hack-FOC/build/stm32f1xx_hal_uart.o
 .text          0x00000000        0x0 /workspaces/hoverboard-firmware-hack-FOC/build/stm32f1xx_hal_i2c.o
 .data          0x00000000        0x0 /workspaces/hoverboard-firmware-hack-FOC/build/stm32f1xx_hal_i2c.o
 .bss           0x00000000        0x0 /workspaces/hoverboard-firmware-hack-FOC/build/stm32f1xx_hal_i2c.o
 .text.I2C_Master_SB
                0x00000000       0x88 /workspaces/hoverboard-firmware-hack-FOC/build/stm32f1xx_hal_i2c.o
 .text.I2C_Master_ADD10
                0x00000000        0xc /workspaces/hoverboard-firmware-hack-FOC/build/stm32f1xx_hal_i2c.o
 .text.I2C_Master_ADDR
                0x00000000      0x1da /workspaces/hoverboard-firmware-hack-FOC/build/stm32f1xx_hal_i2c.o
 .text.I2C_SlaveTransmit_BTF
                0x00000000       0x20 /workspaces/hoverboard-firmware-hack-FOC/build/stm32f1xx_hal_i2c.o
 .text.I2C_SlaveReceive_BTF
                0x00000000       0x20 /workspaces/hoverboard-firmware-hack-FOC/build/stm32f1xx_hal_i2c.o
 .text.I2C_IsAcknowledgeFailed
                0x00000000       0x2a /workspaces/hoverboard-firmware-hack-FOC/build/stm32f1xx_hal_i2c.o
 .text.I2C_WaitOnFlagUntilTimeout
                0x00000000       0x74 /workspaces/hoverboard-firmware-hack-FOC/build/stm32f1xx_hal_i2c.o
 .text.I2C_WaitOnMasterAddressFlagUntilTimeout
                0x00000000       0x96 /workspaces/hoverboard-firmware-hack-FOC/build/stm32f1xx_hal_i2c.o
 .text.I2C_MasterRequestWrite
                0x00000000       0xb8 /workspaces/hoverboard-firmware-hack-FOC/build/stm32f1xx_hal_i2c.o
 .text.I2C_MasterRequestRead
                0x00000000      0x11c /workspaces/hoverboard-firmware-hack-FOC/build/stm32f1xx_hal_i2c.o
 .text.I2C_WaitOnTXEFlagUntilTimeout
                0x00000000       0x4e /workspaces/hoverboard-firmware-hack-FOC/build/stm32f1xx_hal_i2c.o
 .text.I2C_RequestMemoryWrite
                0x00000000       0xd8 /workspaces/hoverboard-firmware-hack-FOC/build/stm32f1xx_hal_i2c.o
 .text.I2C_RequestMemoryRead
                0x00000000      0x148 /workspaces/hoverboard-firmware-hack-FOC/build/stm32f1xx_hal_i2c.o
 .text.I2C_WaitOnBTFFlagUntilTimeout
                0x00000000       0x4e /workspaces/hoverboard-firmware-hack-FOC/build/stm32f1xx_hal_i2c.o
 .text.I2C_WaitOnRXNEFlagUntilTimeout
                0x00000000       0x5c /workspaces/hoverboard-firmware-hack-FOC/build/stm32f1xx_hal_i2c.o
 .text.I2C_WaitOnSTOPFlagUntilTimeout
                0x00000000       0x48 /workspaces/hoverboard-firmware-hack-FOC/build/stm32f1xx_hal_i2c.o
 .text.HAL_I2C_MspInit
                0x00000000        0x2 /workspaces/hoverboard-firmware-hack-FOC/build/stm32f1xx_hal_i2c.o
 .text.HAL_I2C_Init
                0x00000000      0x11c /workspaces/hoverboard-firmware-hack-FOC/build/stm32f1xx_hal_i2c.o
 .text.HAL_I2C_MspDeInit
                0x00000000        0x2 /workspaces/hoverboard-firmware-hack-FOC/build/stm32f1xx_hal_i2c.o
 .text.HAL_I2C_DeInit
                0x00000000       0x32 /workspaces/hoverboard-firmware-hack-FOC/build/stm32f1xx_hal_i2c.o
 .text.HAL_I2C_Master_Transmit
                0x00000000      0x18c /workspaces/hoverboard-firmware-hack-FOC/build/stm32f1xx_hal_i2c.o
 .text.HAL_I2C_Master_Receive
                0x00000000      0x30c /workspaces/hoverboard-firmware-hack-FOC/build/stm32f1xx_hal_i2c.o
 .text.HAL_I2C_Slave_Transmit
                0x00000000      0x1ac /workspaces/hoverboard-firmware-hack-FOC/build/stm32f1xx_hal_i2c.o
 .text.HAL_I2C_Slave_Receive
                0x00000000      0x190 /workspaces/hoverboard-firmware-hack-FOC/build/stm32f1xx_hal_i2c.o
 .text.HAL_I2C_Master_Transmit_IT
                0x00000000       0xcc /workspaces/hoverboard-firmware-hack-FOC/build/stm32f1xx_hal_i2c.o
 .text.HAL_I2C_Master_Receive_IT
                0x00000000       0xd4 /workspaces/hoverboard-firmware-hack-FOC/build/stm32f1xx_hal_i2c.o
 .text.HAL_I2C_Master_Sequential_Transmit_IT
                0x00000000       0xf8 /workspaces/hoverboard-firmware-hack-FOC/build/stm32f1xx_hal_i2c.o
 .text.HAL_I2C_Master_Sequential_Receive_IT
                0x00000000      0x10c /workspaces/hoverboard-firmware-hack-FOC/build/stm32f1xx_hal_i2c.o
 .text.HAL_I2C_Slave_Transmit_IT
                0x00000000       0xd8 /workspaces/hoverboard-firmware-hack-FOC/build/stm32f1xx_hal_i2c.o
 .text.HAL_I2C_Slave_Receive_IT
                0x00000000       0xd4 /workspaces/hoverboard-firmware-hack-FOC/build/stm32f1xx_hal_i2c.o
 .text.HAL_I2C_Slave_Sequential_Transmit_IT
                0x00000000       0x90 /workspaces/hoverboard-firmware-hack-FOC/build/stm32f1xx_hal_i2c.o
 .text.HAL_I2C_Slave_Sequential_Receive_IT
                0x00000000       0x90 /workspaces/hoverboard-firmware-hack-FOC/build/stm32f1xx_hal_i2c.o
 .text.HAL_I2C_EnableListen_IT
                0x00000000       0x3e /workspaces/hoverboard-firmware-hack-FOC/build/stm32f1xx_hal_i2c.o
 .text.HAL_I2C_DisableListen_IT
                0x00000000       0x42 /workspaces/hoverboard-firmware-hack-FOC/build/stm32f1xx_hal_i2c.o
 .text.HAL_I2C_Master_Transmit_DMA
                0x00000000      0x138 /workspaces/hoverboard-firmware-hack-FOC/build/stm32f1xx_hal_i2c.o
 .text.HAL_I2C_Master_Receive_DMA
                0x00000000      0x138 /workspaces/hoverboard-firmware-hack-FOC/build/stm32f1xx_hal_i2c.o
 .text.HAL_I2C_Slave_Transmit_DMA
                0x00000000      0x10c /workspaces/hoverboard-firmware-hack-FOC/build/stm32f1xx_hal_i2c.o
 .text.HAL_I2C_Slave_Receive_DMA
                0x00000000      0x10c /workspaces/hoverboard-firmware-hack-FOC/build/stm32f1xx_hal_i2c.o
 .text.HAL_I2C_Mem_Write
                0x00000000      0x17c /workspaces/hoverboard-firmware-hack-FOC/build/stm32f1xx_hal_i2c.o
 .text.HAL_I2C_Mem_Read
                0x00000000      0x314 /workspaces/hoverboard-firmware-hack-FOC/build/stm32f1xx_hal_i2c.o
 .text.HAL_I2C_Mem_Write_IT
                0x00000000       0xd8 /workspaces/hoverboard-firmware-hack-FOC/build/stm32f1xx_hal_i2c.o
 .text.HAL_I2C_Mem_Read_IT
                0x00000000       0xe8 /workspaces/hoverboard-firmware-hack-FOC/build/stm32f1xx_hal_i2c.o
 .text.HAL_I2C_Mem_Write_DMA
                0x00000000      0x154 /workspaces/hoverboard-firmware-hack-FOC/build/stm32f1xx_hal_i2c.o
 .text.HAL_I2C_Mem_Read_DMA
                0x00000000      0x1c0 /workspaces/hoverboard-firmware-hack-FOC/build/stm32f1xx_hal_i2c.o
 .text.HAL_I2C_IsDeviceReady
                0x00000000      0x188 /workspaces/hoverboard-firmware-hack-FOC/build/stm32f1xx_hal_i2c.o
 .text.HAL_I2C_MasterTxCpltCallback
                0x00000000        0x2 /workspaces/hoverboard-firmware-hack-FOC/build/stm32f1xx_hal_i2c.o
 .text.HAL_I2C_MasterRxCpltCallback
                0x00000000        0x2 /workspaces/hoverboard-firmware-hack-FOC/build/stm32f1xx_hal_i2c.o
 .text.HAL_I2C_SlaveTxCpltCallback
                0x00000000        0x2 /workspaces/hoverboard-firmware-hack-FOC/build/stm32f1xx_hal_i2c.o
 .text.I2C_SlaveTransmit_TXE
                0x00000000       0x4c /workspaces/hoverboard-firmware-hack-FOC/build/stm32f1xx_hal_i2c.o
 .text.HAL_I2C_SlaveRxCpltCallback
                0x00000000        0x2 /workspaces/hoverboard-firmware-hack-FOC/build/stm32f1xx_hal_i2c.o
 .text.I2C_SlaveReceive_RXNE
                0x00000000       0x50 /workspaces/hoverboard-firmware-hack-FOC/build/stm32f1xx_hal_i2c.o
 .text.HAL_I2C_AddrCallback
                0x00000000        0x2 /workspaces/hoverboard-firmware-hack-FOC/build/stm32f1xx_hal_i2c.o
 .text.I2C_Slave_ADDR
                0x00000000       0x28 /workspaces/hoverboard-firmware-hack-FOC/build/stm32f1xx_hal_i2c.o
 .text.HAL_I2C_ListenCpltCallback
                0x00000000        0x2 /workspaces/hoverboard-firmware-hack-FOC/build/stm32f1xx_hal_i2c.o
 .text.I2C_Slave_AF
                0x00000000       0x94 /workspaces/hoverboard-firmware-hack-FOC/build/stm32f1xx_hal_i2c.o
 .text.HAL_I2C_MemTxCpltCallback
                0x00000000        0x2 /workspaces/hoverboard-firmware-hack-FOC/build/stm32f1xx_hal_i2c.o
 .text.I2C_MasterTransmit_TXE
                0x00000000      0x14e /workspaces/hoverboard-firmware-hack-FOC/build/stm32f1xx_hal_i2c.o
 .text.I2C_MasterTransmit_BTF
                0x00000000       0x9e /workspaces/hoverboard-firmware-hack-FOC/build/stm32f1xx_hal_i2c.o
 .text.HAL_I2C_MemRxCpltCallback
                0x00000000        0x2 /workspaces/hoverboard-firmware-hack-FOC/build/stm32f1xx_hal_i2c.o
 .text.I2C_MasterReceive_RXNE
                0x00000000       0xd0 /workspaces/hoverboard-firmware-hack-FOC/build/stm32f1xx_hal_i2c.o
 .text.I2C_MasterReceive_BTF
                0x00000000       0xfe /workspaces/hoverboard-firmware-hack-FOC/build/stm32f1xx_hal_i2c.o
 .text.HAL_I2C_ErrorCallback
                0x00000000        0x2 /workspaces/hoverboard-firmware-hack-FOC/build/stm32f1xx_hal_i2c.o
 .text.I2C_DMAError
                0x00000000       0x2a /workspaces/hoverboard-firmware-hack-FOC/build/stm32f1xx_hal_i2c.o
 .text.I2C_DMAXferCplt
                0x00000000       0x94 /workspaces/hoverboard-firmware-hack-FOC/build/stm32f1xx_hal_i2c.o
 .text.HAL_I2C_AbortCpltCallback
                0x00000000        0x2 /workspaces/hoverboard-firmware-hack-FOC/build/stm32f1xx_hal_i2c.o
 .text.I2C_ITError
                0x00000000      0x148 /workspaces/hoverboard-firmware-hack-FOC/build/stm32f1xx_hal_i2c.o
 .text.HAL_I2C_Master_Abort_IT
                0x00000000       0x58 /workspaces/hoverboard-firmware-hack-FOC/build/stm32f1xx_hal_i2c.o
 .text.I2C_Slave_STOPF
                0x00000000      0x104 /workspaces/hoverboard-firmware-hack-FOC/build/stm32f1xx_hal_i2c.o
 .text.HAL_I2C_EV_IRQHandler
                0x00000000      0x168 /workspaces/hoverboard-firmware-hack-FOC/build/stm32f1xx_hal_i2c.o
 .text.HAL_I2C_ER_IRQHandler
                0x00000000       0xdc /workspaces/hoverboard-firmware-hack-FOC/build/stm32f1xx_hal_i2c.o
 .text.I2C_DMAAbort
                0x00000000       0x5e /workspaces/hoverboard-firmware-hack-FOC/build/stm32f1xx_hal_i2c.o
 .text.HAL_I2C_GetState
                0x00000000        0x6 /workspaces/hoverboard-firmware-hack-FOC/build/stm32f1xx_hal_i2c.o
 .text.HAL_I2C_GetMode
                0x00000000        0x6 /workspaces/hoverboard-firmware-hack-FOC/build/stm32f1xx_hal_i2c.o
 .text.HAL_I2C_GetError
                0x00000000        0x4 /workspaces/hoverboard-firmware-hack-FOC/build/stm32f1xx_hal_i2c.o
 .debug_info    0x00000000     0x36df /workspaces/hoverboard-firmware-hack-FOC/build/stm32f1xx_hal_i2c.o
 .debug_abbrev  0x00000000      0x2df /workspaces/hoverboard-firmware-hack-FOC/build/stm32f1xx_hal_i2c.o
 .debug_loc     0x00000000     0x490e /workspaces/hoverboard-firmware-hack-FOC/build/stm32f1xx_hal_i2c.o
 .debug_aranges
                0x00000000      0x268 /workspaces/hoverboard-firmware-hack-FOC/build/stm32f1xx_hal_i2c.o
 .debug_ranges  0x00000000      0x258 /workspaces/hoverboard-firmware-hack-FOC/build/stm32f1xx_hal_i2c.o
 .debug_line    0x00000000     0x47f1 /workspaces/hoverboard-firmware-hack-FOC/build/stm32f1xx_hal_i2c.o
 .debug_str     0x00000000      0xe7e /workspaces/hoverboard-firmware-hack-FOC/build/stm32f1xx_hal_i2c.o
 .comment       0x00000000       0x27 /workspaces/hoverboard-firmware-hack-FOC/build/stm32f1xx_hal_i2c.o
 .debug_frame   0x00000000      0x880 /workspaces/hoverboard-firmware-hack-FOC/build/stm32f1xx_hal_i2c.o
 .ARM.attributes
                0x00000000       0x2d /workspaces/hoverboard-firmware-hack-FOC/build/stm32f1xx_hal_i2c.o
 .text          0x00000000        0x0 /workspaces/hoverboard-firmware-hack-FOC/build/stm32f1xx_hal_dma.o
 .data          0x00000000        0x0 /workspaces/hoverboard-firmware-hack-FOC/build/stm32f1xx_hal_dma.o
 .bss           0x00000000        0x0 /workspaces/hoverboard-firmware-hack-FOC/build/stm32f1xx_hal_dma.o
 .text.HAL_DMA_DeInit
                0x00000000       0x88 /workspaces/hoverboard-firmware-hack-FOC/build/stm32f1xx_hal_dma.o
 .text.HAL_DMA_Start
                0x00000000       0x50 /workspaces/hoverboard-firmware-hack-FOC/build/stm32f1xx_hal_dma.o
 .text.HAL_DMA_Abort
                0x00000000       0x2e /workspaces/hoverboard-firmware-hack-FOC/build/stm32f1xx_hal_dma.o
 .text.HAL_DMA_PollForTransfer
                0x00000000      0x548 /workspaces/hoverboard-firmware-hack-FOC/build/stm32f1xx_hal_dma.o
 .text.HAL_DMA_RegisterCallback
                0x00000000       0x4a /workspaces/hoverboard-firmware-hack-FOC/build/stm32f1xx_hal_dma.o
 .text.HAL_DMA_UnRegisterCallback
                0x00000000       0x5a /workspaces/hoverboard-firmware-hack-FOC/build/stm32f1xx_hal_dma.o
 .text.HAL_DMA_GetState
                0x00000000        0x6 /workspaces/hoverboard-firmware-hack-FOC/build/stm32f1xx_hal_dma.o
 .text.HAL_DMA_GetError
                0x00000000        0x4 /workspaces/hoverboard-firmware-hack-FOC/build/stm32f1xx_hal_dma.o
 .text          0x00000000        0x0 /workspaces/hoverboard-firmware-hack-FOC/build/system_stm32f1xx.o
 .data          0x00000000        0x0 /workspaces/hoverboard-firmware-hack-FOC/build/system_stm32f1xx.o
 .bss           0x00000000        0x0 /workspaces/hoverboard-firmware-hack-FOC/build/system_stm32f1xx.o
 .text.SystemCoreClockUpdate
                0x00000000       0x94 /workspaces/hoverboard-firmware-hack-FOC/build/system_stm32f1xx.o
 .text          0x00000000        0x0 /workspaces/hoverboard-firmware-hack-FOC/build/setup.o
 .data          0x00000000        0x0 /workspaces/hoverboard-firmware-hack-FOC/build/setup.o
 .bss           0x00000000        0x0 /workspaces/hoverboard-firmware-hack-FOC/build/setup.o
 .text.UART3_Init_a
                0x00000000       0x54 /workspaces/hoverboard-firmware-hack-FOC/build/setup.o
 .text.UART3_Init_old
                0x00000000       0x6c /workspaces/hoverboard-firmware-hack-FOC/build/setup.o
 .text.HAL_UART_MspDeInit
                0x00000000       0x78 /workspaces/hoverboard-firmware-hack-FOC/build/setup.o
 .text.I2C_Init
                0x00000000       0x8c /workspaces/hoverboard-firmware-hack-FOC/build/setup.o
 .bss.hdma_i2c2_tx
                0x00000000       0x44 /workspaces/hoverboard-firmware-hack-FOC/build/setup.o
 .bss.hdma_i2c2_rx
                0x00000000       0x44 /workspaces/hoverboard-firmware-hack-FOC/build/setup.o
 .bss.huart2    0x00000000       0x40 /workspaces/hoverboard-firmware-hack-FOC/build/setup.o
 .bss.hi2c2     0x00000000       0x54 /workspaces/hoverboard-firmware-hack-FOC/build/setup.o
 .text          0x00000000        0x0 /workspaces/hoverboard-firmware-hack-FOC/build/control.o
 .data          0x00000000        0x0 /workspaces/hoverboard-firmware-hack-FOC/build/control.o
 .bss           0x00000000        0x0 /workspaces/hoverboard-firmware-hack-FOC/build/control.o
 .text.Nunchuk_tx
                0x00000000       0x28 /workspaces/hoverboard-firmware-hack-FOC/build/control.o
 .text.Nunchuk_rx
                0x00000000       0x28 /workspaces/hoverboard-firmware-hack-FOC/build/control.o
 .text.Nunchuk_Init
                0x00000000       0x40 /workspaces/hoverboard-firmware-hack-FOC/build/control.o
 .text.Nunchuk_Connect
                0x00000000       0x20 /workspaces/hoverboard-firmware-hack-FOC/build/control.o
 .text.Nunchuk_Read
                0x00000000      0x104 /workspaces/hoverboard-firmware-hack-FOC/build/control.o
 .bss.delay_counter.0
                0x00000000        0x1 /workspaces/hoverboard-firmware-hack-FOC/build/control.o
 .bss.nunchukState
                0x00000000        0x1 /workspaces/hoverboard-firmware-hack-FOC/build/control.o
 .bss.i2cBuffer
                0x00000000        0x2 /workspaces/hoverboard-firmware-hack-FOC/build/control.o
 .bss.nunchuk_data
                0x00000000        0x6 /workspaces/hoverboard-firmware-hack-FOC/build/control.o
 .data.timeoutCntGen
                0x00000000        0x4 /workspaces/hoverboard-firmware-hack-FOC/build/control.o
 .bss.pwm_count
                0x00000000        0x1 /workspaces/hoverboard-firmware-hack-FOC/build/control.o
 .bss.ppm_count
                0x00000000        0x1 /workspaces/hoverboard-firmware-hack-FOC/build/control.o
 .bss.TimHandle2
                0x00000000       0x40 /workspaces/hoverboard-firmware-hack-FOC/build/control.o
 .bss.TimHandle
                0x00000000       0x40 /workspaces/hoverboard-firmware-hack-FOC/build/control.o
 .text          0x00000000        0x0 /workspaces/hoverboard-firmware-hack-FOC/build/comms.o
 .data          0x00000000        0x0 /workspaces/hoverboard-firmware-hack-FOC/build/comms.o
 .bss           0x00000000        0x0 /workspaces/hoverboard-firmware-hack-FOC/build/comms.o
 .debug_info    0x00000000       0x80 /workspaces/hoverboard-firmware-hack-FOC/build/comms.o
 .debug_abbrev  0x00000000       0x26 /workspaces/hoverboard-firmware-hack-FOC/build/comms.o
 .debug_aranges
                0x00000000       0x18 /workspaces/hoverboard-firmware-hack-FOC/build/comms.o
 .debug_line    0x00000000       0x2c /workspaces/hoverboard-firmware-hack-FOC/build/comms.o
 .debug_str     0x00000000      0x167 /workspaces/hoverboard-firmware-hack-FOC/build/comms.o
 .comment       0x00000000       0x27 /workspaces/hoverboard-firmware-hack-FOC/build/comms.o
 .ARM.attributes
                0x00000000       0x2d /workspaces/hoverboard-firmware-hack-FOC/build/comms.o
 .text          0x00000000        0x0 /workspaces/hoverboard-firmware-hack-FOC/build/util.o
 .data          0x00000000        0x0 /workspaces/hoverboard-firmware-hack-FOC/build/util.o
 .bss           0x00000000        0x0 /workspaces/hoverboard-firmware-hack-FOC/build/util.o
 .text.standstillHold
                0x00000000        0x2 /workspaces/hoverboard-firmware-hack-FOC/build/util.o
 .text.electricBrake
                0x00000000        0x2 /workspaces/hoverboard-firmware-hack-FOC/build/util.o
 .text.usart2_rx_check
                0x00000000        0x2 /workspaces/hoverboard-firmware-hack-FOC/build/util.o
 .text          0x00000000        0x0 /workspaces/hoverboard-firmware-hack-FOC/build/main.o
 .data          0x00000000        0x0 /workspaces/hoverboard-firmware-hack-FOC/build/main.o
 .bss           0x00000000        0x0 /workspaces/hoverboard-firmware-hack-FOC/build/main.o
 .bss.uart_buf  0x00000000       0xc8 /workspaces/hoverboard-firmware-hack-FOC/build/main.o
 .text          0x00000000        0x0 /workspaces/hoverboard-firmware-hack-FOC/build/bldc.o
 .data          0x00000000        0x0 /workspaces/hoverboard-firmware-hack-FOC/build/bldc.o
 .bss           0x00000000        0x0 /workspaces/hoverboard-firmware-hack-FOC/build/bldc.o
 .text          0x00000000        0x0 /workspaces/hoverboard-firmware-hack-FOC/build/eeprom.o
 .data          0x00000000        0x0 /workspaces/hoverboard-firmware-hack-FOC/build/eeprom.o
 .bss           0x00000000        0x0 /workspaces/hoverboard-firmware-hack-FOC/build/eeprom.o
 .text          0x00000000        0x0 /workspaces/hoverboard-firmware-hack-FOC/build/hd44780.o
 .data          0x00000000        0x0 /workspaces/hoverboard-firmware-hack-FOC/build/hd44780.o
 .bss           0x00000000        0x0 /workspaces/hoverboard-firmware-hack-FOC/build/hd44780.o
 .text.LCD_I2C_WriteOut
                0x00000000       0x28 /workspaces/hoverboard-firmware-hack-FOC/build/hd44780.o
 .text.LCD_StateWriteBit
                0x00000000       0x38 /workspaces/hoverboard-firmware-hack-FOC/build/hd44780.o
 .text.LCD_StateLEDControl
                0x00000000        0xe /workspaces/hoverboard-firmware-hack-FOC/build/hd44780.o
 .text.LCD_WriteToDataBus
                0x00000000       0xc8 /workspaces/hoverboard-firmware-hack-FOC/build/hd44780.o
 .text.LCD_GetBusyFlag
                0x00000000       0x56 /workspaces/hoverboard-firmware-hack-FOC/build/hd44780.o
 .text.LCD_WaitForBusyFlag
                0x00000000       0x12 /workspaces/hoverboard-firmware-hack-FOC/build/hd44780.o
 .text.LCD_WriteCMD
                0x00000000       0x68 /workspaces/hoverboard-firmware-hack-FOC/build/hd44780.o
 .text.LCD_WriteDATA
                0x00000000       0x5a /workspaces/hoverboard-firmware-hack-FOC/build/hd44780.o
 .text.LCD_SetLocation
                0x00000000       0x14 /workspaces/hoverboard-firmware-hack-FOC/build/hd44780.o
 .text.LCD_WriteString
                0x00000000       0x2e /workspaces/hoverboard-firmware-hack-FOC/build/hd44780.o
 .text.LCD_ClearDisplay
                0x00000000        0xa /workspaces/hoverboard-firmware-hack-FOC/build/hd44780.o
 .text.LCD_DisplayON
                0x00000000       0x1c /workspaces/hoverboard-firmware-hack-FOC/build/hd44780.o
 .text.LCD_DisplayOFF
                0x00000000       0x1c /workspaces/hoverboard-firmware-hack-FOC/build/hd44780.o
 .text.LCD_CursorON
                0x00000000       0x1e /workspaces/hoverboard-firmware-hack-FOC/build/hd44780.o
 .text.LCD_CursorOFF
                0x00000000       0x1c /workspaces/hoverboard-firmware-hack-FOC/build/hd44780.o
 .text.LCD_ShiftCursor
                0x00000000       0x2e /workspaces/hoverboard-firmware-hack-FOC/build/hd44780.o
 .text.LCD_ShiftDisplay
                0x00000000       0x2e /workspaces/hoverboard-firmware-hack-FOC/build/hd44780.o
 .text.LCD_WriteNumber
                0x00000000       0x4e /workspaces/hoverboard-firmware-hack-FOC/build/hd44780.o
 .rodata.LCD_WriteFloat.str1.4
                0x00000000        0x6 /workspaces/hoverboard-firmware-hack-FOC/build/hd44780.o
 .text.LCD_WriteFloat
                0x00000000       0xdc /workspaces/hoverboard-firmware-hack-FOC/build/hd44780.o
 .text.LCD_EntryModeSet
                0x00000000       0x12 /workspaces/hoverboard-firmware-hack-FOC/build/hd44780.o
 .text.LCD_Init
                0x00000000      0x134 /workspaces/hoverboard-firmware-hack-FOC/build/hd44780.o
 .text.LCD_CustomChar
                0x00000000       0x28 /workspaces/hoverboard-firmware-hack-FOC/build/hd44780.o
 .bss.LCDerrorFlag
                0x00000000        0x1 /workspaces/hoverboard-firmware-hack-FOC/build/hd44780.o
 .data.PCF8574_Type0Pins
                0x00000000       0x20 /workspaces/hoverboard-firmware-hack-FOC/build/hd44780.o
 .debug_info    0x00000000     0x1aaf /workspaces/hoverboard-firmware-hack-FOC/build/hd44780.o
 .debug_abbrev  0x00000000      0x2d1 /workspaces/hoverboard-firmware-hack-FOC/build/hd44780.o
 .debug_loc     0x00000000     0x12f4 /workspaces/hoverboard-firmware-hack-FOC/build/hd44780.o
 .debug_aranges
                0x00000000       0xc8 /workspaces/hoverboard-firmware-hack-FOC/build/hd44780.o
 .debug_ranges  0x00000000       0xf0 /workspaces/hoverboard-firmware-hack-FOC/build/hd44780.o
 .debug_line    0x00000000      0x828 /workspaces/hoverboard-firmware-hack-FOC/build/hd44780.o
 .debug_str     0x00000000      0xa5e /workspaces/hoverboard-firmware-hack-FOC/build/hd44780.o
 .comment       0x00000000       0x27 /workspaces/hoverboard-firmware-hack-FOC/build/hd44780.o
 .debug_frame   0x00000000      0x264 /workspaces/hoverboard-firmware-hack-FOC/build/hd44780.o
 .ARM.attributes
                0x00000000       0x2d /workspaces/hoverboard-firmware-hack-FOC/build/hd44780.o
 .text          0x00000000        0x0 /workspaces/hoverboard-firmware-hack-FOC/build/pcf8574.o
 .data          0x00000000        0x0 /workspaces/hoverboard-firmware-hack-FOC/build/pcf8574.o
 .bss           0x00000000        0x0 /workspaces/hoverboard-firmware-hack-FOC/build/pcf8574.o
 .text.PCF8574_Init
                0x00000000        0xc /workspaces/hoverboard-firmware-hack-FOC/build/pcf8574.o
 .text.PCF8574_DeInit
                0x00000000        0xc /workspaces/hoverboard-firmware-hack-FOC/build/pcf8574.o
 .text.PCF8574_Write
                0x00000000       0x2e /workspaces/hoverboard-firmware-hack-FOC/build/pcf8574.o
 .text.PCF8574_Read
                0x00000000       0x2a /workspaces/hoverboard-firmware-hack-FOC/build/pcf8574.o
 .debug_info    0x00000000      0x89a /workspaces/hoverboard-firmware-hack-FOC/build/pcf8574.o
 .debug_abbrev  0x00000000      0x190 /workspaces/hoverboard-firmware-hack-FOC/build/pcf8574.o
 .debug_loc     0x00000000      0x204 /workspaces/hoverboard-firmware-hack-FOC/build/pcf8574.o
 .debug_aranges
                0x00000000       0x38 /workspaces/hoverboard-firmware-hack-FOC/build/pcf8574.o
 .debug_ranges  0x00000000       0x28 /workspaces/hoverboard-firmware-hack-FOC/build/pcf8574.o
 .debug_line    0x00000000      0x1bf /workspaces/hoverboard-firmware-hack-FOC/build/pcf8574.o
 .debug_str     0x00000000      0x6ec /workspaces/hoverboard-firmware-hack-FOC/build/pcf8574.o
 .comment       0x00000000       0x27 /workspaces/hoverboard-firmware-hack-FOC/build/pcf8574.o
 .debug_frame   0x00000000       0x78 /workspaces/hoverboard-firmware-hack-FOC/build/pcf8574.o
 .ARM.attributes
                0x00000000       0x2d /workspaces/hoverboard-firmware-hack-FOC/build/pcf8574.o
 .text          0x00000000        0x0 /workspaces/hoverboard-firmware-hack-FOC/build/stm32f1xx_it.o
 .data          0x00000000        0x0 /workspaces/hoverboard-firmware-hack-FOC/build/stm32f1xx_it.o
 .bss           0x00000000        0x0 /workspaces/hoverboard-firmware-hack-FOC/build/stm32f1xx_it.o
 .text          0x00000000        0x0 /workspaces/hoverboard-firmware-hack-FOC/build/BLDC_controller_data.o
 .data          0x00000000        0x0 /workspaces/hoverboard-firmware-hack-FOC/build/BLDC_controller_data.o
 .bss           0x00000000        0x0 /workspaces/hoverboard-firmware-hack-FOC/build/BLDC_controller_data.o
 .text          0x00000000        0x0 /workspaces/hoverboard-firmware-hack-FOC/build/BLDC_controller.o
 .data          0x00000000        0x0 /workspaces/hoverboard-firmware-hack-FOC/build/BLDC_controller.o
 .bss           0x00000000        0x0 /workspaces/hoverboard-firmware-hack-FOC/build/BLDC_controller.o
 .text          0x00000000       0x14 /workspaces/hoverboard-firmware-hack-FOC/build/startup_stm32f103xe.o
 .data          0x00000000        0x0 /workspaces/hoverboard-firmware-hack-FOC/build/startup_stm32f103xe.o
 .bss           0x00000000        0x0 /workspaces/hoverboard-firmware-hack-FOC/build/startup_stm32f103xe.o
 .data          0x00000000        0x0 /usr/lib/gcc/arm-none-eabi/13.2.1/../../../arm-none-eabi/lib/thumb/v7-m/nofp/libc_nano.a(libc_a-init.o)
 .bss           0x00000000        0x0 /usr/lib/gcc/arm-none-eabi/13.2.1/../../../arm-none-eabi/lib/thumb/v7-m/nofp/libc_nano.a(libc_a-init.o)
 .data          0x00000000        0x0 /usr/lib/gcc/arm-none-eabi/13.2.1/../../../arm-none-eabi/lib/thumb/v7-m/nofp/libc_nano.a(libc_a-memset.o)
 .bss           0x00000000        0x0 /usr/lib/gcc/arm-none-eabi/13.2.1/../../../arm-none-eabi/lib/thumb/v7-m/nofp/libc_nano.a(libc_a-memset.o)
 .data          0x00000000        0x0 /usr/lib/gcc/arm-none-eabi/13.2.1/../../../arm-none-eabi/lib/thumb/v7-m/nofp/libc_nano.a(libc_a-memcpy.o)
 .bss           0x00000000        0x0 /usr/lib/gcc/arm-none-eabi/13.2.1/../../../arm-none-eabi/lib/thumb/v7-m/nofp/libc_nano.a(libc_a-memcpy.o)
 .ARM.extab     0x00000000        0x0 /usr/lib/gcc/arm-none-eabi/13.2.1/../../../arm-none-eabi/lib/thumb/v7-m/nofp/libc_nano.a(libc_a-memcpy.o)
 .eh_frame      0x00000000       0x2c /usr/lib/gcc/arm-none-eabi/13.2.1/../../../arm-none-eabi/lib/thumb/v7-m/nofp/libc_nano.a(libc_a-memcpy.o)
 .text          0x00000000       0x24 /usr/lib/gcc/arm-none-eabi/13.2.1/../../../arm-none-eabi/lib/thumb/v7-m/nofp/libc_nano.a(libc_a-exit.o)
 .data          0x00000000        0x0 /usr/lib/gcc/arm-none-eabi/13.2.1/../../../arm-none-eabi/lib/thumb/v7-m/nofp/libc_nano.a(libc_a-exit.o)
 .bss           0x00000000        0x0 /usr/lib/gcc/arm-none-eabi/13.2.1/../../../arm-none-eabi/lib/thumb/v7-m/nofp/libc_nano.a(libc_a-exit.o)
 .debug_info    0x00000000      0x11b /usr/lib/gcc/arm-none-eabi/13.2.1/../../../arm-none-eabi/lib/thumb/v7-m/nofp/libc_nano.a(libc_a-exit.o)
 .debug_abbrev  0x00000000       0xd8 /usr/lib/gcc/arm-none-eabi/13.2.1/../../../arm-none-eabi/lib/thumb/v7-m/nofp/libc_nano.a(libc_a-exit.o)
 .debug_loclists
                0x00000000       0x1b /usr/lib/gcc/arm-none-eabi/13.2.1/../../../arm-none-eabi/lib/thumb/v7-m/nofp/libc_nano.a(libc_a-exit.o)
 .debug_aranges
                0x00000000       0x20 /usr/lib/gcc/arm-none-eabi/13.2.1/../../../arm-none-eabi/lib/thumb/v7-m/nofp/libc_nano.a(libc_a-exit.o)
 .debug_line    0x00000000      0x12d /usr/lib/gcc/arm-none-eabi/13.2.1/../../../arm-none-eabi/lib/thumb/v7-m/nofp/libc_nano.a(libc_a-exit.o)
 .debug_str     0x00000000      0x1b7 /usr/lib/gcc/arm-none-eabi/13.2.1/../../../arm-none-eabi/lib/thumb/v7-m/nofp/libc_nano.a(libc_a-exit.o)
 .comment       0x00000000       0x27 /usr/lib/gcc/arm-none-eabi/13.2.1/../../../arm-none-eabi/lib/thumb/v7-m/nofp/libc_nano.a(libc_a-exit.o)
 .debug_frame   0x00000000       0x28 /usr/lib/gcc/arm-none-eabi/13.2.1/../../../arm-none-eabi/lib/thumb/v7-m/nofp/libc_nano.a(libc_a-exit.o)
 .ARM.attributes
                0x00000000       0x2d /usr/lib/gcc/arm-none-eabi/13.2.1/../../../arm-none-eabi/lib/thumb/v7-m/nofp/libc_nano.a(libc_a-exit.o)
 .text          0x00000000        0xc /usr/lib/gcc/arm-none-eabi/13.2.1/../../../arm-none-eabi/lib/thumb/v7-m/nofp/libc_nano.a(libc_a-atexit.o)
 .data          0x00000000        0x0 /usr/lib/gcc/arm-none-eabi/13.2.1/../../../arm-none-eabi/lib/thumb/v7-m/nofp/libc_nano.a(libc_a-atexit.o)
 .bss           0x00000000        0x0 /usr/lib/gcc/arm-none-eabi/13.2.1/../../../arm-none-eabi/lib/thumb/v7-m/nofp/libc_nano.a(libc_a-atexit.o)
 .debug_info    0x00000000      0x11e /usr/lib/gcc/arm-none-eabi/13.2.1/../../../arm-none-eabi/lib/thumb/v7-m/nofp/libc_nano.a(libc_a-atexit.o)
 .debug_abbrev  0x00000000       0xc1 /usr/lib/gcc/arm-none-eabi/13.2.1/../../../arm-none-eabi/lib/thumb/v7-m/nofp/libc_nano.a(libc_a-atexit.o)
 .debug_loclists
                0x00000000       0x2b /usr/lib/gcc/arm-none-eabi/13.2.1/../../../arm-none-eabi/lib/thumb/v7-m/nofp/libc_nano.a(libc_a-atexit.o)
 .debug_aranges
                0x00000000       0x20 /usr/lib/gcc/arm-none-eabi/13.2.1/../../../arm-none-eabi/lib/thumb/v7-m/nofp/libc_nano.a(libc_a-atexit.o)
 .debug_line    0x00000000       0xc3 /usr/lib/gcc/arm-none-eabi/13.2.1/../../../arm-none-eabi/lib/thumb/v7-m/nofp/libc_nano.a(libc_a-atexit.o)
 .debug_str     0x00000000      0x1ce /usr/lib/gcc/arm-none-eabi/13.2.1/../../../arm-none-eabi/lib/thumb/v7-m/nofp/libc_nano.a(libc_a-atexit.o)
 .comment       0x00000000       0x27 /usr/lib/gcc/arm-none-eabi/13.2.1/../../../arm-none-eabi/lib/thumb/v7-m/nofp/libc_nano.a(libc_a-atexit.o)
 .debug_frame   0x00000000       0x20 /usr/lib/gcc/arm-none-eabi/13.2.1/../../../arm-none-eabi/lib/thumb/v7-m/nofp/libc_nano.a(libc_a-atexit.o)
 .ARM.attributes
                0x00000000       0x2d /usr/lib/gcc/arm-none-eabi/13.2.1/../../../arm-none-eabi/lib/thumb/v7-m/nofp/libc_nano.a(libc_a-atexit.o)
 .data          0x00000000        0x0 /usr/lib/gcc/arm-none-eabi/13.2.1/../../../arm-none-eabi/lib/thumb/v7-m/nofp/libc_nano.a(libc_a-snprintf.o)
 .bss           0x00000000        0x0 /usr/lib/gcc/arm-none-eabi/13.2.1/../../../arm-none-eabi/lib/thumb/v7-m/nofp/libc_nano.a(libc_a-snprintf.o)
 .data          0x00000000        0x0 /usr/lib/gcc/arm-none-eabi/13.2.1/../../../arm-none-eabi/lib/thumb/v7-m/nofp/libc_nano.a(libc_a-printf.o)
 .bss           0x00000000        0x0 /usr/lib/gcc/arm-none-eabi/13.2.1/../../../arm-none-eabi/lib/thumb/v7-m/nofp/libc_nano.a(libc_a-printf.o)
 .data          0x00000000        0x0 /usr/lib/gcc/arm-none-eabi/13.2.1/../../../arm-none-eabi/lib/thumb/v7-m/nofp/libc_nano.a(libc_a-nano-vfprintf.o)
 .bss           0x00000000        0x0 /usr/lib/gcc/arm-none-eabi/13.2.1/../../../arm-none-eabi/lib/thumb/v7-m/nofp/libc_nano.a(libc_a-nano-vfprintf.o)
 .text          0x00000000       0x28 /usr/lib/gcc/arm-none-eabi/13.2.1/../../../arm-none-eabi/lib/thumb/v7-m/nofp/libc_nano.a(libc_a-fini.o)
 .data          0x00000000        0x0 /usr/lib/gcc/arm-none-eabi/13.2.1/../../../arm-none-eabi/lib/thumb/v7-m/nofp/libc_nano.a(libc_a-fini.o)
 .bss           0x00000000        0x0 /usr/lib/gcc/arm-none-eabi/13.2.1/../../../arm-none-eabi/lib/thumb/v7-m/nofp/libc_nano.a(libc_a-fini.o)
 .debug_info    0x00000000       0xf7 /usr/lib/gcc/arm-none-eabi/13.2.1/../../../arm-none-eabi/lib/thumb/v7-m/nofp/libc_nano.a(libc_a-fini.o)
 .debug_abbrev  0x00000000       0xcc /usr/lib/gcc/arm-none-eabi/13.2.1/../../../arm-none-eabi/lib/thumb/v7-m/nofp/libc_nano.a(libc_a-fini.o)
 .debug_loclists
                0x00000000       0x42 /usr/lib/gcc/arm-none-eabi/13.2.1/../../../arm-none-eabi/lib/thumb/v7-m/nofp/libc_nano.a(libc_a-fini.o)
 .debug_aranges
                0x00000000       0x20 /usr/lib/gcc/arm-none-eabi/13.2.1/../../../arm-none-eabi/lib/thumb/v7-m/nofp/libc_nano.a(libc_a-fini.o)
 .debug_line    0x00000000       0xd2 /usr/lib/gcc/arm-none-eabi/13.2.1/../../../arm-none-eabi/lib/thumb/v7-m/nofp/libc_nano.a(libc_a-fini.o)
 .debug_str     0x00000000      0x1c8 /usr/lib/gcc/arm-none-eabi/13.2.1/../../../arm-none-eabi/lib/thumb/v7-m/nofp/libc_nano.a(libc_a-fini.o)
 .comment       0x00000000       0x27 /usr/lib/gcc/arm-none-eabi/13.2.1/../../../arm-none-eabi/lib/thumb/v7-m/nofp/libc_nano.a(libc_a-fini.o)
 .debug_frame   0x00000000       0x34 /usr/lib/gcc/arm-none-eabi/13.2.1/../../../arm-none-eabi/lib/thumb/v7-m/nofp/libc_nano.a(libc_a-fini.o)
 .ARM.attributes
                0x00000000       0x2d /usr/lib/gcc/arm-none-eabi/13.2.1/../../../arm-none-eabi/lib/thumb/v7-m/nofp/libc_nano.a(libc_a-fini.o)
 .data          0x00000000        0x0 /usr/lib/gcc/arm-none-eabi/13.2.1/../../../arm-none-eabi/lib/thumb/v7-m/nofp/libc_nano.a(libc_a-wbuf.o)
 .bss           0x00000000        0x0 /usr/lib/gcc/arm-none-eabi/13.2.1/../../../arm-none-eabi/lib/thumb/v7-m/nofp/libc_nano.a(libc_a-wbuf.o)
 .text          0x00000000        0x0 /usr/lib/gcc/arm-none-eabi/13.2.1/../../../arm-none-eabi/lib/thumb/v7-m/nofp/libc_nano.a(libc_a-impure.o)
 .bss           0x00000000        0x0 /usr/lib/gcc/arm-none-eabi/13.2.1/../../../arm-none-eabi/lib/thumb/v7-m/nofp/libc_nano.a(libc_a-impure.o)
 .data          0x00000000        0x0 /usr/lib/gcc/arm-none-eabi/13.2.1/../../../arm-none-eabi/lib/thumb/v7-m/nofp/libc_nano.a(libc_a-nano-svfprintf.o)
 .bss           0x00000000        0x0 /usr/lib/gcc/arm-none-eabi/13.2.1/../../../arm-none-eabi/lib/thumb/v7-m/nofp/libc_nano.a(libc_a-nano-svfprintf.o)
 .data          0x00000000        0x0 /usr/lib/gcc/arm-none-eabi/13.2.1/../../../arm-none-eabi/lib/thumb/v7-m/nofp/libc_nano.a(libc_a-fvwrite.o)
 .bss           0x00000000        0x0 /usr/lib/gcc/arm-none-eabi/13.2.1/../../../arm-none-eabi/lib/thumb/v7-m/nofp/libc_nano.a(libc_a-fvwrite.o)
 .data          0x00000000        0x0 /usr/lib/gcc/arm-none-eabi/13.2.1/../../../arm-none-eabi/lib/thumb/v7-m/nofp/libc_nano.a(libc_a-fflush.o)
 .bss           0x00000000        0x0 /usr/lib/gcc/arm-none-eabi/13.2.1/../../../arm-none-eabi/lib/thumb/v7-m/nofp/libc_nano.a(libc_a-fflush.o)
 .data          0x00000000        0x0 /usr/lib/gcc/arm-none-eabi/13.2.1/../../../arm-none-eabi/lib/thumb/v7-m/nofp/libc_nano.a(libc_a-mallocr.o)
 .data          0x00000000        0x0 /usr/lib/gcc/arm-none-eabi/13.2.1/../../../arm-none-eabi/lib/thumb/v7-m/nofp/libc_nano.a(libc_a-freer.o)
 .bss           0x00000000        0x0 /usr/lib/gcc/arm-none-eabi/13.2.1/../../../arm-none-eabi/lib/thumb/v7-m/nofp/libc_nano.a(libc_a-freer.o)
 .data          0x00000000        0x0 /usr/lib/gcc/arm-none-eabi/13.2.1/../../../arm-none-eabi/lib/thumb/v7-m/nofp/libc_nano.a(libc_a-memmove.o)
 .bss           0x00000000        0x0 /usr/lib/gcc/arm-none-eabi/13.2.1/../../../arm-none-eabi/lib/thumb/v7-m/nofp/libc_nano.a(libc_a-memmove.o)
 .data          0x00000000        0x0 /usr/lib/gcc/arm-none-eabi/13.2.1/../../../arm-none-eabi/lib/thumb/v7-m/nofp/libc_nano.a(libc_a-fwalk.o)
 .bss           0x00000000        0x0 /usr/lib/gcc/arm-none-eabi/13.2.1/../../../arm-none-eabi/lib/thumb/v7-m/nofp/libc_nano.a(libc_a-fwalk.o)
 .data          0x00000000        0x0 /usr/lib/gcc/arm-none-eabi/13.2.1/../../../arm-none-eabi/lib/thumb/v7-m/nofp/libc_nano.a(libc_a-wsetup.o)
 .bss           0x00000000        0x0 /usr/lib/gcc/arm-none-eabi/13.2.1/../../../arm-none-eabi/lib/thumb/v7-m/nofp/libc_nano.a(libc_a-wsetup.o)
 .text          0x00000000       0xa4 /usr/lib/gcc/arm-none-eabi/13.2.1/../../../arm-none-eabi/lib/thumb/v7-m/nofp/libc_nano.a(libc_a-__atexit.o)
 .data          0x00000000        0x4 /usr/lib/gcc/arm-none-eabi/13.2.1/../../../arm-none-eabi/lib/thumb/v7-m/nofp/libc_nano.a(libc_a-__atexit.o)
 .bss           0x00000000       0x8c /usr/lib/gcc/arm-none-eabi/13.2.1/../../../arm-none-eabi/lib/thumb/v7-m/nofp/libc_nano.a(libc_a-__atexit.o)
 .debug_info    0x00000000      0x284 /usr/lib/gcc/arm-none-eabi/13.2.1/../../../arm-none-eabi/lib/thumb/v7-m/nofp/libc_nano.a(libc_a-__atexit.o)
 .debug_abbrev  0x00000000      0x1d4 /usr/lib/gcc/arm-none-eabi/13.2.1/../../../arm-none-eabi/lib/thumb/v7-m/nofp/libc_nano.a(libc_a-__atexit.o)
 .debug_loclists
                0x00000000       0xf3 /usr/lib/gcc/arm-none-eabi/13.2.1/../../../arm-none-eabi/lib/thumb/v7-m/nofp/libc_nano.a(libc_a-__atexit.o)
 .debug_aranges
                0x00000000       0x20 /usr/lib/gcc/arm-none-eabi/13.2.1/../../../arm-none-eabi/lib/thumb/v7-m/nofp/libc_nano.a(libc_a-__atexit.o)
 .debug_line    0x00000000      0x242 /usr/lib/gcc/arm-none-eabi/13.2.1/../../../arm-none-eabi/lib/thumb/v7-m/nofp/libc_nano.a(libc_a-__atexit.o)
 .debug_str     0x00000000      0x288 /usr/lib/gcc/arm-none-eabi/13.2.1/../../../arm-none-eabi/lib/thumb/v7-m/nofp/libc_nano.a(libc_a-__atexit.o)
 .comment       0x00000000       0x27 /usr/lib/gcc/arm-none-eabi/13.2.1/../../../arm-none-eabi/lib/thumb/v7-m/nofp/libc_nano.a(libc_a-__atexit.o)
 .debug_frame   0x00000000       0x38 /usr/lib/gcc/arm-none-eabi/13.2.1/../../../arm-none-eabi/lib/thumb/v7-m/nofp/libc_nano.a(libc_a-__atexit.o)
 .ARM.attributes
                0x00000000       0x2d /usr/lib/gcc/arm-none-eabi/13.2.1/../../../arm-none-eabi/lib/thumb/v7-m/nofp/libc_nano.a(libc_a-__atexit.o)
 .data          0x00000000        0x0 /usr/lib/gcc/arm-none-eabi/13.2.1/../../../arm-none-eabi/lib/thumb/v7-m/nofp/libc_nano.a(libc_a-reallocr.o)
 .bss           0x00000000        0x0 /usr/lib/gcc/arm-none-eabi/13.2.1/../../../arm-none-eabi/lib/thumb/v7-m/nofp/libc_nano.a(libc_a-reallocr.o)
 .data          0x00000000        0x0 /usr/lib/gcc/arm-none-eabi/13.2.1/../../../arm-none-eabi/lib/thumb/v7-m/nofp/libc_nano.a(libc_a-nano-vfprintf_i.o)
 .bss           0x00000000        0x0 /usr/lib/gcc/arm-none-eabi/13.2.1/../../../arm-none-eabi/lib/thumb/v7-m/nofp/libc_nano.a(libc_a-nano-vfprintf_i.o)
 .data          0x00000000        0x0 /usr/lib/gcc/arm-none-eabi/13.2.1/../../../arm-none-eabi/lib/thumb/v7-m/nofp/libc_nano.a(libc_a-mlock.o)
 .bss           0x00000000        0x0 /usr/lib/gcc/arm-none-eabi/13.2.1/../../../arm-none-eabi/lib/thumb/v7-m/nofp/libc_nano.a(libc_a-mlock.o)
 .data          0x00000000        0x0 /usr/lib/gcc/arm-none-eabi/13.2.1/../../../arm-none-eabi/lib/thumb/v7-m/nofp/libc_nano.a(libc_a-makebuf.o)
 .bss           0x00000000        0x0 /usr/lib/gcc/arm-none-eabi/13.2.1/../../../arm-none-eabi/lib/thumb/v7-m/nofp/libc_nano.a(libc_a-makebuf.o)
 .data          0x00000000        0x0 /usr/lib/gcc/arm-none-eabi/13.2.1/../../../arm-none-eabi/lib/thumb/v7-m/nofp/libc_nano.a(libc_a-memchr-stub.o)
 .bss           0x00000000        0x0 /usr/lib/gcc/arm-none-eabi/13.2.1/../../../arm-none-eabi/lib/thumb/v7-m/nofp/libc_nano.a(libc_a-memchr-stub.o)
 .data          0x00000000        0x0 /usr/lib/gcc/arm-none-eabi/13.2.1/../../../arm-none-eabi/lib/thumb/v7-m/nofp/libc_nano.a(libc_a-isattyr.o)
 .bss           0x00000000        0x0 /usr/lib/gcc/arm-none-eabi/13.2.1/../../../arm-none-eabi/lib/thumb/v7-m/nofp/libc_nano.a(libc_a-isattyr.o)
 .data          0x00000000        0x0 /usr/lib/gcc/arm-none-eabi/13.2.1/../../../arm-none-eabi/lib/thumb/v7-m/nofp/libc_nano.a(libc_a-sbrkr.o)
 .bss           0x00000000        0x0 /usr/lib/gcc/arm-none-eabi/13.2.1/../../../arm-none-eabi/lib/thumb/v7-m/nofp/libc_nano.a(libc_a-sbrkr.o)
 .data          0x00000000        0x0 /usr/lib/gcc/arm-none-eabi/13.2.1/../../../arm-none-eabi/lib/thumb/v7-m/nofp/libc_nano.a(libc_a-stdio.o)
 .bss           0x00000000        0x0 /usr/lib/gcc/arm-none-eabi/13.2.1/../../../arm-none-eabi/lib/thumb/v7-m/nofp/libc_nano.a(libc_a-stdio.o)
 .data          0x00000000        0x0 /usr/lib/gcc/arm-none-eabi/13.2.1/../../../arm-none-eabi/lib/thumb/v7-m/nofp/libc_nano.a(libc_a-msizer.o)
 .bss           0x00000000        0x0 /usr/lib/gcc/arm-none-eabi/13.2.1/../../../arm-none-eabi/lib/thumb/v7-m/nofp/libc_nano.a(libc_a-msizer.o)
 .data          0x00000000        0x0 /usr/lib/gcc/arm-none-eabi/13.2.1/../../../arm-none-eabi/lib/thumb/v7-m/nofp/libc_nano.a(libc_a-closer.o)
 .bss           0x00000000        0x0 /usr/lib/gcc/arm-none-eabi/13.2.1/../../../arm-none-eabi/lib/thumb/v7-m/nofp/libc_nano.a(libc_a-closer.o)
 .text          0x00000000       0xc4 /usr/lib/gcc/arm-none-eabi/13.2.1/../../../arm-none-eabi/lib/thumb/v7-m/nofp/libc_nano.a(libc_a-__call_atexit.o)
 .data          0x00000000        0x0 /usr/lib/gcc/arm-none-eabi/13.2.1/../../../arm-none-eabi/lib/thumb/v7-m/nofp/libc_nano.a(libc_a-__call_atexit.o)
 .bss           0x00000000        0x4 /usr/lib/gcc/arm-none-eabi/13.2.1/../../../arm-none-eabi/lib/thumb/v7-m/nofp/libc_nano.a(libc_a-__call_atexit.o)
 .debug_info    0x00000000      0x235 /usr/lib/gcc/arm-none-eabi/13.2.1/../../../arm-none-eabi/lib/thumb/v7-m/nofp/libc_nano.a(libc_a-__call_atexit.o)
 .debug_abbrev  0x00000000      0x179 /usr/lib/gcc/arm-none-eabi/13.2.1/../../../arm-none-eabi/lib/thumb/v7-m/nofp/libc_nano.a(libc_a-__call_atexit.o)
 .debug_loclists
                0x00000000       0xff /usr/lib/gcc/arm-none-eabi/13.2.1/../../../arm-none-eabi/lib/thumb/v7-m/nofp/libc_nano.a(libc_a-__call_atexit.o)
 .debug_aranges
                0x00000000       0x20 /usr/lib/gcc/arm-none-eabi/13.2.1/../../../arm-none-eabi/lib/thumb/v7-m/nofp/libc_nano.a(libc_a-__call_atexit.o)
 .debug_rnglists
                0x00000000       0x2c /usr/lib/gcc/arm-none-eabi/13.2.1/../../../arm-none-eabi/lib/thumb/v7-m/nofp/libc_nano.a(libc_a-__call_atexit.o)
 .debug_line    0x00000000      0x24b /usr/lib/gcc/arm-none-eabi/13.2.1/../../../arm-none-eabi/lib/thumb/v7-m/nofp/libc_nano.a(libc_a-__call_atexit.o)
 .debug_str     0x00000000      0x23a /usr/lib/gcc/arm-none-eabi/13.2.1/../../../arm-none-eabi/lib/thumb/v7-m/nofp/libc_nano.a(libc_a-__call_atexit.o)
 .comment       0x00000000       0x27 /usr/lib/gcc/arm-none-eabi/13.2.1/../../../arm-none-eabi/lib/thumb/v7-m/nofp/libc_nano.a(libc_a-__call_atexit.o)
 .debug_frame   0x00000000       0x40 /usr/lib/gcc/arm-none-eabi/13.2.1/../../../arm-none-eabi/lib/thumb/v7-m/nofp/libc_nano.a(libc_a-__call_atexit.o)
 .ARM.attributes
                0x00000000       0x2d /usr/lib/gcc/arm-none-eabi/13.2.1/../../../arm-none-eabi/lib/thumb/v7-m/nofp/libc_nano.a(libc_a-__call_atexit.o)
 .data          0x00000000        0x0 /usr/lib/gcc/arm-none-eabi/13.2.1/../../../arm-none-eabi/lib/thumb/v7-m/nofp/libc_nano.a(libc_a-readr.o)
 .bss           0x00000000        0x0 /usr/lib/gcc/arm-none-eabi/13.2.1/../../../arm-none-eabi/lib/thumb/v7-m/nofp/libc_nano.a(libc_a-readr.o)
 .text          0x00000000       0xd4 /usr/lib/gcc/arm-none-eabi/13.2.1/../../../arm-none-eabi/lib/thumb/v7-m/nofp/libc_nano.a(libc_a-reent.o)
 .data          0x00000000        0x0 /usr/lib/gcc/arm-none-eabi/13.2.1/../../../arm-none-eabi/lib/thumb/v7-m/nofp/libc_nano.a(libc_a-reent.o)
 .data          0x00000000        0x0 /usr/lib/gcc/arm-none-eabi/13.2.1/../../../arm-none-eabi/lib/thumb/v7-m/nofp/libc_nano.a(libc_a-fstatr.o)
 .bss           0x00000000        0x0 /usr/lib/gcc/arm-none-eabi/13.2.1/../../../arm-none-eabi/lib/thumb/v7-m/nofp/libc_nano.a(libc_a-fstatr.o)
 .data          0x00000000        0x0 /usr/lib/gcc/arm-none-eabi/13.2.1/../../../arm-none-eabi/lib/thumb/v7-m/nofp/libc_nano.a(libc_a-lseekr.o)
 .bss           0x00000000        0x0 /usr/lib/gcc/arm-none-eabi/13.2.1/../../../arm-none-eabi/lib/thumb/v7-m/nofp/libc_nano.a(libc_a-lseekr.o)
 .data          0x00000000        0x0 /usr/lib/gcc/arm-none-eabi/13.2.1/../../../arm-none-eabi/lib/thumb/v7-m/nofp/libc_nano.a(libc_a-writer.o)
 .bss           0x00000000        0x0 /usr/lib/gcc/arm-none-eabi/13.2.1/../../../arm-none-eabi/lib/thumb/v7-m/nofp/libc_nano.a(libc_a-writer.o)
 .data          0x00000000        0x0 /usr/lib/gcc/arm-none-eabi/13.2.1/../../../arm-none-eabi/lib/thumb/v7-m/nofp/libnosys.a(close.o)
 .bss           0x00000000        0x0 /usr/lib/gcc/arm-none-eabi/13.2.1/../../../arm-none-eabi/lib/thumb/v7-m/nofp/libnosys.a(close.o)
 .gnu.warning._close
                0x00000000        0x0 /usr/lib/gcc/arm-none-eabi/13.2.1/../../../arm-none-eabi/lib/thumb/v7-m/nofp/libnosys.a(close.o)
 .data          0x00000000        0x0 /usr/lib/gcc/arm-none-eabi/13.2.1/../../../arm-none-eabi/lib/thumb/v7-m/nofp/libnosys.a(fstat.o)
 .bss           0x00000000        0x0 /usr/lib/gcc/arm-none-eabi/13.2.1/../../../arm-none-eabi/lib/thumb/v7-m/nofp/libnosys.a(fstat.o)
 .gnu.warning._fstat
                0x00000000        0x0 /usr/lib/gcc/arm-none-eabi/13.2.1/../../../arm-none-eabi/lib/thumb/v7-m/nofp/libnosys.a(fstat.o)
 .data          0x00000000        0x0 /usr/lib/gcc/arm-none-eabi/13.2.1/../../../arm-none-eabi/lib/thumb/v7-m/nofp/libnosys.a(isatty.o)
 .bss           0x00000000        0x0 /usr/lib/gcc/arm-none-eabi/13.2.1/../../../arm-none-eabi/lib/thumb/v7-m/nofp/libnosys.a(isatty.o)
 .gnu.warning._isatty
                0x00000000        0x0 /usr/lib/gcc/arm-none-eabi/13.2.1/../../../arm-none-eabi/lib/thumb/v7-m/nofp/libnosys.a(isatty.o)
 .data          0x00000000        0x0 /usr/lib/gcc/arm-none-eabi/13.2.1/../../../arm-none-eabi/lib/thumb/v7-m/nofp/libnosys.a(lseek.o)
 .bss           0x00000000        0x0 /usr/lib/gcc/arm-none-eabi/13.2.1/../../../arm-none-eabi/lib/thumb/v7-m/nofp/libnosys.a(lseek.o)
 .gnu.warning._lseek
                0x00000000        0x0 /usr/lib/gcc/arm-none-eabi/13.2.1/../../../arm-none-eabi/lib/thumb/v7-m/nofp/libnosys.a(lseek.o)
 .data          0x00000000        0x0 /usr/lib/gcc/arm-none-eabi/13.2.1/../../../arm-none-eabi/lib/thumb/v7-m/nofp/libnosys.a(read.o)
 .bss           0x00000000        0x0 /usr/lib/gcc/arm-none-eabi/13.2.1/../../../arm-none-eabi/lib/thumb/v7-m/nofp/libnosys.a(read.o)
 .gnu.warning._read
                0x00000000        0x0 /usr/lib/gcc/arm-none-eabi/13.2.1/../../../arm-none-eabi/lib/thumb/v7-m/nofp/libnosys.a(read.o)
 .data          0x00000000        0x0 /usr/lib/gcc/arm-none-eabi/13.2.1/../../../arm-none-eabi/lib/thumb/v7-m/nofp/libnosys.a(sbrk.o)
 .data          0x00000000        0x0 /usr/lib/gcc/arm-none-eabi/13.2.1/../../../arm-none-eabi/lib/thumb/v7-m/nofp/libnosys.a(write.o)
 .bss           0x00000000        0x0 /usr/lib/gcc/arm-none-eabi/13.2.1/../../../arm-none-eabi/lib/thumb/v7-m/nofp/libnosys.a(write.o)
 .gnu.warning._write
                0x00000000        0x0 /usr/lib/gcc/arm-none-eabi/13.2.1/../../../arm-none-eabi/lib/thumb/v7-m/nofp/libnosys.a(write.o)
 .text          0x00000000        0x4 /usr/lib/gcc/arm-none-eabi/13.2.1/../../../arm-none-eabi/lib/thumb/v7-m/nofp/libnosys.a(_exit.o)
 .data          0x00000000        0x0 /usr/lib/gcc/arm-none-eabi/13.2.1/../../../arm-none-eabi/lib/thumb/v7-m/nofp/libnosys.a(_exit.o)
 .bss           0x00000000        0x0 /usr/lib/gcc/arm-none-eabi/13.2.1/../../../arm-none-eabi/lib/thumb/v7-m/nofp/libnosys.a(_exit.o)
 .debug_info    0x00000000       0xa4 /usr/lib/gcc/arm-none-eabi/13.2.1/../../../arm-none-eabi/lib/thumb/v7-m/nofp/libnosys.a(_exit.o)
 .debug_abbrev  0x00000000       0x69 /usr/lib/gcc/arm-none-eabi/13.2.1/../../../arm-none-eabi/lib/thumb/v7-m/nofp/libnosys.a(_exit.o)
 .debug_loclists
                0x00000000       0x14 /usr/lib/gcc/arm-none-eabi/13.2.1/../../../arm-none-eabi/lib/thumb/v7-m/nofp/libnosys.a(_exit.o)
 .debug_aranges
                0x00000000       0x20 /usr/lib/gcc/arm-none-eabi/13.2.1/../../../arm-none-eabi/lib/thumb/v7-m/nofp/libnosys.a(_exit.o)
 .debug_line    0x00000000       0x61 /usr/lib/gcc/arm-none-eabi/13.2.1/../../../arm-none-eabi/lib/thumb/v7-m/nofp/libnosys.a(_exit.o)
 .debug_str     0x00000000      0x161 /usr/lib/gcc/arm-none-eabi/13.2.1/../../../arm-none-eabi/lib/thumb/v7-m/nofp/libnosys.a(_exit.o)
 .comment       0x00000000       0x27 /usr/lib/gcc/arm-none-eabi/13.2.1/../../../arm-none-eabi/lib/thumb/v7-m/nofp/libnosys.a(_exit.o)
 .debug_frame   0x00000000       0x20 /usr/lib/gcc/arm-none-eabi/13.2.1/../../../arm-none-eabi/lib/thumb/v7-m/nofp/libnosys.a(_exit.o)
 .ARM.attributes
                0x00000000       0x2d /usr/lib/gcc/arm-none-eabi/13.2.1/../../../arm-none-eabi/lib/thumb/v7-m/nofp/libnosys.a(_exit.o)
 .text          0x00000000      0x254 /usr/lib/gcc/arm-none-eabi/13.2.1/thumb/v7-m/nofp/libgcc.a(_arm_muldf3.o)
 .data          0x00000000        0x0 /usr/lib/gcc/arm-none-eabi/13.2.1/thumb/v7-m/nofp/libgcc.a(_arm_muldf3.o)
 .bss           0x00000000        0x0 /usr/lib/gcc/arm-none-eabi/13.2.1/thumb/v7-m/nofp/libgcc.a(_arm_muldf3.o)
 .debug_line    0x00000000       0xf5 /usr/lib/gcc/arm-none-eabi/13.2.1/thumb/v7-m/nofp/libgcc.a(_arm_muldf3.o)
 .debug_line_str
                0x00000000       0x98 /usr/lib/gcc/arm-none-eabi/13.2.1/thumb/v7-m/nofp/libgcc.a(_arm_muldf3.o)
 .debug_info    0x00000000       0x3f /usr/lib/gcc/arm-none-eabi/13.2.1/thumb/v7-m/nofp/libgcc.a(_arm_muldf3.o)
 .debug_abbrev  0x00000000       0x26 /usr/lib/gcc/arm-none-eabi/13.2.1/thumb/v7-m/nofp/libgcc.a(_arm_muldf3.o)
 .debug_aranges
                0x00000000       0x20 /usr/lib/gcc/arm-none-eabi/13.2.1/thumb/v7-m/nofp/libgcc.a(_arm_muldf3.o)
 .debug_str     0x00000000       0xba /usr/lib/gcc/arm-none-eabi/13.2.1/thumb/v7-m/nofp/libgcc.a(_arm_muldf3.o)
 .debug_frame   0x00000000       0x30 /usr/lib/gcc/arm-none-eabi/13.2.1/thumb/v7-m/nofp/libgcc.a(_arm_muldf3.o)
 .ARM.attributes
                0x00000000       0x1d /usr/lib/gcc/arm-none-eabi/13.2.1/thumb/v7-m/nofp/libgcc.a(_arm_muldf3.o)
 .text          0x00000000      0x378 /usr/lib/gcc/arm-none-eabi/13.2.1/thumb/v7-m/nofp/libgcc.a(_arm_addsubdf3.o)
 .data          0x00000000        0x0 /usr/lib/gcc/arm-none-eabi/13.2.1/thumb/v7-m/nofp/libgcc.a(_arm_addsubdf3.o)
 .bss           0x00000000        0x0 /usr/lib/gcc/arm-none-eabi/13.2.1/thumb/v7-m/nofp/libgcc.a(_arm_addsubdf3.o)
 .debug_line    0x00000000      0x16f /usr/lib/gcc/arm-none-eabi/13.2.1/thumb/v7-m/nofp/libgcc.a(_arm_addsubdf3.o)
 .debug_line_str
                0x00000000       0x98 /usr/lib/gcc/arm-none-eabi/13.2.1/thumb/v7-m/nofp/libgcc.a(_arm_addsubdf3.o)
 .debug_info    0x00000000       0xd3 /usr/lib/gcc/arm-none-eabi/13.2.1/thumb/v7-m/nofp/libgcc.a(_arm_addsubdf3.o)
 .debug_abbrev  0x00000000       0x28 /usr/lib/gcc/arm-none-eabi/13.2.1/thumb/v7-m/nofp/libgcc.a(_arm_addsubdf3.o)
 .debug_aranges
                0x00000000       0x20 /usr/lib/gcc/arm-none-eabi/13.2.1/thumb/v7-m/nofp/libgcc.a(_arm_addsubdf3.o)
 .debug_str     0x00000000      0x150 /usr/lib/gcc/arm-none-eabi/13.2.1/thumb/v7-m/nofp/libgcc.a(_arm_addsubdf3.o)
 .debug_frame   0x00000000       0xac /usr/lib/gcc/arm-none-eabi/13.2.1/thumb/v7-m/nofp/libgcc.a(_arm_addsubdf3.o)
 .ARM.attributes
                0x00000000       0x1d /usr/lib/gcc/arm-none-eabi/13.2.1/thumb/v7-m/nofp/libgcc.a(_arm_addsubdf3.o)
 .text          0x00000000      0x424 /usr/lib/gcc/arm-none-eabi/13.2.1/thumb/v7-m/nofp/libgcc.a(_arm_muldivdf3.o)
 .data          0x00000000        0x0 /usr/lib/gcc/arm-none-eabi/13.2.1/thumb/v7-m/nofp/libgcc.a(_arm_muldivdf3.o)
 .bss           0x00000000        0x0 /usr/lib/gcc/arm-none-eabi/13.2.1/thumb/v7-m/nofp/libgcc.a(_arm_muldivdf3.o)
 .debug_line    0x00000000      0x184 /usr/lib/gcc/arm-none-eabi/13.2.1/thumb/v7-m/nofp/libgcc.a(_arm_muldivdf3.o)
 .debug_line_str
                0x00000000       0x98 /usr/lib/gcc/arm-none-eabi/13.2.1/thumb/v7-m/nofp/libgcc.a(_arm_muldivdf3.o)
 .debug_info    0x00000000       0x57 /usr/lib/gcc/arm-none-eabi/13.2.1/thumb/v7-m/nofp/libgcc.a(_arm_muldivdf3.o)
 .debug_abbrev  0x00000000       0x28 /usr/lib/gcc/arm-none-eabi/13.2.1/thumb/v7-m/nofp/libgcc.a(_arm_muldivdf3.o)
 .debug_aranges
                0x00000000       0x20 /usr/lib/gcc/arm-none-eabi/13.2.1/thumb/v7-m/nofp/libgcc.a(_arm_muldivdf3.o)
 .debug_str     0x00000000       0xd0 /usr/lib/gcc/arm-none-eabi/13.2.1/thumb/v7-m/nofp/libgcc.a(_arm_muldivdf3.o)
 .debug_frame   0x00000000       0x50 /usr/lib/gcc/arm-none-eabi/13.2.1/thumb/v7-m/nofp/libgcc.a(_arm_muldivdf3.o)
 .ARM.attributes
                0x00000000       0x1d /usr/lib/gcc/arm-none-eabi/13.2.1/thumb/v7-m/nofp/libgcc.a(_arm_muldivdf3.o)
 .text          0x00000000      0x110 /usr/lib/gcc/arm-none-eabi/13.2.1/thumb/v7-m/nofp/libgcc.a(_arm_cmpdf2.o)
 .data          0x00000000        0x0 /usr/lib/gcc/arm-none-eabi/13.2.1/thumb/v7-m/nofp/libgcc.a(_arm_cmpdf2.o)
 .bss           0x00000000        0x0 /usr/lib/gcc/arm-none-eabi/13.2.1/thumb/v7-m/nofp/libgcc.a(_arm_cmpdf2.o)
 .debug_line    0x00000000       0xa6 /usr/lib/gcc/arm-none-eabi/13.2.1/thumb/v7-m/nofp/libgcc.a(_arm_cmpdf2.o)
 .debug_line_str
                0x00000000       0x98 /usr/lib/gcc/arm-none-eabi/13.2.1/thumb/v7-m/nofp/libgcc.a(_arm_cmpdf2.o)
 .debug_info    0x00000000       0xdf /usr/lib/gcc/arm-none-eabi/13.2.1/thumb/v7-m/nofp/libgcc.a(_arm_cmpdf2.o)
 .debug_abbrev  0x00000000       0x28 /usr/lib/gcc/arm-none-eabi/13.2.1/thumb/v7-m/nofp/libgcc.a(_arm_cmpdf2.o)
 .debug_aranges
                0x00000000       0x20 /usr/lib/gcc/arm-none-eabi/13.2.1/thumb/v7-m/nofp/libgcc.a(_arm_cmpdf2.o)
 .debug_str     0x00000000      0x159 /usr/lib/gcc/arm-none-eabi/13.2.1/thumb/v7-m/nofp/libgcc.a(_arm_cmpdf2.o)
 .debug_frame   0x00000000       0xc4 /usr/lib/gcc/arm-none-eabi/13.2.1/thumb/v7-m/nofp/libgcc.a(_arm_cmpdf2.o)
 .ARM.attributes
                0x00000000       0x1d /usr/lib/gcc/arm-none-eabi/13.2.1/thumb/v7-m/nofp/libgcc.a(_arm_cmpdf2.o)
 .text          0x00000000       0x50 /usr/lib/gcc/arm-none-eabi/13.2.1/thumb/v7-m/nofp/libgcc.a(_arm_fixdfsi.o)
 .data          0x00000000        0x0 /usr/lib/gcc/arm-none-eabi/13.2.1/thumb/v7-m/nofp/libgcc.a(_arm_fixdfsi.o)
 .bss           0x00000000        0x0 /usr/lib/gcc/arm-none-eabi/13.2.1/thumb/v7-m/nofp/libgcc.a(_arm_fixdfsi.o)
 .debug_line    0x00000000       0x62 /usr/lib/gcc/arm-none-eabi/13.2.1/thumb/v7-m/nofp/libgcc.a(_arm_fixdfsi.o)
 .debug_line_str
                0x00000000       0x98 /usr/lib/gcc/arm-none-eabi/13.2.1/thumb/v7-m/nofp/libgcc.a(_arm_fixdfsi.o)
 .debug_info    0x00000000       0x3c /usr/lib/gcc/arm-none-eabi/13.2.1/thumb/v7-m/nofp/libgcc.a(_arm_fixdfsi.o)
 .debug_abbrev  0x00000000       0x28 /usr/lib/gcc/arm-none-eabi/13.2.1/thumb/v7-m/nofp/libgcc.a(_arm_fixdfsi.o)
 .debug_aranges
                0x00000000       0x20 /usr/lib/gcc/arm-none-eabi/13.2.1/thumb/v7-m/nofp/libgcc.a(_arm_fixdfsi.o)
 .debug_str     0x00000000       0xbb /usr/lib/gcc/arm-none-eabi/13.2.1/thumb/v7-m/nofp/libgcc.a(_arm_fixdfsi.o)
 .debug_frame   0x00000000       0x24 /usr/lib/gcc/arm-none-eabi/13.2.1/thumb/v7-m/nofp/libgcc.a(_arm_fixdfsi.o)
 .ARM.attributes
                0x00000000       0x1d /usr/lib/gcc/arm-none-eabi/13.2.1/thumb/v7-m/nofp/libgcc.a(_arm_fixdfsi.o)
 .text          0x00000000       0x40 /usr/lib/gcc/arm-none-eabi/13.2.1/thumb/v7-m/nofp/libgcc.a(_arm_fixunsdfsi.o)
 .data          0x00000000        0x0 /usr/lib/gcc/arm-none-eabi/13.2.1/thumb/v7-m/nofp/libgcc.a(_arm_fixunsdfsi.o)
 .bss           0x00000000        0x0 /usr/lib/gcc/arm-none-eabi/13.2.1/thumb/v7-m/nofp/libgcc.a(_arm_fixunsdfsi.o)
 .debug_line    0x00000000       0x5e /usr/lib/gcc/arm-none-eabi/13.2.1/thumb/v7-m/nofp/libgcc.a(_arm_fixunsdfsi.o)
 .debug_line_str
                0x00000000       0x98 /usr/lib/gcc/arm-none-eabi/13.2.1/thumb/v7-m/nofp/libgcc.a(_arm_fixunsdfsi.o)
 .debug_info    0x00000000       0x3c /usr/lib/gcc/arm-none-eabi/13.2.1/thumb/v7-m/nofp/libgcc.a(_arm_fixunsdfsi.o)
 .debug_abbrev  0x00000000       0x28 /usr/lib/gcc/arm-none-eabi/13.2.1/thumb/v7-m/nofp/libgcc.a(_arm_fixunsdfsi.o)
 .debug_aranges
                0x00000000       0x20 /usr/lib/gcc/arm-none-eabi/13.2.1/thumb/v7-m/nofp/libgcc.a(_arm_fixunsdfsi.o)
 .debug_str     0x00000000       0xbf /usr/lib/gcc/arm-none-eabi/13.2.1/thumb/v7-m/nofp/libgcc.a(_arm_fixunsdfsi.o)
 .debug_frame   0x00000000       0x24 /usr/lib/gcc/arm-none-eabi/13.2.1/thumb/v7-m/nofp/libgcc.a(_arm_fixunsdfsi.o)
 .ARM.attributes
                0x00000000       0x1d /usr/lib/gcc/arm-none-eabi/13.2.1/thumb/v7-m/nofp/libgcc.a(_arm_fixunsdfsi.o)
 .text          0x00000000        0x0 /usr/lib/gcc/arm-none-eabi/13.2.1/thumb/v7-m/nofp/crtend.o
 .data          0x00000000        0x0 /usr/lib/gcc/arm-none-eabi/13.2.1/thumb/v7-m/nofp/crtend.o
 .bss           0x00000000        0x0 /usr/lib/gcc/arm-none-eabi/13.2.1/thumb/v7-m/nofp/crtend.o
 .rodata        0x00000000       0x24 /usr/lib/gcc/arm-none-eabi/13.2.1/thumb/v7-m/nofp/crtend.o
 .eh_frame      0x00000000        0x4 /usr/lib/gcc/arm-none-eabi/13.2.1/thumb/v7-m/nofp/crtend.o
 .text          0x00000000        0x0 /usr/lib/gcc/arm-none-eabi/13.2.1/thumb/v7-m/nofp/crtn.o
 .data          0x00000000        0x0 /usr/lib/gcc/arm-none-eabi/13.2.1/thumb/v7-m/nofp/crtn.o
 .bss           0x00000000        0x0 /usr/lib/gcc/arm-none-eabi/13.2.1/thumb/v7-m/nofp/crtn.o

Memory Configuration

Name             Origin             Length             Attributes
RAM              0x20000000         0x0000c000         xrw
FLASH            0x08000000         0x00040000         xr
*default*        0x00000000         0xffffffff

Linker script and memory map

LOAD /usr/lib/gcc/arm-none-eabi/13.2.1/thumb/v7-m/nofp/crti.o
LOAD /usr/lib/gcc/arm-none-eabi/13.2.1/thumb/v7-m/nofp/crtbegin.o
LOAD /usr/lib/gcc/arm-none-eabi/13.2.1/../../../arm-none-eabi/lib/thumb/v7-m/nofp/crt0.o
LOAD /workspaces/hoverboard-firmware-hack-FOC/build/stm32f1xx_hal_flash.o
LOAD /workspaces/hoverboard-firmware-hack-FOC/build/stm32f1xx_hal_pwr.o
LOAD /workspaces/hoverboard-firmware-hack-FOC/build/stm32f1xx_hal_rcc.o
LOAD /workspaces/hoverboard-firmware-hack-FOC/build/stm32f1xx_hal_tim.o
LOAD /workspaces/hoverboard-firmware-hack-FOC/build/stm32f1xx_hal_tim_ex.o
LOAD /workspaces/hoverboard-firmware-hack-FOC/build/stm32f1xx_hal_gpio_ex.o
LOAD /workspaces/hoverboard-firmware-hack-FOC/build/stm32f1xx_hal_adc_ex.o
LOAD /workspaces/hoverboard-firmware-hack-FOC/build/stm32f1xx_hal_cortex.o
LOAD /workspaces/hoverboard-firmware-hack-FOC/build/stm32f1xx_hal_flash_ex.o
LOAD /workspaces/hoverboard-firmware-hack-FOC/build/stm32f1xx_hal_gpio.o
LOAD /workspaces/hoverboard-firmware-hack-FOC/build/stm32f1xx_hal_rcc_ex.o
LOAD /workspaces/hoverboard-firmware-hack-FOC/build/stm32f1xx_hal.o
LOAD /workspaces/hoverboard-firmware-hack-FOC/build/stm32f1xx_hal_adc.o
LOAD /workspaces/hoverboard-firmware-hack-FOC/build/stm32f1xx_hal_uart.o
LOAD /workspaces/hoverboard-firmware-hack-FOC/build/stm32f1xx_hal_i2c.o
LOAD /workspaces/hoverboard-firmware-hack-FOC/build/stm32f1xx_hal_dma.o
LOAD /workspaces/hoverboard-firmware-hack-FOC/build/system_stm32f1xx.o
LOAD /workspaces/hoverboard-firmware-hack-FOC/build/setup.o
LOAD /workspaces/hoverboard-firmware-hack-FOC/build/control.o
LOAD /workspaces/hoverboard-firmware-hack-FOC/build/comms.o
LOAD /workspaces/hoverboard-firmware-hack-FOC/build/util.o
LOAD /workspaces/hoverboard-firmware-hack-FOC/build/main.o
LOAD /workspaces/hoverboard-firmware-hack-FOC/build/bldc.o
LOAD /workspaces/hoverboard-firmware-hack-FOC/build/eeprom.o
LOAD /workspaces/hoverboard-firmware-hack-FOC/build/hd44780.o
LOAD /workspaces/hoverboard-firmware-hack-FOC/build/pcf8574.o
LOAD /workspaces/hoverboard-firmware-hack-FOC/build/stm32f1xx_it.o
LOAD /workspaces/hoverboard-firmware-hack-FOC/build/BLDC_controller_data.o
LOAD /workspaces/hoverboard-firmware-hack-FOC/build/BLDC_controller.o
LOAD /workspaces/hoverboard-firmware-hack-FOC/build/startup_stm32f103xe.o
LOAD /usr/lib/gcc/arm-none-eabi/13.2.1/../../../arm-none-eabi/lib/thumb/v7-m/nofp/libc_nano.a
LOAD /usr/lib/gcc/arm-none-eabi/13.2.1/../../../arm-none-eabi/lib/thumb/v7-m/nofp/libm.a
LOAD /usr/lib/gcc/arm-none-eabi/13.2.1/../../../arm-none-eabi/lib/thumb/v7-m/nofp/libnosys.a
START GROUP
LOAD /usr/lib/gcc/arm-none-eabi/13.2.1/thumb/v7-m/nofp/libgcc.a
LOAD /usr/lib/gcc/arm-none-eabi/13.2.1/../../../arm-none-eabi/lib/thumb/v7-m/nofp/libc_nano.a
END GROUP
START GROUP
LOAD /usr/lib/gcc/arm-none-eabi/13.2.1/thumb/v7-m/nofp/libgcc.a
LOAD /usr/lib/gcc/arm-none-eabi/13.2.1/../../../arm-none-eabi/lib/thumb/v7-m/nofp/libc_nano.a
END GROUP
LOAD /usr/lib/gcc/arm-none-eabi/13.2.1/thumb/v7-m/nofp/crtend.o
LOAD /usr/lib/gcc/arm-none-eabi/13.2.1/thumb/v7-m/nofp/crtn.o
                0x2000c000                        _estack = 0x2000c000
                0x00000200                        _Min_Heap_Size = 0x200
                0x00000400                        _Min_Stack_Size = 0x400

.isr_vector     0x08000000      0x1e4
                0x08000000                        . = ALIGN (0x4)
 *(.isr_vector)
 .isr_vector    0x08000000      0x1e4 /workspaces/hoverboard-firmware-hack-FOC/build/startup_stm32f103xe.o
                0x08000000                g_pfnVectors
                0x080001e4                        . = ALIGN (0x4)

.text           0x080001e4     0x89a4
                0x080001e4                        . = ALIGN (0x4)
 *(.text)
 .text          0x080001e4       0x88 /usr/lib/gcc/arm-none-eabi/13.2.1/thumb/v7-m/nofp/crtbegin.o
 .text          0x0800026c       0x50 /usr/lib/gcc/arm-none-eabi/13.2.1/../../../arm-none-eabi/lib/thumb/v7-m/nofp/libc_nano.a(libc_a-init.o)
                0x0800026c                __libc_init_array
 .text          0x080002bc       0xa0 /usr/lib/gcc/arm-none-eabi/13.2.1/../../../arm-none-eabi/lib/thumb/v7-m/nofp/libc_nano.a(libc_a-memset.o)
                0x080002bc                memset
 .text          0x0800035c       0xec /usr/lib/gcc/arm-none-eabi/13.2.1/../../../arm-none-eabi/lib/thumb/v7-m/nofp/libc_nano.a(libc_a-memcpy.o)
                0x0800035c                memcpy
 .text          0x08000448      0x10c /usr/lib/gcc/arm-none-eabi/13.2.1/../../../arm-none-eabi/lib/thumb/v7-m/nofp/libc_nano.a(libc_a-snprintf.o)
                0x08000448                _sniprintf_r
                0x08000448                _snprintf_r
                0x080004c8                snprintf
                0x080004c8                sniprintf
 .text          0x08000554       0x48 /usr/lib/gcc/arm-none-eabi/13.2.1/../../../arm-none-eabi/lib/thumb/v7-m/nofp/libc_nano.a(libc_a-printf.o)
                0x08000554                _printf_r
                0x08000554                _iprintf_r
                0x08000574                printf
                0x08000574                iprintf
 .text          0x0800059c      0x2ec /usr/lib/gcc/arm-none-eabi/13.2.1/../../../arm-none-eabi/lib/thumb/v7-m/nofp/libc_nano.a(libc_a-nano-vfprintf.o)
                0x080005c4                __sfputs_r
                0x080005f4                __sprint_r
                0x08000614                _vfiprintf_r
                0x08000614                _vfprintf_r
                0x0800086c                vfiprintf
                0x0800086c                vfprintf
 .text          0x08000888       0x9c /usr/lib/gcc/arm-none-eabi/13.2.1/../../../arm-none-eabi/lib/thumb/v7-m/nofp/libc_nano.a(libc_a-wbuf.o)
                0x08000888                __swbuf_r
                0x08000910                __swbuf
 .text          0x08000924      0x400 /usr/lib/gcc/arm-none-eabi/13.2.1/../../../arm-none-eabi/lib/thumb/v7-m/nofp/libc_nano.a(libc_a-nano-svfprintf.o)
                0x08000924                __ssputs_r
                0x080009e4                __ssprint_r
                0x08000af4                _svfprintf_r
                0x08000af4                _svfiprintf_r
 .text          0x08000d24      0x2ec /usr/lib/gcc/arm-none-eabi/13.2.1/../../../arm-none-eabi/lib/thumb/v7-m/nofp/libc_nano.a(libc_a-fvwrite.o)
                0x08000d24                __sfvwrite_r
 .text          0x08001010      0x224 /usr/lib/gcc/arm-none-eabi/13.2.1/../../../arm-none-eabi/lib/thumb/v7-m/nofp/libc_nano.a(libc_a-findfp.o)
                0x08001140                __sfp
                0x080011e4                __sinit
                0x08001204                __sfp_lock_acquire
                0x08001208                __sfp_lock_release
                0x0800120c                __fp_lock_all
                0x08001220                __fp_unlock_all
 .text          0x08001234      0x198 /usr/lib/gcc/arm-none-eabi/13.2.1/../../../arm-none-eabi/lib/thumb/v7-m/nofp/libc_nano.a(libc_a-fflush.o)
                0x08001234                __sflush_r
                0x08001348                _fflush_r
                0x08001380                fflush
 .text          0x080013cc      0x14c /usr/lib/gcc/arm-none-eabi/13.2.1/../../../arm-none-eabi/lib/thumb/v7-m/nofp/libc_nano.a(libc_a-mallocr.o)
                0x08001418                _malloc_r
 .text          0x08001518       0xbc /usr/lib/gcc/arm-none-eabi/13.2.1/../../../arm-none-eabi/lib/thumb/v7-m/nofp/libc_nano.a(libc_a-freer.o)
                0x08001518                _free_r
 .text          0x080015d4       0xfc /usr/lib/gcc/arm-none-eabi/13.2.1/../../../arm-none-eabi/lib/thumb/v7-m/nofp/libc_nano.a(libc_a-memmove.o)
                0x080015d4                memmove
 .text          0x080016d0       0x44 /usr/lib/gcc/arm-none-eabi/13.2.1/../../../arm-none-eabi/lib/thumb/v7-m/nofp/libc_nano.a(libc_a-fwalk.o)
                0x080016d0                _fwalk_sglue
 .text          0x08001714       0xc4 /usr/lib/gcc/arm-none-eabi/13.2.1/../../../arm-none-eabi/lib/thumb/v7-m/nofp/libc_nano.a(libc_a-wsetup.o)
                0x08001714                __swsetup_r
 .text          0x080017d8       0x64 /usr/lib/gcc/arm-none-eabi/13.2.1/../../../arm-none-eabi/lib/thumb/v7-m/nofp/libc_nano.a(libc_a-reallocr.o)
                0x080017d8                _realloc_r
 .text          0x0800183c      0x3a8 /usr/lib/gcc/arm-none-eabi/13.2.1/../../../arm-none-eabi/lib/thumb/v7-m/nofp/libc_nano.a(libc_a-nano-vfprintf_i.o)
                0x0800183c                _printf_common
                0x08001960                _printf_i
 .text          0x08001be4        0x8 /usr/lib/gcc/arm-none-eabi/13.2.1/../../../arm-none-eabi/lib/thumb/v7-m/nofp/libc_nano.a(libc_a-mlock.o)
                0x08001be4                __malloc_lock
                0x08001be8                __malloc_unlock
 .text          0x08001bec      0x110 /usr/lib/gcc/arm-none-eabi/13.2.1/../../../arm-none-eabi/lib/thumb/v7-m/nofp/libc_nano.a(libc_a-makebuf.o)
                0x08001bec                __smakebuf_r
                0x08001cb0                __swhatbuf_r
 .text          0x08001cfc       0x98 /usr/lib/gcc/arm-none-eabi/13.2.1/../../../arm-none-eabi/lib/thumb/v7-m/nofp/libc_nano.a(libc_a-memchr-stub.o)
                0x08001cfc                memchr
 .text          0x08001d94       0x24 /usr/lib/gcc/arm-none-eabi/13.2.1/../../../arm-none-eabi/lib/thumb/v7-m/nofp/libc_nano.a(libc_a-isattyr.o)
                0x08001d94                _isatty_r
 .text          0x08001db8       0x24 /usr/lib/gcc/arm-none-eabi/13.2.1/../../../arm-none-eabi/lib/thumb/v7-m/nofp/libc_nano.a(libc_a-sbrkr.o)
                0x08001db8                _sbrk_r
 .text          0x08001ddc       0x94 /usr/lib/gcc/arm-none-eabi/13.2.1/../../../arm-none-eabi/lib/thumb/v7-m/nofp/libc_nano.a(libc_a-stdio.o)
                0x08001ddc                __sread
                0x08001e00                __seofread
                0x08001e04                __swrite
                0x08001e44                __sseek
                0x08001e68                __sclose
 .text          0x08001e70       0x10 /usr/lib/gcc/arm-none-eabi/13.2.1/../../../arm-none-eabi/lib/thumb/v7-m/nofp/libc_nano.a(libc_a-msizer.o)
                0x08001e70                _malloc_usable_size_r
 .text          0x08001e80       0x24 /usr/lib/gcc/arm-none-eabi/13.2.1/../../../arm-none-eabi/lib/thumb/v7-m/nofp/libc_nano.a(libc_a-closer.o)
                0x08001e80                _close_r
 .text          0x08001ea4       0x2c /usr/lib/gcc/arm-none-eabi/13.2.1/../../../arm-none-eabi/lib/thumb/v7-m/nofp/libc_nano.a(libc_a-readr.o)
                0x08001ea4                _read_r
 .text          0x08001ed0       0x28 /usr/lib/gcc/arm-none-eabi/13.2.1/../../../arm-none-eabi/lib/thumb/v7-m/nofp/libc_nano.a(libc_a-fstatr.o)
                0x08001ed0                _fstat_r
 .text          0x08001ef8       0x2c /usr/lib/gcc/arm-none-eabi/13.2.1/../../../arm-none-eabi/lib/thumb/v7-m/nofp/libc_nano.a(libc_a-lseekr.o)
                0x08001ef8                _lseek_r
 .text          0x08001f24       0x2c /usr/lib/gcc/arm-none-eabi/13.2.1/../../../arm-none-eabi/lib/thumb/v7-m/nofp/libc_nano.a(libc_a-writer.o)
                0x08001f24                _write_r
 .text          0x08001f50       0x10 /usr/lib/gcc/arm-none-eabi/13.2.1/../../../arm-none-eabi/lib/thumb/v7-m/nofp/libnosys.a(close.o)
                0x08001f50                _close
 .text          0x08001f60       0x10 /usr/lib/gcc/arm-none-eabi/13.2.1/../../../arm-none-eabi/lib/thumb/v7-m/nofp/libnosys.a(fstat.o)
                0x08001f60                _fstat
 .text          0x08001f70       0x10 /usr/lib/gcc/arm-none-eabi/13.2.1/../../../arm-none-eabi/lib/thumb/v7-m/nofp/libnosys.a(isatty.o)
                0x08001f70                _isatty
 .text          0x08001f80       0x10 /usr/lib/gcc/arm-none-eabi/13.2.1/../../../arm-none-eabi/lib/thumb/v7-m/nofp/libnosys.a(lseek.o)
                0x08001f80                _lseek
 .text          0x08001f90       0x10 /usr/lib/gcc/arm-none-eabi/13.2.1/../../../arm-none-eabi/lib/thumb/v7-m/nofp/libnosys.a(read.o)
                0x08001f90                _read
 .text          0x08001fa0       0x1c /usr/lib/gcc/arm-none-eabi/13.2.1/../../../arm-none-eabi/lib/thumb/v7-m/nofp/libnosys.a(sbrk.o)
                0x08001fa0                _sbrk
 .text          0x08001fbc       0x10 /usr/lib/gcc/arm-none-eabi/13.2.1/../../../arm-none-eabi/lib/thumb/v7-m/nofp/libnosys.a(write.o)
                0x08001fbc                _write
 *(.text*)
 .text.FLASH_Program_HalfWord
                0x08001fcc       0x1c /workspaces/hoverboard-firmware-hack-FOC/build/stm32f1xx_hal_flash.o
 .text.FLASH_SetErrorCode
                0x08001fe8       0x70 /workspaces/hoverboard-firmware-hack-FOC/build/stm32f1xx_hal_flash.o
 .text.HAL_FLASH_Unlock
                0x08002058       0x28 /workspaces/hoverboard-firmware-hack-FOC/build/stm32f1xx_hal_flash.o
                0x08002058                HAL_FLASH_Unlock
 .text.HAL_FLASH_Lock
                0x08002080       0x14 /workspaces/hoverboard-firmware-hack-FOC/build/stm32f1xx_hal_flash.o
                0x08002080                HAL_FLASH_Lock
 .text.FLASH_WaitForLastOperation
                0x08002094       0x68 /workspaces/hoverboard-firmware-hack-FOC/build/stm32f1xx_hal_flash.o
                0x08002094                FLASH_WaitForLastOperation
 .text.HAL_FLASH_Program
                0x080020fc       0xa0 /workspaces/hoverboard-firmware-hack-FOC/build/stm32f1xx_hal_flash.o
                0x080020fc                HAL_FLASH_Program
 .text.RCC_Delay
                0x0800219c       0x2c /workspaces/hoverboard-firmware-hack-FOC/build/stm32f1xx_hal_rcc.o
 .text.HAL_RCC_OscConfig
                0x080021c8      0x3e0 /workspaces/hoverboard-firmware-hack-FOC/build/stm32f1xx_hal_rcc.o
                0x080021c8                HAL_RCC_OscConfig
 .text.HAL_RCC_GetSysClockFreq
                0x080025a8       0x70 /workspaces/hoverboard-firmware-hack-FOC/build/stm32f1xx_hal_rcc.o
                0x080025a8                HAL_RCC_GetSysClockFreq
 .text.HAL_RCC_ClockConfig
                0x08002618      0x17c /workspaces/hoverboard-firmware-hack-FOC/build/stm32f1xx_hal_rcc.o
                0x08002618                HAL_RCC_ClockConfig
 .text.HAL_RCC_GetHCLKFreq
                0x08002794        0xc /workspaces/hoverboard-firmware-hack-FOC/build/stm32f1xx_hal_rcc.o
                0x08002794                HAL_RCC_GetHCLKFreq
 .text.HAL_RCC_GetPCLK1Freq
                0x080027a0       0x20 /workspaces/hoverboard-firmware-hack-FOC/build/stm32f1xx_hal_rcc.o
                0x080027a0                HAL_RCC_GetPCLK1Freq
 .text.HAL_RCC_GetPCLK2Freq
                0x080027c0       0x20 /workspaces/hoverboard-firmware-hack-FOC/build/stm32f1xx_hal_rcc.o
                0x080027c0                HAL_RCC_GetPCLK2Freq
 .text.TIM_OC1_SetConfig
                0x080027e0       0x70 /workspaces/hoverboard-firmware-hack-FOC/build/stm32f1xx_hal_tim.o
 .text.TIM_OC3_SetConfig
                0x08002850       0x70 /workspaces/hoverboard-firmware-hack-FOC/build/stm32f1xx_hal_tim.o
 .text.TIM_OC4_SetConfig
                0x080028c0       0x50 /workspaces/hoverboard-firmware-hack-FOC/build/stm32f1xx_hal_tim.o
 .text.TIM_TI1_ConfigInputStage
                0x08002910       0x24 /workspaces/hoverboard-firmware-hack-FOC/build/stm32f1xx_hal_tim.o
 .text.TIM_TI2_ConfigInputStage
                0x08002934       0x26 /workspaces/hoverboard-firmware-hack-FOC/build/stm32f1xx_hal_tim.o
 .text.TIM_ETR_SetConfig
                0x0800295a       0x18 /workspaces/hoverboard-firmware-hack-FOC/build/stm32f1xx_hal_tim.o
 .text.TIM_SlaveTimer_SetConfig
                0x08002972       0x74 /workspaces/hoverboard-firmware-hack-FOC/build/stm32f1xx_hal_tim.o
 .text.HAL_TIM_PWM_MspInit
                0x080029e6        0x2 /workspaces/hoverboard-firmware-hack-FOC/build/stm32f1xx_hal_tim.o
                0x080029e6                HAL_TIM_PWM_MspInit
 .text.HAL_TIM_SlaveConfigSynchronization
                0x080029e8       0x40 /workspaces/hoverboard-firmware-hack-FOC/build/stm32f1xx_hal_tim.o
                0x080029e8                HAL_TIM_SlaveConfigSynchronization
 .text.TIM_Base_SetConfig
                0x08002a28       0x98 /workspaces/hoverboard-firmware-hack-FOC/build/stm32f1xx_hal_tim.o
                0x08002a28                TIM_Base_SetConfig
 .text.HAL_TIM_PWM_Init
                0x08002ac0       0x34 /workspaces/hoverboard-firmware-hack-FOC/build/stm32f1xx_hal_tim.o
                0x08002ac0                HAL_TIM_PWM_Init
 .text.TIM_OC2_SetConfig
                0x08002af4       0x70 /workspaces/hoverboard-firmware-hack-FOC/build/stm32f1xx_hal_tim.o
                0x08002af4                TIM_OC2_SetConfig
 .text.HAL_TIM_PWM_ConfigChannel
                0x08002b64       0xdc /workspaces/hoverboard-firmware-hack-FOC/build/stm32f1xx_hal_tim.o
                0x08002b64                HAL_TIM_PWM_ConfigChannel
 .text.TIM_CCxChannelCmd
                0x08002c40       0x1a /workspaces/hoverboard-firmware-hack-FOC/build/stm32f1xx_hal_tim.o
                0x08002c40                TIM_CCxChannelCmd
 *fill*         0x08002c5a        0x2 
 .text.HAL_TIM_PWM_Start
                0x08002c5c       0x38 /workspaces/hoverboard-firmware-hack-FOC/build/stm32f1xx_hal_tim.o
                0x08002c5c                HAL_TIM_PWM_Start
 .text.TIM_CCxNChannelCmd
                0x08002c94       0x1a /workspaces/hoverboard-firmware-hack-FOC/build/stm32f1xx_hal_tim_ex.o
 .text.HAL_TIMEx_PWMN_Start
                0x08002cae       0x24 /workspaces/hoverboard-firmware-hack-FOC/build/stm32f1xx_hal_tim_ex.o
                0x08002cae                HAL_TIMEx_PWMN_Start
 .text.HAL_TIMEx_ConfigBreakDeadTime
                0x08002cd2       0x52 /workspaces/hoverboard-firmware-hack-FOC/build/stm32f1xx_hal_tim_ex.o
                0x08002cd2                HAL_TIMEx_ConfigBreakDeadTime
 .text.HAL_TIMEx_MasterConfigSynchronization
                0x08002d24       0x52 /workspaces/hoverboard-firmware-hack-FOC/build/stm32f1xx_hal_tim_ex.o
                0x08002d24                HAL_TIMEx_MasterConfigSynchronization
 *fill*         0x08002d76        0x2 
 .text.HAL_ADCEx_MultiModeConfigChannel
                0x08002d78       0x60 /workspaces/hoverboard-firmware-hack-FOC/build/stm32f1xx_hal_adc_ex.o
                0x08002d78                HAL_ADCEx_MultiModeConfigChannel
 .text.NVIC_SetPriority
                0x08002dd8       0x28 /workspaces/hoverboard-firmware-hack-FOC/build/stm32f1xx_hal_cortex.o
 .text.NVIC_EncodePriority
                0x08002e00       0x3e /workspaces/hoverboard-firmware-hack-FOC/build/stm32f1xx_hal_cortex.o
 *fill*         0x08002e3e        0x2 
 .text.HAL_NVIC_SetPriorityGrouping
                0x08002e40       0x24 /workspaces/hoverboard-firmware-hack-FOC/build/stm32f1xx_hal_cortex.o
                0x08002e40                HAL_NVIC_SetPriorityGrouping
 .text.HAL_NVIC_SetPriority
                0x08002e64       0x20 /workspaces/hoverboard-firmware-hack-FOC/build/stm32f1xx_hal_cortex.o
                0x08002e64                HAL_NVIC_SetPriority
 .text.HAL_NVIC_EnableIRQ
                0x08002e84       0x18 /workspaces/hoverboard-firmware-hack-FOC/build/stm32f1xx_hal_cortex.o
                0x08002e84                HAL_NVIC_EnableIRQ
 .text.HAL_SYSTICK_Config
                0x08002e9c       0x28 /workspaces/hoverboard-firmware-hack-FOC/build/stm32f1xx_hal_cortex.o
                0x08002e9c                HAL_SYSTICK_Config
 .text.HAL_SYSTICK_CLKSourceConfig
                0x08002ec4       0x20 /workspaces/hoverboard-firmware-hack-FOC/build/stm32f1xx_hal_cortex.o
                0x08002ec4                HAL_SYSTICK_CLKSourceConfig
 .text.HAL_SYSTICK_Callback
                0x08002ee4        0x2 /workspaces/hoverboard-firmware-hack-FOC/build/stm32f1xx_hal_cortex.o
                0x08002ee4                HAL_SYSTICK_Callback
 .text.HAL_SYSTICK_IRQHandler
                0x08002ee6        0x8 /workspaces/hoverboard-firmware-hack-FOC/build/stm32f1xx_hal_cortex.o
                0x08002ee6                HAL_SYSTICK_IRQHandler
 *fill*         0x08002eee        0x2 
 .text.FLASH_MassErase
                0x08002ef0       0x24 /workspaces/hoverboard-firmware-hack-FOC/build/stm32f1xx_hal_flash_ex.o
 .text.FLASH_PageErase
                0x08002f14       0x24 /workspaces/hoverboard-firmware-hack-FOC/build/stm32f1xx_hal_flash_ex.o
                0x08002f14                FLASH_PageErase
 .text.HAL_FLASHEx_Erase
                0x08002f38       0xa4 /workspaces/hoverboard-firmware-hack-FOC/build/stm32f1xx_hal_flash_ex.o
                0x08002f38                HAL_FLASHEx_Erase
 .text.HAL_GPIO_Init
                0x08002fdc      0x238 /workspaces/hoverboard-firmware-hack-FOC/build/stm32f1xx_hal_gpio.o
                0x08002fdc                HAL_GPIO_Init
 .text.HAL_GPIO_ReadPin
                0x08003214        0xe /workspaces/hoverboard-firmware-hack-FOC/build/stm32f1xx_hal_gpio.o
                0x08003214                HAL_GPIO_ReadPin
 .text.HAL_GPIO_WritePin
                0x08003222        0xc /workspaces/hoverboard-firmware-hack-FOC/build/stm32f1xx_hal_gpio.o
                0x08003222                HAL_GPIO_WritePin
 .text.HAL_GPIO_TogglePin
                0x0800322e        0x8 /workspaces/hoverboard-firmware-hack-FOC/build/stm32f1xx_hal_gpio.o
                0x0800322e                HAL_GPIO_TogglePin
 *fill*         0x08003236        0x2 
 .text.HAL_RCCEx_PeriphCLKConfig
                0x08003238      0x118 /workspaces/hoverboard-firmware-hack-FOC/build/stm32f1xx_hal_rcc_ex.o
                0x08003238                HAL_RCCEx_PeriphCLKConfig
 .text.HAL_MspInit
                0x08003350        0x2 /workspaces/hoverboard-firmware-hack-FOC/build/stm32f1xx_hal.o
                0x08003350                HAL_MspInit
 *fill*         0x08003352        0x2 
 .text.HAL_InitTick
                0x08003354       0x2c /workspaces/hoverboard-firmware-hack-FOC/build/stm32f1xx_hal.o
                0x08003354                HAL_InitTick
 .text.HAL_Init
                0x08003380       0x24 /workspaces/hoverboard-firmware-hack-FOC/build/stm32f1xx_hal.o
                0x08003380                HAL_Init
 .text.HAL_IncTick
                0x080033a4       0x10 /workspaces/hoverboard-firmware-hack-FOC/build/stm32f1xx_hal.o
                0x080033a4                HAL_IncTick
 .text.HAL_GetTick
                0x080033b4        0xc /workspaces/hoverboard-firmware-hack-FOC/build/stm32f1xx_hal.o
                0x080033b4                HAL_GetTick
 .text.HAL_Delay
                0x080033c0       0x24 /workspaces/hoverboard-firmware-hack-FOC/build/stm32f1xx_hal.o
                0x080033c0                HAL_Delay
 .text.HAL_ADC_MspInit
                0x080033e4        0x2 /workspaces/hoverboard-firmware-hack-FOC/build/stm32f1xx_hal_adc.o
                0x080033e4                HAL_ADC_MspInit
 *fill*         0x080033e6        0x2 
 .text.HAL_ADC_ConfigChannel
                0x080033e8      0x140 /workspaces/hoverboard-firmware-hack-FOC/build/stm32f1xx_hal_adc.o
                0x080033e8                HAL_ADC_ConfigChannel
 .text.ADC_Enable
                0x08003528       0x80 /workspaces/hoverboard-firmware-hack-FOC/build/stm32f1xx_hal_adc.o
                0x08003528                ADC_Enable
 .text.HAL_ADC_Start
                0x080035a8       0xe8 /workspaces/hoverboard-firmware-hack-FOC/build/stm32f1xx_hal_adc.o
                0x080035a8                HAL_ADC_Start
 .text.ADC_ConversionStop_Disable
                0x08003690       0x4c /workspaces/hoverboard-firmware-hack-FOC/build/stm32f1xx_hal_adc.o
                0x08003690                ADC_ConversionStop_Disable
 .text.HAL_ADC_Init
                0x080036dc      0x124 /workspaces/hoverboard-firmware-hack-FOC/build/stm32f1xx_hal_adc.o
                0x080036dc                HAL_ADC_Init
 .text.UART_EndTxTransfer
                0x08003800       0x12 /workspaces/hoverboard-firmware-hack-FOC/build/stm32f1xx_hal_uart.o
 .text.UART_EndRxTransfer
                0x08003812       0x1c /workspaces/hoverboard-firmware-hack-FOC/build/stm32f1xx_hal_uart.o
 .text.UART_Transmit_IT
                0x0800382e       0x66 /workspaces/hoverboard-firmware-hack-FOC/build/stm32f1xx_hal_uart.o
 .text.UART_SetConfig
                0x08003894      0x1a4 /workspaces/hoverboard-firmware-hack-FOC/build/stm32f1xx_hal_uart.o
 .text.UART_WaitOnFlagUntilTimeout
                0x08003a38       0x68 /workspaces/hoverboard-firmware-hack-FOC/build/stm32f1xx_hal_uart.o
 .text.HAL_UART_Init
                0x08003aa0       0x5e /workspaces/hoverboard-firmware-hack-FOC/build/stm32f1xx_hal_uart.o
                0x08003aa0                HAL_UART_Init
 .text.HAL_UART_Transmit
                0x08003afe       0xde /workspaces/hoverboard-firmware-hack-FOC/build/stm32f1xx_hal_uart.o
                0x08003afe                HAL_UART_Transmit
 .text.HAL_UART_Transmit_DMA
                0x08003bdc       0x8c /workspaces/hoverboard-firmware-hack-FOC/build/stm32f1xx_hal_uart.o
                0x08003bdc                HAL_UART_Transmit_DMA
 .text.HAL_UART_Receive_DMA
                0x08003c68       0xa8 /workspaces/hoverboard-firmware-hack-FOC/build/stm32f1xx_hal_uart.o
                0x08003c68                HAL_UART_Receive_DMA
 .text.HAL_UART_TxCpltCallback
                0x08003d10        0x2 /workspaces/hoverboard-firmware-hack-FOC/build/stm32f1xx_hal_uart.o
                0x08003d10                HAL_UART_TxCpltCallback
 .text.UART_DMATransmitCplt
                0x08003d12       0x30 /workspaces/hoverboard-firmware-hack-FOC/build/stm32f1xx_hal_uart.o
 .text.UART_EndTransmit_IT
                0x08003d42       0x1a /workspaces/hoverboard-firmware-hack-FOC/build/stm32f1xx_hal_uart.o
 .text.HAL_UART_TxHalfCpltCallback
                0x08003d5c        0x2 /workspaces/hoverboard-firmware-hack-FOC/build/stm32f1xx_hal_uart.o
                0x08003d5c                HAL_UART_TxHalfCpltCallback
 .text.UART_DMATxHalfCplt
                0x08003d5e        0xa /workspaces/hoverboard-firmware-hack-FOC/build/stm32f1xx_hal_uart.o
 .text.HAL_UART_RxCpltCallback
                0x08003d68        0x2 /workspaces/hoverboard-firmware-hack-FOC/build/stm32f1xx_hal_uart.o
                0x08003d68                HAL_UART_RxCpltCallback
 .text.UART_DMAReceiveCplt
                0x08003d6a       0x3e /workspaces/hoverboard-firmware-hack-FOC/build/stm32f1xx_hal_uart.o
 .text.UART_Receive_IT
                0x08003da8       0x9e /workspaces/hoverboard-firmware-hack-FOC/build/stm32f1xx_hal_uart.o
 .text.HAL_UART_RxHalfCpltCallback
                0x08003e46        0x2 /workspaces/hoverboard-firmware-hack-FOC/build/stm32f1xx_hal_uart.o
                0x08003e46                HAL_UART_RxHalfCpltCallback
 .text.UART_DMARxHalfCplt
                0x08003e48        0xa /workspaces/hoverboard-firmware-hack-FOC/build/stm32f1xx_hal_uart.o
 .text.HAL_UART_ErrorCallback
                0x08003e52        0x2 /workspaces/hoverboard-firmware-hack-FOC/build/stm32f1xx_hal_uart.o
                0x08003e52                HAL_UART_ErrorCallback
 .text.UART_DMAError
                0x08003e54       0x58 /workspaces/hoverboard-firmware-hack-FOC/build/stm32f1xx_hal_uart.o
 .text.HAL_UART_IRQHandler
                0x08003eac      0x11c /workspaces/hoverboard-firmware-hack-FOC/build/stm32f1xx_hal_uart.o
                0x08003eac                HAL_UART_IRQHandler
 .text.UART_DMAAbortOnError
                0x08003fc8       0x10 /workspaces/hoverboard-firmware-hack-FOC/build/stm32f1xx_hal_uart.o
 .text.DMA_SetConfig
                0x08003fd8       0x2c /workspaces/hoverboard-firmware-hack-FOC/build/stm32f1xx_hal_dma.o
 .text.HAL_DMA_Init
                0x08004004       0x9c /workspaces/hoverboard-firmware-hack-FOC/build/stm32f1xx_hal_dma.o
                0x08004004                HAL_DMA_Init
 .text.HAL_DMA_Start_IT
                0x080040a0       0x74 /workspaces/hoverboard-firmware-hack-FOC/build/stm32f1xx_hal_dma.o
                0x080040a0                HAL_DMA_Start_IT
 .text.HAL_DMA_Abort_IT
                0x08004114      0x168 /workspaces/hoverboard-firmware-hack-FOC/build/stm32f1xx_hal_dma.o
                0x08004114                HAL_DMA_Abort_IT
 .text.HAL_DMA_IRQHandler
                0x0800427c      0x2ec /workspaces/hoverboard-firmware-hack-FOC/build/stm32f1xx_hal_dma.o
                0x0800427c                HAL_DMA_IRQHandler
 .text.SystemInit
                0x08004568       0x4c /workspaces/hoverboard-firmware-hack-FOC/build/system_stm32f1xx.o
                0x08004568                SystemInit
 .text.UART3_Init
                0x080045b4       0x6c /workspaces/hoverboard-firmware-hack-FOC/build/setup.o
                0x080045b4                UART3_Init
 .text.HAL_UART_MspInit
                0x08004620      0x1c8 /workspaces/hoverboard-firmware-hack-FOC/build/setup.o
                0x08004620                HAL_UART_MspInit
 .text.MX_GPIO_Init
                0x080047e8      0x22c /workspaces/hoverboard-firmware-hack-FOC/build/setup.o
                0x080047e8                MX_GPIO_Init
 .text.MX_TIM_Init
                0x08004a14      0x208 /workspaces/hoverboard-firmware-hack-FOC/build/setup.o
                0x08004a14                MX_TIM_Init
 .text.MX_ADC1_Init
                0x08004c1c      0x130 /workspaces/hoverboard-firmware-hack-FOC/build/setup.o
                0x08004c1c                MX_ADC1_Init
 .text.MX_ADC2_Init
                0x08004d4c       0xb0 /workspaces/hoverboard-firmware-hack-FOC/build/setup.o
                0x08004d4c                MX_ADC2_Init
 .text.uart_echo_with_timestamp
                0x08004dfc       0x7c /workspaces/hoverboard-firmware-hack-FOC/build/util.o
                0x08004dfc                uart_echo_with_timestamp
 .text.BLDC_Init
                0x08004e78       0xac /workspaces/hoverboard-firmware-hack-FOC/build/util.o
                0x08004e78                BLDC_Init
 .text.Input_Lim_Init
                0x08004f24       0x44 /workspaces/hoverboard-firmware-hack-FOC/build/util.o
                0x08004f24                Input_Lim_Init
 .text.UART_DisableRxErrors
                0x08004f68       0x16 /workspaces/hoverboard-firmware-hack-FOC/build/util.o
                0x08004f68                UART_DisableRxErrors
 *fill*         0x08004f7e        0x2 
 .text.poweronMelody
                0x08004f80       0x2c /workspaces/hoverboard-firmware-hack-FOC/build/util.o
                0x08004f80                poweronMelody
 .text.beepCount
                0x08004fac       0x1c /workspaces/hoverboard-firmware-hack-FOC/build/util.o
                0x08004fac                beepCount
 .text.beepLong
                0x08004fc8       0x20 /workspaces/hoverboard-firmware-hack-FOC/build/util.o
                0x08004fc8                beepLong
 .text.beepShort
                0x08004fe8       0x20 /workspaces/hoverboard-firmware-hack-FOC/build/util.o
                0x08004fe8                beepShort
 .text.beepShortMany
                0x08005008       0x38 /workspaces/hoverboard-firmware-hack-FOC/build/util.o
                0x08005008                beepShortMany
 .text.calcAvgSpeed
                0x08005040       0x40 /workspaces/hoverboard-firmware-hack-FOC/build/util.o
                0x08005040                calcAvgSpeed
 .text.cruiseControl
                0x08005080        0x2 /workspaces/hoverboard-firmware-hack-FOC/build/util.o
                0x08005080                cruiseControl
 *fill*         0x08005082        0x2 
 .text.checkInputType
                0x08005084       0x70 /workspaces/hoverboard-firmware-hack-FOC/build/util.o
                0x08005084                checkInputType
 .text.Input_Init
                0x080050f4      0x240 /workspaces/hoverboard-firmware-hack-FOC/build/util.o
                0x080050f4                Input_Init
 .text.calcInputCmd
                0x08005334       0xaa /workspaces/hoverboard-firmware-hack-FOC/build/util.o
                0x08005334                calcInputCmd
 *fill*         0x080053de        0x2 
 .text.readInputRaw
                0x080053e0       0x60 /workspaces/hoverboard-firmware-hack-FOC/build/util.o
                0x080053e0                readInputRaw
 .text.handleTimeout
                0x08005440      0x144 /workspaces/hoverboard-firmware-hack-FOC/build/util.o
                0x08005440                handleTimeout
 .text.readCommand
                0x08005584       0x98 /workspaces/hoverboard-firmware-hack-FOC/build/util.o
                0x08005584                readCommand
 .text.usart_process_sideboard
                0x0800561c       0x7c /workspaces/hoverboard-firmware-hack-FOC/build/util.o
                0x0800561c                usart_process_sideboard
 .text.usart3_rx_check
                0x08005698       0xdc /workspaces/hoverboard-firmware-hack-FOC/build/util.o
                0x08005698                usart3_rx_check
 .text.sideboardLeds
                0x08005774      0x19c /workspaces/hoverboard-firmware-hack-FOC/build/util.o
                0x08005774                sideboardLeds
 .text.sideboardSensors
                0x08005910      0x1d0 /workspaces/hoverboard-firmware-hack-FOC/build/util.o
                0x08005910                sideboardSensors
 .text.saveConfig
                0x08005ae0      0x100 /workspaces/hoverboard-firmware-hack-FOC/build/util.o
                0x08005ae0                saveConfig
 .text.poweroff
                0x08005be0       0x48 /workspaces/hoverboard-firmware-hack-FOC/build/util.o
                0x08005be0                poweroff
 .text.filtLowPass32
                0x08005c28       0x46 /workspaces/hoverboard-firmware-hack-FOC/build/util.o
                0x08005c28                filtLowPass32
 *fill*         0x08005c6e        0x2 
 .text.adcCalibLim
                0x08005c70      0x180 /workspaces/hoverboard-firmware-hack-FOC/build/util.o
                0x08005c70                adcCalibLim
 .text.updateCurSpdLim
                0x08005df0      0x170 /workspaces/hoverboard-firmware-hack-FOC/build/util.o
                0x08005df0                updateCurSpdLim
 .text.poweroffPressCheck
                0x08005f60       0xa0 /workspaces/hoverboard-firmware-hack-FOC/build/util.o
                0x08005f60                poweroffPressCheck
 .text.rateLimiter16
                0x08006000       0x1e /workspaces/hoverboard-firmware-hack-FOC/build/util.o
                0x08006000                rateLimiter16
 *fill*         0x0800601e        0x2 
 .text.mixerFcn
                0x08006020       0x7c /workspaces/hoverboard-firmware-hack-FOC/build/util.o
                0x08006020                mixerFcn
 .text.multipleTapDet
                0x0800609c       0x76 /workspaces/hoverboard-firmware-hack-FOC/build/util.o
                0x0800609c                multipleTapDet
 *fill*         0x08006112        0x2 
 .text.SystemClock_Config
                0x08006114       0x74 /workspaces/hoverboard-firmware-hack-FOC/build/main.o
                0x08006114                SystemClock_Config
 .text.main     0x08006188      0x7c8 /workspaces/hoverboard-firmware-hack-FOC/build/main.o
                0x08006188                main
 .text.DMA1_Channel1_IRQHandler
                0x08006950      0x504 /workspaces/hoverboard-firmware-hack-FOC/build/bldc.o
                0x08006950                DMA1_Channel1_IRQHandler
 .text.EE_VerifyPageFullyErased
                0x08006e54       0x24 /workspaces/hoverboard-firmware-hack-FOC/build/eeprom.o
 .text.EE_FindValidPage
                0x08006e78       0x50 /workspaces/hoverboard-firmware-hack-FOC/build/eeprom.o
 .text.EE_VerifyPageFullWriteVariable
                0x08006ec8       0x54 /workspaces/hoverboard-firmware-hack-FOC/build/eeprom.o
 .text.EE_Format
                0x08006f1c       0x60 /workspaces/hoverboard-firmware-hack-FOC/build/eeprom.o
 .text.EE_ReadVariable
                0x08006f7c       0x48 /workspaces/hoverboard-firmware-hack-FOC/build/eeprom.o
                0x08006f7c                EE_ReadVariable
 .text.EE_Init  0x08006fc4      0x250 /workspaces/hoverboard-firmware-hack-FOC/build/eeprom.o
                0x08006fc4                EE_Init
 .text.EE_PageTransfer
                0x08007214       0xc4 /workspaces/hoverboard-firmware-hack-FOC/build/eeprom.o
 .text.EE_WriteVariable
                0x080072d8       0x1a /workspaces/hoverboard-firmware-hack-FOC/build/eeprom.o
                0x080072d8                EE_WriteVariable
 .text.NMI_Handler
                0x080072f2        0x2 /workspaces/hoverboard-firmware-hack-FOC/build/stm32f1xx_it.o
                0x080072f2                NMI_Handler
 .text.HardFault_Handler
                0x080072f4        0x2 /workspaces/hoverboard-firmware-hack-FOC/build/stm32f1xx_it.o
                0x080072f4                HardFault_Handler
 .text.MemManage_Handler
                0x080072f6        0x2 /workspaces/hoverboard-firmware-hack-FOC/build/stm32f1xx_it.o
                0x080072f6                MemManage_Handler
 .text.BusFault_Handler
                0x080072f8        0x2 /workspaces/hoverboard-firmware-hack-FOC/build/stm32f1xx_it.o
                0x080072f8                BusFault_Handler
 .text.UsageFault_Handler
                0x080072fa        0x2 /workspaces/hoverboard-firmware-hack-FOC/build/stm32f1xx_it.o
                0x080072fa                UsageFault_Handler
 .text.SVC_Handler
                0x080072fc        0x2 /workspaces/hoverboard-firmware-hack-FOC/build/stm32f1xx_it.o
                0x080072fc                SVC_Handler
 .text.DebugMon_Handler
                0x080072fe        0x2 /workspaces/hoverboard-firmware-hack-FOC/build/stm32f1xx_it.o
                0x080072fe                DebugMon_Handler
 .text.PendSV_Handler
                0x08007300        0x2 /workspaces/hoverboard-firmware-hack-FOC/build/stm32f1xx_it.o
                0x08007300                PendSV_Handler
 .text.SysTick_Handler
                0x08007302        0xc /workspaces/hoverboard-firmware-hack-FOC/build/stm32f1xx_it.o
                0x08007302                SysTick_Handler
 *fill*         0x0800730e        0x2 
 .text.DMA1_Channel2_IRQHandler
                0x08007310       0x10 /workspaces/hoverboard-firmware-hack-FOC/build/stm32f1xx_it.o
                0x08007310                DMA1_Channel2_IRQHandler
 .text.DMA1_Channel3_IRQHandler
                0x08007320       0x10 /workspaces/hoverboard-firmware-hack-FOC/build/stm32f1xx_it.o
                0x08007320                DMA1_Channel3_IRQHandler
 .text.USART3_IRQHandler
                0x08007330       0x34 /workspaces/hoverboard-firmware-hack-FOC/build/stm32f1xx_it.o
                0x08007330                USART3_IRQHandler
 .text.plook_u8s16_evencka
                0x08007364       0x1c /workspaces/hoverboard-firmware-hack-FOC/build/BLDC_controller.o
                0x08007364                plook_u8s16_evencka
 .text.plook_u8u16_evencka
                0x08007380       0x1c /workspaces/hoverboard-firmware-hack-FOC/build/BLDC_controller.o
                0x08007380                plook_u8u16_evencka
 .text.div_nde_s32_floor
                0x0800739c       0x22 /workspaces/hoverboard-firmware-hack-FOC/build/BLDC_controller.o
                0x0800739c                div_nde_s32_floor
 .text.Counter_Init
                0x080073be        0x4 /workspaces/hoverboard-firmware-hack-FOC/build/BLDC_controller.o
                0x080073be                Counter_Init
 .text.Counter  0x080073c2       0x1a /workspaces/hoverboard-firmware-hack-FOC/build/BLDC_controller.o
                0x080073c2                Counter
 .text.Low_Pass_Filter_Reset
                0x080073dc        0x8 /workspaces/hoverboard-firmware-hack-FOC/build/BLDC_controller.o
                0x080073dc                Low_Pass_Filter_Reset
 .text.Low_Pass_Filter
                0x080073e4       0x5c /workspaces/hoverboard-firmware-hack-FOC/build/BLDC_controller.o
                0x080073e4                Low_Pass_Filter
 .text.Counter_b_Init
                0x08007440        0x4 /workspaces/hoverboard-firmware-hack-FOC/build/BLDC_controller.o
                0x08007440                Counter_b_Init
 .text.Counter_n
                0x08007444       0x20 /workspaces/hoverboard-firmware-hack-FOC/build/BLDC_controller.o
                0x08007444                Counter_n
 .text.either_edge
                0x08007464        0xe /workspaces/hoverboard-firmware-hack-FOC/build/BLDC_controller.o
                0x08007464                either_edge
 .text.Debounce_Filter_Init
                0x08007472       0x16 /workspaces/hoverboard-firmware-hack-FOC/build/BLDC_controller.o
                0x08007472                Debounce_Filter_Init
 .text.Debounce_Filter
                0x08007488       0x8c /workspaces/hoverboard-firmware-hack-FOC/build/BLDC_controller.o
                0x08007488                Debounce_Filter
 .text.I_backCalc_fixdt_Init
                0x08007514        0x4 /workspaces/hoverboard-firmware-hack-FOC/build/BLDC_controller.o
                0x08007514                I_backCalc_fixdt_Init
 .text.I_backCalc_fixdt_Reset
                0x08007518        0x8 /workspaces/hoverboard-firmware-hack-FOC/build/BLDC_controller.o
                0x08007518                I_backCalc_fixdt_Reset
 .text.I_backCalc_fixdt
                0x08007520       0x72 /workspaces/hoverboard-firmware-hack-FOC/build/BLDC_controller.o
                0x08007520                I_backCalc_fixdt
 .text.PI_clamp_fixdt_Init
                0x08007592        0x6 /workspaces/hoverboard-firmware-hack-FOC/build/BLDC_controller.o
                0x08007592                PI_clamp_fixdt_Init
 .text.PI_clamp_fixdt_Reset
                0x08007598        0xa /workspaces/hoverboard-firmware-hack-FOC/build/BLDC_controller.o
                0x08007598                PI_clamp_fixdt_Reset
 *fill*         0x080075a2        0x2 
 .text.PI_clamp_fixdt
                0x080075a4       0xf4 /workspaces/hoverboard-firmware-hack-FOC/build/BLDC_controller.o
                0x080075a4                PI_clamp_fixdt
 .text.PI_clamp_fixdt_d_Init
                0x08007698        0x6 /workspaces/hoverboard-firmware-hack-FOC/build/BLDC_controller.o
                0x08007698                PI_clamp_fixdt_d_Init
 .text.PI_clamp_fixdt_b_Reset
                0x0800769e        0xa /workspaces/hoverboard-firmware-hack-FOC/build/BLDC_controller.o
                0x0800769e                PI_clamp_fixdt_b_Reset
 .text.PI_clamp_fixdt_l
                0x080076a8       0xf8 /workspaces/hoverboard-firmware-hack-FOC/build/BLDC_controller.o
                0x080076a8                PI_clamp_fixdt_l
 .text.PI_clamp_fixdt_f_Init
                0x080077a0        0x6 /workspaces/hoverboard-firmware-hack-FOC/build/BLDC_controller.o
                0x080077a0                PI_clamp_fixdt_f_Init
 .text.PI_clamp_fixdt_g_Reset
                0x080077a6        0xa /workspaces/hoverboard-firmware-hack-FOC/build/BLDC_controller.o
                0x080077a6                PI_clamp_fixdt_g_Reset
 .text.PI_clamp_fixdt_k
                0x080077b0      0x108 /workspaces/hoverboard-firmware-hack-FOC/build/BLDC_controller.o
                0x080077b0                PI_clamp_fixdt_k
 .text.BLDC_controller_step
                0x080078b8     0x11ac /workspaces/hoverboard-firmware-hack-FOC/build/BLDC_controller.o
                0x080078b8                BLDC_controller_step
 .text.BLDC_controller_initialize
                0x08008a64       0xc0 /workspaces/hoverboard-firmware-hack-FOC/build/BLDC_controller.o
                0x08008a64                BLDC_controller_initialize
 .text.Reset_Handler
                0x08008b24       0x48 /workspaces/hoverboard-firmware-hack-FOC/build/startup_stm32f103xe.o
                0x08008b24                Reset_Handler
 .text.Default_Handler
                0x08008b6c        0x2 /workspaces/hoverboard-firmware-hack-FOC/build/startup_stm32f103xe.o
                0x08008b6c                RTC_Alarm_IRQHandler
                0x08008b6c                EXTI2_IRQHandler
                0x08008b6c                TIM8_TRG_COM_IRQHandler
                0x08008b6c                TIM8_CC_IRQHandler
                0x08008b6c                TIM1_CC_IRQHandler
                0x08008b6c                TIM6_IRQHandler
                0x08008b6c                PVD_IRQHandler
                0x08008b6c                SDIO_IRQHandler
                0x08008b6c                EXTI3_IRQHandler
                0x08008b6c                EXTI0_IRQHandler
                0x08008b6c                I2C2_EV_IRQHandler
                0x08008b6c                ADC1_2_IRQHandler
                0x08008b6c                SPI1_IRQHandler
                0x08008b6c                TAMPER_IRQHandler
                0x08008b6c                TIM8_UP_IRQHandler
                0x08008b6c                DMA2_Channel2_IRQHandler
                0x08008b6c                DMA1_Channel4_IRQHandler
                0x08008b6c                RTC_IRQHandler
                0x08008b6c                DMA1_Channel7_IRQHandler
                0x08008b6c                CAN1_RX1_IRQHandler
                0x08008b6c                UART5_IRQHandler
                0x08008b6c                ADC3_IRQHandler
                0x08008b6c                TIM4_IRQHandler
                0x08008b6c                DMA2_Channel1_IRQHandler
                0x08008b6c                I2C1_EV_IRQHandler
                0x08008b6c                DMA1_Channel6_IRQHandler
                0x08008b6c                UART4_IRQHandler
                0x08008b6c                TIM3_IRQHandler
                0x08008b6c                RCC_IRQHandler
                0x08008b6c                TIM1_TRG_COM_IRQHandler
                0x08008b6c                Default_Handler
                0x08008b6c                EXTI15_10_IRQHandler
                0x08008b6c                TIM7_IRQHandler
                0x08008b6c                TIM5_IRQHandler
                0x08008b6c                EXTI9_5_IRQHandler
                0x08008b6c                SPI2_IRQHandler
                0x08008b6c                DMA1_Channel5_IRQHandler
                0x08008b6c                EXTI4_IRQHandler
                0x08008b6c                USB_LP_CAN1_RX0_IRQHandler
                0x08008b6c                USB_HP_CAN1_TX_IRQHandler
                0x08008b6c                FSMC_IRQHandler
                0x08008b6c                TIM1_UP_IRQHandler
                0x08008b6c                WWDG_IRQHandler
                0x08008b6c                TIM2_IRQHandler
                0x08008b6c                TIM1_BRK_IRQHandler
                0x08008b6c                EXTI1_IRQHandler
                0x08008b6c                DMA2_Channel4_5_IRQHandler
                0x08008b6c                USART2_IRQHandler
                0x08008b6c                I2C2_ER_IRQHandler
                0x08008b6c                TIM8_BRK_IRQHandler
                0x08008b6c                CAN1_SCE_IRQHandler
                0x08008b6c                FLASH_IRQHandler
                0x08008b6c                USART1_IRQHandler
                0x08008b6c                SPI3_IRQHandler
                0x08008b6c                I2C1_ER_IRQHandler
                0x08008b6c                USBWakeUp_IRQHandler
                0x08008b6c                DMA2_Channel3_IRQHandler
 *(.glue_7)
 .glue_7        0x08008b6e        0x0 linker stubs
 *(.glue_7t)
 .glue_7t       0x08008b6e        0x0 linker stubs
 *(.eh_frame)
 *fill*         0x08008b6e        0x2 
 .eh_frame      0x08008b70        0x0 /usr/lib/gcc/arm-none-eabi/13.2.1/thumb/v7-m/nofp/crtbegin.o
 *(.init)
 .init          0x08008b70        0x4 /usr/lib/gcc/arm-none-eabi/13.2.1/thumb/v7-m/nofp/crti.o
                0x08008b70                _init
 .init          0x08008b74        0x8 /usr/lib/gcc/arm-none-eabi/13.2.1/thumb/v7-m/nofp/crtn.o
 *(.fini)
 .fini          0x08008b7c        0x4 /usr/lib/gcc/arm-none-eabi/13.2.1/thumb/v7-m/nofp/crti.o
                0x08008b7c                _fini
 .fini          0x08008b80        0x8 /usr/lib/gcc/arm-none-eabi/13.2.1/thumb/v7-m/nofp/crtn.o
                0x08008b88                        . = ALIGN (0x4)
                0x08008b88                        _etext = .

.vfp11_veneer   0x08008b88        0x0
 .vfp11_veneer  0x08008b88        0x0 linker stubs

.v4_bx          0x08008b88        0x0
 .v4_bx         0x08008b88        0x0 linker stubs

.iplt           0x08008b88        0x0
 .iplt          0x08008b88        0x0 /usr/lib/gcc/arm-none-eabi/13.2.1/thumb/v7-m/nofp/crtbegin.o

.rodata         0x08008b88      0x8a8
                0x08008b88                        . = ALIGN (0x4)
 *(.rodata)
 *(.rodata*)
 .rodata.HAL_RCC_GetSysClockFreq.str1.4
                0x08008b88       0xf5 /workspaces/hoverboard-firmware-hack-FOC/build/stm32f1xx_hal_rcc.o
                                 0x11 (size before relaxing)
 *fill*         0x08008c7d        0x3 
 .rodata.APBPrescTable
                0x08008c80        0x8 /workspaces/hoverboard-firmware-hack-FOC/build/system_stm32f1xx.o
                0x08008c80                APBPrescTable
 .rodata.AHBPrescTable
                0x08008c88       0x10 /workspaces/hoverboard-firmware-hack-FOC/build/system_stm32f1xx.o
                0x08008c88                AHBPrescTable
 .rodata.uart_echo_with_timestamp.str1.4
                0x08008c98       0x17 /workspaces/hoverboard-firmware-hack-FOC/build/util.o
 .rodata.Input_Init.str1.4
                0x08008c98       0x59 /workspaces/hoverboard-firmware-hack-FOC/build/util.o
 .rodata.rtM_Right
                0x08008c98        0x4 /workspaces/hoverboard-firmware-hack-FOC/build/util.o
                0x08008c98                rtM_Right
 .rodata.rtM_Left
                0x08008c9c        0x4 /workspaces/hoverboard-firmware-hack-FOC/build/util.o
                0x08008c9c                rtM_Left
 .rodata.main.str1.4
                0x08008ca0       0x34 /workspaces/hoverboard-firmware-hack-FOC/build/main.o
 .rodata.rtConstP
                0x08008ca0      0x790 /workspaces/hoverboard-firmware-hack-FOC/build/BLDC_controller_data.o
                0x08008ca0                rtConstP
 .rodata.str1.4
                0x08009430       0x13 /usr/lib/gcc/arm-none-eabi/13.2.1/../../../arm-none-eabi/lib/thumb/v7-m/nofp/libc_nano.a(libc_a-nano-vfprintf.o)
 .rodata.str1.4
                0x08009430       0x13 /usr/lib/gcc/arm-none-eabi/13.2.1/../../../arm-none-eabi/lib/thumb/v7-m/nofp/libc_nano.a(libc_a-nano-svfprintf.o)
 .rodata.str1.4
                0x08009430       0x25 /usr/lib/gcc/arm-none-eabi/13.2.1/../../../arm-none-eabi/lib/thumb/v7-m/nofp/libc_nano.a(libc_a-nano-vfprintf_i.o)
                0x08009458                        . = ALIGN (0x4)

.ARM.extab
 *(.ARM.extab* .gnu.linkonce.armextab.*)

.ARM            0x08009430        0x8
                0x08009430                        __exidx_start = .
 *(.ARM.exidx*)
 .ARM.exidx     0x08009430        0x8 /usr/lib/gcc/arm-none-eabi/13.2.1/../../../arm-none-eabi/lib/thumb/v7-m/nofp/libc_nano.a(libc_a-memcpy.o)
                0x08009438                        __exidx_end = .

.rel.dyn        0x08009438        0x0
 .rel.iplt      0x08009438        0x0 /usr/lib/gcc/arm-none-eabi/13.2.1/thumb/v7-m/nofp/crtbegin.o

.preinit_array  0x08009438        0x0
                0x08009438                        PROVIDE (__preinit_array_start = .)
 *(.preinit_array*)
                0x08009438                        PROVIDE (__preinit_array_end = .)

.init_array     0x08009438        0x4
                0x08009438                        PROVIDE (__init_array_start = .)
 *(SORT_BY_NAME(.init_array.*))
 *(.init_array*)
 .init_array    0x08009438        0x4 /usr/lib/gcc/arm-none-eabi/13.2.1/thumb/v7-m/nofp/crtbegin.o
                0x0800943c                        PROVIDE (__init_array_end = .)

.fini_array     0x0800943c        0x4
                0x0800943c                        PROVIDE (__fini_array_start = .)
 *(SORT_BY_NAME(.fini_array.*))
 *(.fini_array*)
 .fini_array    0x0800943c        0x4 /usr/lib/gcc/arm-none-eabi/13.2.1/thumb/v7-m/nofp/crtbegin.o
                0x08009440                        PROVIDE (__fini_array_end = .)
                0x08009440                        _sidata = LOADADDR (.data)

.data           0x20000000      0x1e4 load address 0x08009440
                0x20000000                        . = ALIGN (0x4)
                0x20000000                        _sdata = .
 *(.data)
 .data          0x20000000       0x50 /usr/lib/gcc/arm-none-eabi/13.2.1/../../../arm-none-eabi/lib/thumb/v7-m/nofp/libc_nano.a(libc_a-impure.o)
                0x20000000                _impure_ptr
                0x20000004                _impure_data
 .data          0x20000050        0xc /usr/lib/gcc/arm-none-eabi/13.2.1/../../../arm-none-eabi/lib/thumb/v7-m/nofp/libc_nano.a(libc_a-findfp.o)
                0x20000050                __sglue
 *(.data*)
 .data.SystemCoreClock
                0x2000005c        0x4 /workspaces/hoverboard-firmware-hack-FOC/build/system_stm32f1xx.o
                0x2000005c                SystemCoreClock
 .data.sensor2_index.1
                0x20000060        0x1 /workspaces/hoverboard-firmware-hack-FOC/build/util.o
 *fill*         0x20000061        0x1 
 .data.timeoutCntSerial_R
                0x20000062        0x2 /workspaces/hoverboard-firmware-hack-FOC/build/util.o
 .data.timeoutCntADC
                0x20000064        0x2 /workspaces/hoverboard-firmware-hack-FOC/build/util.o
 *fill*         0x20000066        0x2 
 .data.VirtAddVarTab
                0x20000068       0x26 /workspaces/hoverboard-firmware-hack-FOC/build/util.o
                0x20000068                VirtAddVarTab
 .data.ctrlModReq
                0x2000008e        0x1 /workspaces/hoverboard-firmware-hack-FOC/build/util.o
                0x2000008e                ctrlModReq
 .data.ctrlModReqRaw
                0x2000008f        0x1 /workspaces/hoverboard-firmware-hack-FOC/build/util.o
                0x2000008f                ctrlModReqRaw
 .data.uartEchoMode
                0x20000090        0x1 /workspaces/hoverboard-firmware-hack-FOC/build/util.o
                0x20000090                uartEchoMode
 *fill*         0x20000091        0x3 
 .data.input2   0x20000094       0x1c /workspaces/hoverboard-firmware-hack-FOC/build/util.o
                0x20000094                input2
 .data.input1   0x200000b0       0x1c /workspaces/hoverboard-firmware-hack-FOC/build/util.o
                0x200000b0                input1
 .data.rate     0x200000cc        0x2 /workspaces/hoverboard-firmware-hack-FOC/build/main.o
 *fill*         0x200000ce        0x2 
 .data.batVoltageFixdt
                0x200000d0        0x4 /workspaces/hoverboard-firmware-hack-FOC/build/bldc.o
 .data.batVoltage
                0x200000d4        0x2 /workspaces/hoverboard-firmware-hack-FOC/build/bldc.o
                0x200000d4                batVoltage
 .data.offsetdcr
                0x200000d6        0x2 /workspaces/hoverboard-firmware-hack-FOC/build/bldc.o
 .data.offsetdcl
                0x200000d8        0x2 /workspaces/hoverboard-firmware-hack-FOC/build/bldc.o
 .data.offsetrrC
                0x200000da        0x2 /workspaces/hoverboard-firmware-hack-FOC/build/bldc.o
 .data.offsetrrB
                0x200000dc        0x2 /workspaces/hoverboard-firmware-hack-FOC/build/bldc.o
 .data.offsetrlB
                0x200000de        0x2 /workspaces/hoverboard-firmware-hack-FOC/build/bldc.o
 .data.offsetrlA
                0x200000e0        0x2 /workspaces/hoverboard-firmware-hack-FOC/build/bldc.o
 *fill*         0x200000e2        0x2 
 .data.rtP_Left
                0x200000e4      0x100 /workspaces/hoverboard-firmware-hack-FOC/build/BLDC_controller_data.o
                0x200000e4                rtP_Left
                0x200001e4                        . = ALIGN (0x4)
                0x200001e4                        _edata = .

.tm_clone_table
                0x200001e4        0x0 load address 0x08009624
 .tm_clone_table
                0x200001e4        0x0 /usr/lib/gcc/arm-none-eabi/13.2.1/thumb/v7-m/nofp/crtbegin.o
 .tm_clone_table
                0x200001e4        0x0 /usr/lib/gcc/arm-none-eabi/13.2.1/thumb/v7-m/nofp/crtend.o

.igot.plt       0x200001e4        0x0 load address 0x08009624
 .igot.plt      0x200001e4        0x0 /usr/lib/gcc/arm-none-eabi/13.2.1/thumb/v7-m/nofp/crtbegin.o
                0x200001e4                        . = ALIGN (0x4)

.bss            0x200001e8      0x778 load address 0x08009624
                0x200001e8                        _sbss = .
                0x200001e8                        __bss_start__ = _sbss
 *(.bss)
 .bss           0x200001e8       0x1c /usr/lib/gcc/arm-none-eabi/13.2.1/thumb/v7-m/nofp/crtbegin.o
 .bss           0x20000204      0x13c /usr/lib/gcc/arm-none-eabi/13.2.1/../../../arm-none-eabi/lib/thumb/v7-m/nofp/libc_nano.a(libc_a-findfp.o)
                0x20000204                __sf
                0x2000033c                __stdio_exit_handler
 .bss           0x20000340        0x8 /usr/lib/gcc/arm-none-eabi/13.2.1/../../../arm-none-eabi/lib/thumb/v7-m/nofp/libc_nano.a(libc_a-mallocr.o)
                0x20000340                __malloc_sbrk_start
                0x20000344                __malloc_free_list
 .bss           0x20000348        0x4 /usr/lib/gcc/arm-none-eabi/13.2.1/../../../arm-none-eabi/lib/thumb/v7-m/nofp/libc_nano.a(libc_a-reent.o)
                0x20000348                errno
 .bss           0x2000034c        0x4 /usr/lib/gcc/arm-none-eabi/13.2.1/../../../arm-none-eabi/lib/thumb/v7-m/nofp/libnosys.a(sbrk.o)
 *(.bss*)
 .bss.pFlash    0x20000350       0x20 /workspaces/hoverboard-firmware-hack-FOC/build/stm32f1xx_hal_flash.o
                0x20000350                pFlash
 .bss.uwTick    0x20000370        0x4 /workspaces/hoverboard-firmware-hack-FOC/build/stm32f1xx_hal.o
                0x20000370                uwTick
 .bss.adc_buffer
                0x20000374       0x14 /workspaces/hoverboard-firmware-hack-FOC/build/setup.o
                0x20000374                adc_buffer
 .bss.hdma_usart3_tx
                0x20000388       0x44 /workspaces/hoverboard-firmware-hack-FOC/build/setup.o
                0x20000388                hdma_usart3_tx
 .bss.hdma_usart3_rx
                0x200003cc       0x44 /workspaces/hoverboard-firmware-hack-FOC/build/setup.o
                0x200003cc                hdma_usart3_rx
 .bss.hdma_usart2_tx
                0x20000410       0x44 /workspaces/hoverboard-firmware-hack-FOC/build/setup.o
                0x20000410                hdma_usart2_tx
 .bss.hdma_usart2_rx
                0x20000454       0x44 /workspaces/hoverboard-firmware-hack-FOC/build/setup.o
                0x20000454                hdma_usart2_rx
 .bss.huart3    0x20000498       0x40 /workspaces/hoverboard-firmware-hack-FOC/build/setup.o
                0x20000498                huart3
 .bss.hadc2     0x200004d8       0x30 /workspaces/hoverboard-firmware-hack-FOC/build/setup.o
                0x200004d8                hadc2
 .bss.hadc1     0x20000508       0x30 /workspaces/hoverboard-firmware-hack-FOC/build/setup.o
                0x20000508                hadc1
 .bss.htim_left
                0x20000538       0x40 /workspaces/hoverboard-firmware-hack-FOC/build/setup.o
                0x20000538                htim_left
 .bss.htim_right
                0x20000578       0x40 /workspaces/hoverboard-firmware-hack-FOC/build/setup.o
                0x20000578                htim_right
 .bss.timeoutFlgGen
                0x200005b8        0x1 /workspaces/hoverboard-firmware-hack-FOC/build/control.o
                0x200005b8                timeoutFlgGen
 .bss.sensor2_prev.0
                0x200005b9        0x1 /workspaces/hoverboard-firmware-hack-FOC/build/util.o
 .bss.sensor1_prev.2
                0x200005ba        0x1 /workspaces/hoverboard-firmware-hack-FOC/build/util.o
 .bss.sensor1_index.3
                0x200005bb        0x1 /workspaces/hoverboard-firmware-hack-FOC/build/util.o
 .bss.old_pos.4
                0x200005bc        0x4 /workspaces/hoverboard-firmware-hack-FOC/build/util.o
 .bss.brakePressed
                0x200005c0        0x1 /workspaces/hoverboard-firmware-hack-FOC/build/util.o
 *fill*         0x200005c1        0x3 
 .bss.Sideboard_R_raw
                0x200005c4        0xe /workspaces/hoverboard-firmware-hack-FOC/build/util.o
                0x200005c4                Sideboard_R_raw
 *fill*         0x200005d2        0x2 
 .bss.Sideboard_R
                0x200005d4        0xe /workspaces/hoverboard-firmware-hack-FOC/build/util.o
                0x200005d4                Sideboard_R
 .bss.timeoutFlgSerial_R
                0x200005e2        0x1 /workspaces/hoverboard-firmware-hack-FOC/build/util.o
 *fill*         0x200005e3        0x1 
 .bss.rx_buffer_R
                0x200005e4       0x40 /workspaces/hoverboard-firmware-hack-FOC/build/util.o
 .bss.inp_cal_valid
                0x20000624        0x1 /workspaces/hoverboard-firmware-hack-FOC/build/util.o
 .bss.cur_spd_valid
                0x20000625        0x1 /workspaces/hoverboard-firmware-hack-FOC/build/util.o
 .bss.INPUT_MIN
                0x20000626        0x2 /workspaces/hoverboard-firmware-hack-FOC/build/util.o
 .bss.INPUT_MAX
                0x20000628        0x2 /workspaces/hoverboard-firmware-hack-FOC/build/util.o
 .bss.feedbackSerialEnabled
                0x2000062a        0x1 /workspaces/hoverboard-firmware-hack-FOC/build/util.o
                0x2000062a                feedbackSerialEnabled
 .bss.timeoutFlgSerial
                0x2000062b        0x1 /workspaces/hoverboard-firmware-hack-FOC/build/util.o
                0x2000062b                timeoutFlgSerial
 .bss.timeoutFlgADC
                0x2000062c        0x1 /workspaces/hoverboard-firmware-hack-FOC/build/util.o
                0x2000062c                timeoutFlgADC
 *fill*         0x2000062d        0x1 
 .bss.speedAvgAbs
                0x2000062e        0x2 /workspaces/hoverboard-firmware-hack-FOC/build/util.o
                0x2000062e                speedAvgAbs
 .bss.speedAvg  0x20000630        0x2 /workspaces/hoverboard-firmware-hack-FOC/build/util.o
                0x20000630                speedAvg
 .bss.inIdx_prev
                0x20000632        0x1 /workspaces/hoverboard-firmware-hack-FOC/build/util.o
                0x20000632                inIdx_prev
 .bss.inIdx     0x20000633        0x1 /workspaces/hoverboard-firmware-hack-FOC/build/util.o
                0x20000633                inIdx
 .bss.rtY_Right
                0x20000634       0x10 /workspaces/hoverboard-firmware-hack-FOC/build/util.o
                0x20000634                rtY_Right
 .bss.rtU_Right
                0x20000644       0x10 /workspaces/hoverboard-firmware-hack-FOC/build/util.o
                0x20000644                rtU_Right
 .bss.rtDW_Right
                0x20000654       0xac /workspaces/hoverboard-firmware-hack-FOC/build/util.o
                0x20000654                rtDW_Right
 .bss.rtP_Right
                0x20000700      0x100 /workspaces/hoverboard-firmware-hack-FOC/build/util.o
                0x20000700                rtP_Right
 .bss.rtY_Left  0x20000800       0x10 /workspaces/hoverboard-firmware-hack-FOC/build/util.o
                0x20000800                rtY_Left
 .bss.rtU_Left  0x20000810       0x10 /workspaces/hoverboard-firmware-hack-FOC/build/util.o
                0x20000810                rtU_Left
 .bss.rtDW_Left
                0x20000820       0xac /workspaces/hoverboard-firmware-hack-FOC/build/util.o
                0x20000820                rtDW_Left
 .bss.rtM_Right_
                0x200008cc       0x10 /workspaces/hoverboard-firmware-hack-FOC/build/util.o
                0x200008cc                rtM_Right_
 .bss.rtM_Left_
                0x200008dc       0x10 /workspaces/hoverboard-firmware-hack-FOC/build/util.o
                0x200008dc                rtM_Left_
 .bss.max_speed
                0x200008ec        0x2 /workspaces/hoverboard-firmware-hack-FOC/build/main.o
 .bss.drive_mode
                0x200008ee        0x1 /workspaces/hoverboard-firmware-hack-FOC/build/main.o
 *fill*         0x200008ef        0x1 
 .bss.MultipleTapBrake
                0x200008f0        0x8 /workspaces/hoverboard-firmware-hack-FOC/build/main.o
 .bss.inactivity_timeout_counter
                0x200008f8        0x4 /workspaces/hoverboard-firmware-hack-FOC/build/main.o
 .bss.buzzerTimer_prev
                0x200008fc        0x4 /workspaces/hoverboard-firmware-hack-FOC/build/main.o
 .bss.speedFixdt
                0x20000900        0x4 /workspaces/hoverboard-firmware-hack-FOC/build/main.o
 .bss.steerFixdt
                0x20000904        0x4 /workspaces/hoverboard-firmware-hack-FOC/build/main.o
 .bss.speedRateFixdt
                0x20000908        0x2 /workspaces/hoverboard-firmware-hack-FOC/build/main.o
 .bss.steerRateFixdt
                0x2000090a        0x2 /workspaces/hoverboard-firmware-hack-FOC/build/main.o
 .bss.steer     0x2000090c        0x2 /workspaces/hoverboard-firmware-hack-FOC/build/main.o
 .bss.speed     0x2000090e        0x2 /workspaces/hoverboard-firmware-hack-FOC/build/main.o
 .bss.sideboard_leds_R
                0x20000910        0x1 /workspaces/hoverboard-firmware-hack-FOC/build/main.o
 *fill*         0x20000911        0x3 
 .bss.Feedback  0x20000914       0x12 /workspaces/hoverboard-firmware-hack-FOC/build/main.o
 .bss.cmdR      0x20000926        0x2 /workspaces/hoverboard-firmware-hack-FOC/build/main.o
                0x20000926                cmdR
 .bss.cmdL      0x20000928        0x2 /workspaces/hoverboard-firmware-hack-FOC/build/main.o
                0x20000928                cmdL
 .bss.dc_curr   0x2000092a        0x2 /workspaces/hoverboard-firmware-hack-FOC/build/main.o
                0x2000092a                dc_curr
 .bss.right_dc_curr
                0x2000092c        0x2 /workspaces/hoverboard-firmware-hack-FOC/build/main.o
                0x2000092c                right_dc_curr
 .bss.left_dc_curr
                0x2000092e        0x2 /workspaces/hoverboard-firmware-hack-FOC/build/main.o
                0x2000092e                left_dc_curr
 .bss.board_temp_deg_c
                0x20000930        0x2 /workspaces/hoverboard-firmware-hack-FOC/build/main.o
                0x20000930                board_temp_deg_c
 .bss.batVoltageCalib
                0x20000932        0x2 /workspaces/hoverboard-firmware-hack-FOC/build/main.o
                0x20000932                batVoltageCalib
 .bss.main_loop_counter
                0x20000934        0x4 /workspaces/hoverboard-firmware-hack-FOC/build/main.o
                0x20000934                main_loop_counter
 .bss.backwardDrive
                0x20000938        0x1 /workspaces/hoverboard-firmware-hack-FOC/build/main.o
                0x20000938                backwardDrive
 .bss.OverrunFlag.0
                0x20000939        0x1 /workspaces/hoverboard-firmware-hack-FOC/build/bldc.o
 .bss.offsetcount
                0x2000093a        0x2 /workspaces/hoverboard-firmware-hack-FOC/build/bldc.o
 .bss.enableFin
                0x2000093c        0x1 /workspaces/hoverboard-firmware-hack-FOC/build/bldc.o
 .bss.enable    0x2000093d        0x1 /workspaces/hoverboard-firmware-hack-FOC/build/bldc.o
                0x2000093d                enable
 .bss.buzzerIdx
                0x2000093e        0x1 /workspaces/hoverboard-firmware-hack-FOC/build/bldc.o
 .bss.buzzerPrev
                0x2000093f        0x1 /workspaces/hoverboard-firmware-hack-FOC/build/bldc.o
 .bss.buzzerTimer
                0x20000940        0x4 /workspaces/hoverboard-firmware-hack-FOC/build/bldc.o
                0x20000940                buzzerTimer
 .bss.buzzerCount
                0x20000944        0x1 /workspaces/hoverboard-firmware-hack-FOC/build/bldc.o
                0x20000944                buzzerCount
 .bss.buzzerPattern
                0x20000945        0x1 /workspaces/hoverboard-firmware-hack-FOC/build/bldc.o
                0x20000945                buzzerPattern
 .bss.buzzerFreq
                0x20000946        0x1 /workspaces/hoverboard-firmware-hack-FOC/build/bldc.o
                0x20000946                buzzerFreq
 *fill*         0x20000947        0x1 
 .bss.pwmr      0x20000948        0x4 /workspaces/hoverboard-firmware-hack-FOC/build/bldc.o
                0x20000948                pwmr
 .bss.pwml      0x2000094c        0x4 /workspaces/hoverboard-firmware-hack-FOC/build/bldc.o
                0x2000094c                pwml
 .bss.curR_DC   0x20000950        0x2 /workspaces/hoverboard-firmware-hack-FOC/build/bldc.o
                0x20000950                curR_DC
 .bss.curR_phaC
                0x20000952        0x2 /workspaces/hoverboard-firmware-hack-FOC/build/bldc.o
                0x20000952                curR_phaC
 .bss.curR_phaB
                0x20000954        0x2 /workspaces/hoverboard-firmware-hack-FOC/build/bldc.o
                0x20000954                curR_phaB
 .bss.curL_DC   0x20000956        0x2 /workspaces/hoverboard-firmware-hack-FOC/build/bldc.o
                0x20000956                curL_DC
 .bss.curL_phaB
                0x20000958        0x2 /workspaces/hoverboard-firmware-hack-FOC/build/bldc.o
                0x20000958                curL_phaB
 .bss.curL_phaA
                0x2000095a        0x2 /workspaces/hoverboard-firmware-hack-FOC/build/bldc.o
                0x2000095a                curL_phaA
 .bss.pwm_margin
                0x2000095c        0x2 /workspaces/hoverboard-firmware-hack-FOC/build/bldc.o
 .bss.DataVar   0x2000095e        0x2 /workspaces/hoverboard-firmware-hack-FOC/build/eeprom.o
                0x2000095e                DataVar
 *(COMMON)
                0x20000960                        . = ALIGN (0x4)
                0x20000960                        _ebss = .
                0x20000960                        __bss_end__ = _ebss

._user_heap_stack
                0x20000960      0x600 load address 0x08009624
                0x20000960                        . = ALIGN (0x8)
                0x20000960                        PROVIDE (end = .)
                [!provide]                        PROVIDE (_end = .)
                0x20000b60                        . = (. + _Min_Heap_Size)
 *fill*         0x20000960      0x200 
                0x20000f60                        . = (. + _Min_Stack_Size)
 *fill*         0x20000b60      0x400 
                0x20000f60                        . = ALIGN (0x8)

/DISCARD/
 libc.a(*)
 libm.a(*)
 libgcc.a(*)

.ARM.attributes
                0x00000000       0x29
 *(.ARM.attributes)
 .ARM.attributes
                0x00000000       0x1d /usr/lib/gcc/arm-none-eabi/13.2.1/thumb/v7-m/nofp/crti.o
 .ARM.attributes
                0x0000001d       0x2d /usr/lib/gcc/arm-none-eabi/13.2.1/thumb/v7-m/nofp/crtbegin.o
 .ARM.attributes
                0x0000004a       0x2d /workspaces/hoverboard-firmware-hack-FOC/build/stm32f1xx_hal_flash.o
 .ARM.attributes
                0x00000077       0x2d /workspaces/hoverboard-firmware-hack-FOC/build/stm32f1xx_hal_rcc.o
 .ARM.attributes
                0x000000a4       0x2d /workspaces/hoverboard-firmware-hack-FOC/build/stm32f1xx_hal_tim.o
 .ARM.attributes
                0x000000d1       0x2d /workspaces/hoverboard-firmware-hack-FOC/build/stm32f1xx_hal_tim_ex.o
 .ARM.attributes
                0x000000fe       0x2d /workspaces/hoverboard-firmware-hack-FOC/build/stm32f1xx_hal_adc_ex.o
 .ARM.attributes
                0x0000012b       0x2d /workspaces/hoverboard-firmware-hack-FOC/build/stm32f1xx_hal_cortex.o
 .ARM.attributes
                0x00000158       0x2d /workspaces/hoverboard-firmware-hack-FOC/build/stm32f1xx_hal_flash_ex.o
 .ARM.attributes
                0x00000185       0x2d /workspaces/hoverboard-firmware-hack-FOC/build/stm32f1xx_hal_gpio.o
 .ARM.attributes
                0x000001b2       0x2d /workspaces/hoverboard-firmware-hack-FOC/build/stm32f1xx_hal_rcc_ex.o
 .ARM.attributes
                0x000001df       0x2d /workspaces/hoverboard-firmware-hack-FOC/build/stm32f1xx_hal.o
 .ARM.attributes
                0x0000020c       0x2d /workspaces/hoverboard-firmware-hack-FOC/build/stm32f1xx_hal_adc.o
 .ARM.attributes
                0x00000239       0x2d /workspaces/hoverboard-firmware-hack-FOC/build/stm32f1xx_hal_uart.o
 .ARM.attributes
                0x00000266       0x2d /workspaces/hoverboard-firmware-hack-FOC/build/stm32f1xx_hal_dma.o
 .ARM.attributes
                0x00000293       0x2d /workspaces/hoverboard-firmware-hack-FOC/build/system_stm32f1xx.o
 .ARM.attributes
                0x000002c0       0x2d /workspaces/hoverboard-firmware-hack-FOC/build/setup.o
 .ARM.attributes
                0x000002ed       0x2d /workspaces/hoverboard-firmware-hack-FOC/build/control.o
 .ARM.attributes
                0x0000031a       0x2d /workspaces/hoverboard-firmware-hack-FOC/build/util.o
 .ARM.attributes
                0x00000347       0x2d /workspaces/hoverboard-firmware-hack-FOC/build/main.o
 .ARM.attributes
                0x00000374       0x2d /workspaces/hoverboard-firmware-hack-FOC/build/bldc.o
 .ARM.attributes
                0x000003a1       0x2d /workspaces/hoverboard-firmware-hack-FOC/build/eeprom.o
 .ARM.attributes
                0x000003ce       0x2d /workspaces/hoverboard-firmware-hack-FOC/build/stm32f1xx_it.o
 .ARM.attributes
                0x000003fb       0x2d /workspaces/hoverboard-firmware-hack-FOC/build/BLDC_controller_data.o
 .ARM.attributes
                0x00000428       0x2d /workspaces/hoverboard-firmware-hack-FOC/build/BLDC_controller.o
 .ARM.attributes
                0x00000455       0x21 /workspaces/hoverboard-firmware-hack-FOC/build/startup_stm32f103xe.o
 .ARM.attributes
                0x00000476       0x2d /usr/lib/gcc/arm-none-eabi/13.2.1/../../../arm-none-eabi/lib/thumb/v7-m/nofp/libc_nano.a(libc_a-init.o)
 .ARM.attributes
                0x000004a3       0x2d /usr/lib/gcc/arm-none-eabi/13.2.1/../../../arm-none-eabi/lib/thumb/v7-m/nofp/libc_nano.a(libc_a-memset.o)
 .ARM.attributes
                0x000004d0       0x1b /usr/lib/gcc/arm-none-eabi/13.2.1/../../../arm-none-eabi/lib/thumb/v7-m/nofp/libc_nano.a(libc_a-memcpy.o)
 .ARM.attributes
                0x000004eb       0x2d /usr/lib/gcc/arm-none-eabi/13.2.1/../../../arm-none-eabi/lib/thumb/v7-m/nofp/libc_nano.a(libc_a-snprintf.o)
 .ARM.attributes
                0x00000518       0x2d /usr/lib/gcc/arm-none-eabi/13.2.1/../../../arm-none-eabi/lib/thumb/v7-m/nofp/libc_nano.a(libc_a-printf.o)
 .ARM.attributes
                0x00000545       0x2d /usr/lib/gcc/arm-none-eabi/13.2.1/../../../arm-none-eabi/lib/thumb/v7-m/nofp/libc_nano.a(libc_a-nano-vfprintf.o)
 .ARM.attributes
                0x00000572       0x2d /usr/lib/gcc/arm-none-eabi/13.2.1/../../../arm-none-eabi/lib/thumb/v7-m/nofp/libc_nano.a(libc_a-wbuf.o)
 .ARM.attributes
                0x0000059f       0x2d /usr/lib/gcc/arm-none-eabi/13.2.1/../../../arm-none-eabi/lib/thumb/v7-m/nofp/libc_nano.a(libc_a-impure.o)
 .ARM.attributes
                0x000005cc       0x2d /usr/lib/gcc/arm-none-eabi/13.2.1/../../../arm-none-eabi/lib/thumb/v7-m/nofp/libc_nano.a(libc_a-nano-svfprintf.o)
 .ARM.attributes
                0x000005f9       0x2d /usr/lib/gcc/arm-none-eabi/13.2.1/../../../arm-none-eabi/lib/thumb/v7-m/nofp/libc_nano.a(libc_a-fvwrite.o)
 .ARM.attributes
                0x00000626       0x2d /usr/lib/gcc/arm-none-eabi/13.2.1/../../../arm-none-eabi/lib/thumb/v7-m/nofp/libc_nano.a(libc_a-findfp.o)
 .ARM.attributes
                0x00000653       0x2d /usr/lib/gcc/arm-none-eabi/13.2.1/../../../arm-none-eabi/lib/thumb/v7-m/nofp/libc_nano.a(libc_a-fflush.o)
 .ARM.attributes
                0x00000680       0x2d /usr/lib/gcc/arm-none-eabi/13.2.1/../../../arm-none-eabi/lib/thumb/v7-m/nofp/libc_nano.a(libc_a-mallocr.o)
 .ARM.attributes
                0x000006ad       0x2d /usr/lib/gcc/arm-none-eabi/13.2.1/../../../arm-none-eabi/lib/thumb/v7-m/nofp/libc_nano.a(libc_a-freer.o)
 .ARM.attributes
                0x000006da       0x2d /usr/lib/gcc/arm-none-eabi/13.2.1/../../../arm-none-eabi/lib/thumb/v7-m/nofp/libc_nano.a(libc_a-memmove.o)
 .ARM.attributes
                0x00000707       0x2d /usr/lib/gcc/arm-none-eabi/13.2.1/../../../arm-none-eabi/lib/thumb/v7-m/nofp/libc_nano.a(libc_a-fwalk.o)
 .ARM.attributes
                0x00000734       0x2d /usr/lib/gcc/arm-none-eabi/13.2.1/../../../arm-none-eabi/lib/thumb/v7-m/nofp/libc_nano.a(libc_a-wsetup.o)
 .ARM.attributes
                0x00000761       0x2d /usr/lib/gcc/arm-none-eabi/13.2.1/../../../arm-none-eabi/lib/thumb/v7-m/nofp/libc_nano.a(libc_a-reallocr.o)
 .ARM.attributes
                0x0000078e       0x2d /usr/lib/gcc/arm-none-eabi/13.2.1/../../../arm-none-eabi/lib/thumb/v7-m/nofp/libc_nano.a(libc_a-nano-vfprintf_i.o)
 .ARM.attributes
                0x000007bb       0x2d /usr/lib/gcc/arm-none-eabi/13.2.1/../../../arm-none-eabi/lib/thumb/v7-m/nofp/libc_nano.a(libc_a-mlock.o)
 .ARM.attributes
                0x000007e8       0x2d /usr/lib/gcc/arm-none-eabi/13.2.1/../../../arm-none-eabi/lib/thumb/v7-m/nofp/libc_nano.a(libc_a-makebuf.o)
 .ARM.attributes
                0x00000815       0x2d /usr/lib/gcc/arm-none-eabi/13.2.1/../../../arm-none-eabi/lib/thumb/v7-m/nofp/libc_nano.a(libc_a-memchr-stub.o)
 .ARM.attributes
                0x00000842       0x2d /usr/lib/gcc/arm-none-eabi/13.2.1/../../../arm-none-eabi/lib/thumb/v7-m/nofp/libc_nano.a(libc_a-isattyr.o)
 .ARM.attributes
                0x0000086f       0x2d /usr/lib/gcc/arm-none-eabi/13.2.1/../../../arm-none-eabi/lib/thumb/v7-m/nofp/libc_nano.a(libc_a-sbrkr.o)
 .ARM.attributes
                0x0000089c       0x2d /usr/lib/gcc/arm-none-eabi/13.2.1/../../../arm-none-eabi/lib/thumb/v7-m/nofp/libc_nano.a(libc_a-stdio.o)
 .ARM.attributes
                0x000008c9       0x2d /usr/lib/gcc/arm-none-eabi/13.2.1/../../../arm-none-eabi/lib/thumb/v7-m/nofp/libc_nano.a(libc_a-msizer.o)
 .ARM.attributes
                0x000008f6       0x2d /usr/lib/gcc/arm-none-eabi/13.2.1/../../../arm-none-eabi/lib/thumb/v7-m/nofp/libc_nano.a(libc_a-closer.o)
 .ARM.attributes
                0x00000923       0x2d /usr/lib/gcc/arm-none-eabi/13.2.1/../../../arm-none-eabi/lib/thumb/v7-m/nofp/libc_nano.a(libc_a-readr.o)
 .ARM.attributes
                0x00000950       0x2d /usr/lib/gcc/arm-none-eabi/13.2.1/../../../arm-none-eabi/lib/thumb/v7-m/nofp/libc_nano.a(libc_a-reent.o)
 .ARM.attributes
                0x0000097d       0x2d /usr/lib/gcc/arm-none-eabi/13.2.1/../../../arm-none-eabi/lib/thumb/v7-m/nofp/libc_nano.a(libc_a-fstatr.o)
 .ARM.attributes
                0x000009aa       0x2d /usr/lib/gcc/arm-none-eabi/13.2.1/../../../arm-none-eabi/lib/thumb/v7-m/nofp/libc_nano.a(libc_a-lseekr.o)
 .ARM.attributes
                0x000009d7       0x2d /usr/lib/gcc/arm-none-eabi/13.2.1/../../../arm-none-eabi/lib/thumb/v7-m/nofp/libc_nano.a(libc_a-writer.o)
 .ARM.attributes
                0x00000a04       0x2d /usr/lib/gcc/arm-none-eabi/13.2.1/../../../arm-none-eabi/lib/thumb/v7-m/nofp/libnosys.a(close.o)
 .ARM.attributes
                0x00000a31       0x2d /usr/lib/gcc/arm-none-eabi/13.2.1/../../../arm-none-eabi/lib/thumb/v7-m/nofp/libnosys.a(fstat.o)
 .ARM.attributes
                0x00000a5e       0x2d /usr/lib/gcc/arm-none-eabi/13.2.1/../../../arm-none-eabi/lib/thumb/v7-m/nofp/libnosys.a(isatty.o)
 .ARM.attributes
                0x00000a8b       0x2d /usr/lib/gcc/arm-none-eabi/13.2.1/../../../arm-none-eabi/lib/thumb/v7-m/nofp/libnosys.a(lseek.o)
 .ARM.attributes
                0x00000ab8       0x2d /usr/lib/gcc/arm-none-eabi/13.2.1/../../../arm-none-eabi/lib/thumb/v7-m/nofp/libnosys.a(read.o)
 .ARM.attributes
                0x00000ae5       0x2d /usr/lib/gcc/arm-none-eabi/13.2.1/../../../arm-none-eabi/lib/thumb/v7-m/nofp/libnosys.a(sbrk.o)
 .ARM.attributes
                0x00000b12       0x2d /usr/lib/gcc/arm-none-eabi/13.2.1/../../../arm-none-eabi/lib/thumb/v7-m/nofp/libnosys.a(write.o)
 .ARM.attributes
                0x00000b3f       0x2d /usr/lib/gcc/arm-none-eabi/13.2.1/thumb/v7-m/nofp/crtend.o
 .ARM.attributes
                0x00000b6c       0x1d /usr/lib/gcc/arm-none-eabi/13.2.1/thumb/v7-m/nofp/crtn.o
OUTPUT(/workspaces/hoverboard-firmware-hack-FOC/build/hover.elf elf32-littlearm)
LOAD linker stubs
LOAD /usr/lib/gcc/arm-none-eabi/13.2.1/../../../arm-none-eabi/lib/thumb/v7-m/nofp/libc.a
LOAD /usr/lib/gcc/arm-none-eabi/13.2.1/../../../arm-none-eabi/lib/thumb/v7-m/nofp/libm.a
LOAD /usr/lib/gcc/arm-none-eabi/13.2.1/thumb/v7-m/nofp/libgcc.a

.comment        0x00000000       0x26
 .comment       0x00000000       0x26 /usr/lib/gcc/arm-none-eabi/13.2.1/thumb/v7-m/nofp/crtbegin.o
                                 0x27 (size before relaxing)
 .comment       0x00000026       0x27 /workspaces/hoverboard-firmware-hack-FOC/build/stm32f1xx_hal_flash.o
 .comment       0x00000026       0x27 /workspaces/hoverboard-firmware-hack-FOC/build/stm32f1xx_hal_rcc.o
 .comment       0x00000026       0x27 /workspaces/hoverboard-firmware-hack-FOC/build/stm32f1xx_hal_tim.o
 .comment       0x00000026       0x27 /workspaces/hoverboard-firmware-hack-FOC/build/stm32f1xx_hal_tim_ex.o
 .comment       0x00000026       0x27 /workspaces/hoverboard-firmware-hack-FOC/build/stm32f1xx_hal_adc_ex.o
 .comment       0x00000026       0x27 /workspaces/hoverboard-firmware-hack-FOC/build/stm32f1xx_hal_cortex.o
 .comment       0x00000026       0x27 /workspaces/hoverboard-firmware-hack-FOC/build/stm32f1xx_hal_flash_ex.o
 .comment       0x00000026       0x27 /workspaces/hoverboard-firmware-hack-FOC/build/stm32f1xx_hal_gpio.o
 .comment       0x00000026       0x27 /workspaces/hoverboard-firmware-hack-FOC/build/stm32f1xx_hal_rcc_ex.o
 .comment       0x00000026       0x27 /workspaces/hoverboard-firmware-hack-FOC/build/stm32f1xx_hal.o
 .comment       0x00000026       0x27 /workspaces/hoverboard-firmware-hack-FOC/build/stm32f1xx_hal_adc.o
 .comment       0x00000026       0x27 /workspaces/hoverboard-firmware-hack-FOC/build/stm32f1xx_hal_uart.o
 .comment       0x00000026       0x27 /workspaces/hoverboard-firmware-hack-FOC/build/stm32f1xx_hal_dma.o
 .comment       0x00000026       0x27 /workspaces/hoverboard-firmware-hack-FOC/build/system_stm32f1xx.o
 .comment       0x00000026       0x27 /workspaces/hoverboard-firmware-hack-FOC/build/setup.o
 .comment       0x00000026       0x27 /workspaces/hoverboard-firmware-hack-FOC/build/control.o
 .comment       0x00000026       0x27 /workspaces/hoverboard-firmware-hack-FOC/build/util.o
 .comment       0x00000026       0x27 /workspaces/hoverboard-firmware-hack-FOC/build/main.o
 .comment       0x00000026       0x27 /workspaces/hoverboard-firmware-hack-FOC/build/bldc.o
 .comment       0x00000026       0x27 /workspaces/hoverboard-firmware-hack-FOC/build/eeprom.o
 .comment       0x00000026       0x27 /workspaces/hoverboard-firmware-hack-FOC/build/stm32f1xx_it.o
 .comment       0x00000026       0x27 /workspaces/hoverboard-firmware-hack-FOC/build/BLDC_controller_data.o
 .comment       0x00000026       0x27 /workspaces/hoverboard-firmware-hack-FOC/build/BLDC_controller.o
 .comment       0x00000026       0x27 /usr/lib/gcc/arm-none-eabi/13.2.1/../../../arm-none-eabi/lib/thumb/v7-m/nofp/libc_nano.a(libc_a-init.o)
 .comment       0x00000026       0x27 /usr/lib/gcc/arm-none-eabi/13.2.1/../../../arm-none-eabi/lib/thumb/v7-m/nofp/libc_nano.a(libc_a-memset.o)
 .comment       0x00000026       0x27 /usr/lib/gcc/arm-none-eabi/13.2.1/../../../arm-none-eabi/lib/thumb/v7-m/nofp/libc_nano.a(libc_a-snprintf.o)
 .comment       0x00000026       0x27 /usr/lib/gcc/arm-none-eabi/13.2.1/../../../arm-none-eabi/lib/thumb/v7-m/nofp/libc_nano.a(libc_a-printf.o)
 .comment       0x00000026       0x27 /usr/lib/gcc/arm-none-eabi/13.2.1/../../../arm-none-eabi/lib/thumb/v7-m/nofp/libc_nano.a(libc_a-nano-vfprintf.o)
 .comment       0x00000026       0x27 /usr/lib/gcc/arm-none-eabi/13.2.1/../../../arm-none-eabi/lib/thumb/v7-m/nofp/libc_nano.a(libc_a-wbuf.o)
 .comment       0x00000026       0x27 /usr/lib/gcc/arm-none-eabi/13.2.1/../../../arm-none-eabi/lib/thumb/v7-m/nofp/libc_nano.a(libc_a-impure.o)
 .comment       0x00000026       0x27 /usr/lib/gcc/arm-none-eabi/13.2.1/../../../arm-none-eabi/lib/thumb/v7-m/nofp/libc_nano.a(libc_a-nano-svfprintf.o)
 .comment       0x00000026       0x27 /usr/lib/gcc/arm-none-eabi/13.2.1/../../../arm-none-eabi/lib/thumb/v7-m/nofp/libc_nano.a(libc_a-fvwrite.o)
 .comment       0x00000026       0x27 /usr/lib/gcc/arm-none-eabi/13.2.1/../../../arm-none-eabi/lib/thumb/v7-m/nofp/libc_nano.a(libc_a-findfp.o)
 .comment       0x00000026       0x27 /usr/lib/gcc/arm-none-eabi/13.2.1/../../../arm-none-eabi/lib/thumb/v7-m/nofp/libc_nano.a(libc_a-fflush.o)
 .comment       0x00000026       0x27 /usr/lib/gcc/arm-none-eabi/13.2.1/../../../arm-none-eabi/lib/thumb/v7-m/nofp/libc_nano.a(libc_a-mallocr.o)
 .comment       0x00000026       0x27 /usr/lib/gcc/arm-none-eabi/13.2.1/../../../arm-none-eabi/lib/thumb/v7-m/nofp/libc_nano.a(libc_a-freer.o)
 .comment       0x00000026       0x27 /usr/lib/gcc/arm-none-eabi/13.2.1/../../../arm-none-eabi/lib/thumb/v7-m/nofp/libc_nano.a(libc_a-memmove.o)
 .comment       0x00000026       0x27 /usr/lib/gcc/arm-none-eabi/13.2.1/../../../arm-none-eabi/lib/thumb/v7-m/nofp/libc_nano.a(libc_a-fwalk.o)
 .comment       0x00000026       0x27 /usr/lib/gcc/arm-none-eabi/13.2.1/../../../arm-none-eabi/lib/thumb/v7-m/nofp/libc_nano.a(libc_a-wsetup.o)
 .comment       0x00000026       0x27 /usr/lib/gcc/arm-none-eabi/13.2.1/../../../arm-none-eabi/lib/thumb/v7-m/nofp/libc_nano.a(libc_a-reallocr.o)
 .comment       0x00000026       0x27 /usr/lib/gcc/arm-none-eabi/13.2.1/../../../arm-none-eabi/lib/thumb/v7-m/nofp/libc_nano.a(libc_a-nano-vfprintf_i.o)
 .comment       0x00000026       0x27 /usr/lib/gcc/arm-none-eabi/13.2.1/../../../arm-none-eabi/lib/thumb/v7-m/nofp/libc_nano.a(libc_a-mlock.o)
 .comment       0x00000026       0x27 /usr/lib/gcc/arm-none-eabi/13.2.1/../../../arm-none-eabi/lib/thumb/v7-m/nofp/libc_nano.a(libc_a-makebuf.o)
 .comment       0x00000026       0x27 /usr/lib/gcc/arm-none-eabi/13.2.1/../../../arm-none-eabi/lib/thumb/v7-m/nofp/libc_nano.a(libc_a-memchr-stub.o)
 .comment       0x00000026       0x27 /usr/lib/gcc/arm-none-eabi/13.2.1/../../../arm-none-eabi/lib/thumb/v7-m/nofp/libc_nano.a(libc_a-isattyr.o)
 .comment       0x00000026       0x27 /usr/lib/gcc/arm-none-eabi/13.2.1/../../../arm-none-eabi/lib/thumb/v7-m/nofp/libc_nano.a(libc_a-sbrkr.o)
 .comment       0x00000026       0x27 /usr/lib/gcc/arm-none-eabi/13.2.1/../../../arm-none-eabi/lib/thumb/v7-m/nofp/libc_nano.a(libc_a-stdio.o)
 .comment       0x00000026       0x27 /usr/lib/gcc/arm-none-eabi/13.2.1/../../../arm-none-eabi/lib/thumb/v7-m/nofp/libc_nano.a(libc_a-msizer.o)
 .comment       0x00000026       0x27 /usr/lib/gcc/arm-none-eabi/13.2.1/../../../arm-none-eabi/lib/thumb/v7-m/nofp/libc_nano.a(libc_a-closer.o)
 .comment       0x00000026       0x27 /usr/lib/gcc/arm-none-eabi/13.2.1/../../../arm-none-eabi/lib/thumb/v7-m/nofp/libc_nano.a(libc_a-readr.o)
 .comment       0x00000026       0x27 /usr/lib/gcc/arm-none-eabi/13.2.1/../../../arm-none-eabi/lib/thumb/v7-m/nofp/libc_nano.a(libc_a-reent.o)
 .comment       0x00000026       0x27 /usr/lib/gcc/arm-none-eabi/13.2.1/../../../arm-none-eabi/lib/thumb/v7-m/nofp/libc_nano.a(libc_a-fstatr.o)
 .comment       0x00000026       0x27 /usr/lib/gcc/arm-none-eabi/13.2.1/../../../arm-none-eabi/lib/thumb/v7-m/nofp/libc_nano.a(libc_a-lseekr.o)
 .comment       0x00000026       0x27 /usr/lib/gcc/arm-none-eabi/13.2.1/../../../arm-none-eabi/lib/thumb/v7-m/nofp/libc_nano.a(libc_a-writer.o)
 .comment       0x00000026       0x27 /usr/lib/gcc/arm-none-eabi/13.2.1/../../../arm-none-eabi/lib/thumb/v7-m/nofp/libnosys.a(close.o)
 .comment       0x00000026       0x27 /usr/lib/gcc/arm-none-eabi/13.2.1/../../../arm-none-eabi/lib/thumb/v7-m/nofp/libnosys.a(fstat.o)
 .comment       0x00000026       0x27 /usr/lib/gcc/arm-none-eabi/13.2.1/../../../arm-none-eabi/lib/thumb/v7-m/nofp/libnosys.a(isatty.o)
 .comment       0x00000026       0x27 /usr/lib/gcc/arm-none-eabi/13.2.1/../../../arm-none-eabi/lib/thumb/v7-m/nofp/libnosys.a(lseek.o)
 .comment       0x00000026       0x27 /usr/lib/gcc/arm-none-eabi/13.2.1/../../../arm-none-eabi/lib/thumb/v7-m/nofp/libnosys.a(read.o)
 .comment       0x00000026       0x27 /usr/lib/gcc/arm-none-eabi/13.2.1/../../../arm-none-eabi/lib/thumb/v7-m/nofp/libnosys.a(sbrk.o)
 .comment       0x00000026       0x27 /usr/lib/gcc/arm-none-eabi/13.2.1/../../../arm-none-eabi/lib/thumb/v7-m/nofp/libnosys.a(write.o)
 .comment       0x00000026       0x27 /usr/lib/gcc/arm-none-eabi/13.2.1/thumb/v7-m/nofp/crtend.o

.debug_info     0x00000000    0x2a4a0
 .debug_info    0x00000000      0x6ba /workspaces/hoverboard-firmware-hack-FOC/build/stm32f1xx_hal_flash.o
 .debug_info    0x000006ba      0xa9c /workspaces/hoverboard-firmware-hack-FOC/build/stm32f1xx_hal_rcc.o
 .debug_info    0x00001156     0x3529 /workspaces/hoverboard-firmware-hack-FOC/build/stm32f1xx_hal_tim.o
 .debug_info    0x0000467f     0x15e5 /workspaces/hoverboard-firmware-hack-FOC/build/stm32f1xx_hal_tim_ex.o
 .debug_info    0x00005c64      0xd1e /workspaces/hoverboard-firmware-hack-FOC/build/stm32f1xx_hal_adc_ex.o
 .debug_info    0x00006982      0xe69 /workspaces/hoverboard-firmware-hack-FOC/build/stm32f1xx_hal_cortex.o
 .debug_info    0x000077eb      0xb6b /workspaces/hoverboard-firmware-hack-FOC/build/stm32f1xx_hal_flash_ex.o
 .debug_info    0x00008356      0x6cc /workspaces/hoverboard-firmware-hack-FOC/build/stm32f1xx_hal_gpio.o
 .debug_info    0x00008a22      0x49e /workspaces/hoverboard-firmware-hack-FOC/build/stm32f1xx_hal_rcc_ex.o
 .debug_info    0x00008ec0      0x7ae /workspaces/hoverboard-firmware-hack-FOC/build/stm32f1xx_hal.o
 .debug_info    0x0000966e     0x103e /workspaces/hoverboard-firmware-hack-FOC/build/stm32f1xx_hal_adc.o
 .debug_info    0x0000a6ac     0x1a06 /workspaces/hoverboard-firmware-hack-FOC/build/stm32f1xx_hal_uart.o
 .debug_info    0x0000c0b2      0x8ca /workspaces/hoverboard-firmware-hack-FOC/build/stm32f1xx_hal_dma.o
 .debug_info    0x0000c97c      0x447 /workspaces/hoverboard-firmware-hack-FOC/build/system_stm32f1xx.o
 .debug_info    0x0000cdc3     0x26a5 /workspaces/hoverboard-firmware-hack-FOC/build/setup.o
 .debug_info    0x0000f468      0xd16 /workspaces/hoverboard-firmware-hack-FOC/build/control.o
 .debug_info    0x0001017e     0x2bb5 /workspaces/hoverboard-firmware-hack-FOC/build/util.o
 .debug_info    0x00012d33     0x1fad /workspaces/hoverboard-firmware-hack-FOC/build/main.o
 .debug_info    0x00014ce0     0x136a /workspaces/hoverboard-firmware-hack-FOC/build/bldc.o
 .debug_info    0x0001604a      0x9ce /workspaces/hoverboard-firmware-hack-FOC/build/eeprom.o
 .debug_info    0x00016a18      0x774 /workspaces/hoverboard-firmware-hack-FOC/build/stm32f1xx_it.o
 .debug_info    0x0001718c      0x485 /workspaces/hoverboard-firmware-hack-FOC/build/BLDC_controller_data.o
 .debug_info    0x00017611     0x1eb5 /workspaces/hoverboard-firmware-hack-FOC/build/BLDC_controller.o
 .debug_info    0x000194c6       0x30 /workspaces/hoverboard-firmware-hack-FOC/build/startup_stm32f103xe.o
 .debug_info    0x000194f6      0x10b /usr/lib/gcc/arm-none-eabi/13.2.1/../../../arm-none-eabi/lib/thumb/v7-m/nofp/libc_nano.a(libc_a-init.o)
 .debug_info    0x00019601      0x135 /usr/lib/gcc/arm-none-eabi/13.2.1/../../../arm-none-eabi/lib/thumb/v7-m/nofp/libc_nano.a(libc_a-memset.o)
 .debug_info    0x00019736       0x33 /usr/lib/gcc/arm-none-eabi/13.2.1/../../../arm-none-eabi/lib/thumb/v7-m/nofp/libc_nano.a(libc_a-memcpy.o)
 .debug_info    0x00019769      0x8ff /usr/lib/gcc/arm-none-eabi/13.2.1/../../../arm-none-eabi/lib/thumb/v7-m/nofp/libc_nano.a(libc_a-snprintf.o)
 .debug_info    0x0001a068      0x837 /usr/lib/gcc/arm-none-eabi/13.2.1/../../../arm-none-eabi/lib/thumb/v7-m/nofp/libc_nano.a(libc_a-printf.o)
 .debug_info    0x0001a89f     0x108a /usr/lib/gcc/arm-none-eabi/13.2.1/../../../arm-none-eabi/lib/thumb/v7-m/nofp/libc_nano.a(libc_a-nano-vfprintf.o)
 .debug_info    0x0001b929      0x863 /usr/lib/gcc/arm-none-eabi/13.2.1/../../../arm-none-eabi/lib/thumb/v7-m/nofp/libc_nano.a(libc_a-wbuf.o)
 .debug_info    0x0001c18c      0x70b /usr/lib/gcc/arm-none-eabi/13.2.1/../../../arm-none-eabi/lib/thumb/v7-m/nofp/libc_nano.a(libc_a-impure.o)
 .debug_info    0x0001c897     0x1094 /usr/lib/gcc/arm-none-eabi/13.2.1/../../../arm-none-eabi/lib/thumb/v7-m/nofp/libc_nano.a(libc_a-nano-svfprintf.o)
 .debug_info    0x0001d92b      0xb1e /usr/lib/gcc/arm-none-eabi/13.2.1/../../../arm-none-eabi/lib/thumb/v7-m/nofp/libc_nano.a(libc_a-fvwrite.o)
 .debug_info    0x0001e449      0xe8c /usr/lib/gcc/arm-none-eabi/13.2.1/../../../arm-none-eabi/lib/thumb/v7-m/nofp/libc_nano.a(libc_a-findfp.o)
 .debug_info    0x0001f2d5      0xa30 /usr/lib/gcc/arm-none-eabi/13.2.1/../../../arm-none-eabi/lib/thumb/v7-m/nofp/libc_nano.a(libc_a-fflush.o)
 .debug_info    0x0001fd05      0x9b6 /usr/lib/gcc/arm-none-eabi/13.2.1/../../../arm-none-eabi/lib/thumb/v7-m/nofp/libc_nano.a(libc_a-mallocr.o)
 .debug_info    0x000206bb      0x87f /usr/lib/gcc/arm-none-eabi/13.2.1/../../../arm-none-eabi/lib/thumb/v7-m/nofp/libc_nano.a(libc_a-freer.o)
 .debug_info    0x00020f3a      0x148 /usr/lib/gcc/arm-none-eabi/13.2.1/../../../arm-none-eabi/lib/thumb/v7-m/nofp/libc_nano.a(libc_a-memmove.o)
 .debug_info    0x00021082      0x7c8 /usr/lib/gcc/arm-none-eabi/13.2.1/../../../arm-none-eabi/lib/thumb/v7-m/nofp/libc_nano.a(libc_a-fwalk.o)
 .debug_info    0x0002184a      0x7b1 /usr/lib/gcc/arm-none-eabi/13.2.1/../../../arm-none-eabi/lib/thumb/v7-m/nofp/libc_nano.a(libc_a-wsetup.o)
 .debug_info    0x00021ffb      0x8cd /usr/lib/gcc/arm-none-eabi/13.2.1/../../../arm-none-eabi/lib/thumb/v7-m/nofp/libc_nano.a(libc_a-reallocr.o)
 .debug_info    0x000228c8      0xdd7 /usr/lib/gcc/arm-none-eabi/13.2.1/../../../arm-none-eabi/lib/thumb/v7-m/nofp/libc_nano.a(libc_a-nano-vfprintf_i.o)
 .debug_info    0x0002369f      0x71c /usr/lib/gcc/arm-none-eabi/13.2.1/../../../arm-none-eabi/lib/thumb/v7-m/nofp/libc_nano.a(libc_a-mlock.o)
 .debug_info    0x00023dbb      0xbe6 /usr/lib/gcc/arm-none-eabi/13.2.1/../../../arm-none-eabi/lib/thumb/v7-m/nofp/libc_nano.a(libc_a-makebuf.o)
 .debug_info    0x000249a1      0x14a /usr/lib/gcc/arm-none-eabi/13.2.1/../../../arm-none-eabi/lib/thumb/v7-m/nofp/libc_nano.a(libc_a-memchr-stub.o)
 .debug_info    0x00024aeb      0x752 /usr/lib/gcc/arm-none-eabi/13.2.1/../../../arm-none-eabi/lib/thumb/v7-m/nofp/libc_nano.a(libc_a-isattyr.o)
 .debug_info    0x0002523d      0x778 /usr/lib/gcc/arm-none-eabi/13.2.1/../../../arm-none-eabi/lib/thumb/v7-m/nofp/libc_nano.a(libc_a-sbrkr.o)
 .debug_info    0x000259b5      0xa80 /usr/lib/gcc/arm-none-eabi/13.2.1/../../../arm-none-eabi/lib/thumb/v7-m/nofp/libc_nano.a(libc_a-stdio.o)
 .debug_info    0x00026435      0x78a /usr/lib/gcc/arm-none-eabi/13.2.1/../../../arm-none-eabi/lib/thumb/v7-m/nofp/libc_nano.a(libc_a-msizer.o)
 .debug_info    0x00026bbf      0x752 /usr/lib/gcc/arm-none-eabi/13.2.1/../../../arm-none-eabi/lib/thumb/v7-m/nofp/libc_nano.a(libc_a-closer.o)
 .debug_info    0x00027311      0x7b5 /usr/lib/gcc/arm-none-eabi/13.2.1/../../../arm-none-eabi/lib/thumb/v7-m/nofp/libc_nano.a(libc_a-readr.o)
 .debug_info    0x00027ac6      0x89f /usr/lib/gcc/arm-none-eabi/13.2.1/../../../arm-none-eabi/lib/thumb/v7-m/nofp/libc_nano.a(libc_a-reent.o)
 .debug_info    0x00028365      0x977 /usr/lib/gcc/arm-none-eabi/13.2.1/../../../arm-none-eabi/lib/thumb/v7-m/nofp/libc_nano.a(libc_a-fstatr.o)
 .debug_info    0x00028cdc      0x79e /usr/lib/gcc/arm-none-eabi/13.2.1/../../../arm-none-eabi/lib/thumb/v7-m/nofp/libc_nano.a(libc_a-lseekr.o)
 .debug_info    0x0002947a      0x7bb /usr/lib/gcc/arm-none-eabi/13.2.1/../../../arm-none-eabi/lib/thumb/v7-m/nofp/libc_nano.a(libc_a-writer.o)
 .debug_info    0x00029c35       0xde /usr/lib/gcc/arm-none-eabi/13.2.1/../../../arm-none-eabi/lib/thumb/v7-m/nofp/libnosys.a(close.o)
 .debug_info    0x00029d13      0x2f7 /usr/lib/gcc/arm-none-eabi/13.2.1/../../../arm-none-eabi/lib/thumb/v7-m/nofp/libnosys.a(fstat.o)
 .debug_info    0x0002a00a       0xde /usr/lib/gcc/arm-none-eabi/13.2.1/../../../arm-none-eabi/lib/thumb/v7-m/nofp/libnosys.a(isatty.o)
 .debug_info    0x0002a0e8      0x100 /usr/lib/gcc/arm-none-eabi/13.2.1/../../../arm-none-eabi/lib/thumb/v7-m/nofp/libnosys.a(lseek.o)
 .debug_info    0x0002a1e8      0x106 /usr/lib/gcc/arm-none-eabi/13.2.1/../../../arm-none-eabi/lib/thumb/v7-m/nofp/libnosys.a(read.o)
 .debug_info    0x0002a2ee       0xac /usr/lib/gcc/arm-none-eabi/13.2.1/../../../arm-none-eabi/lib/thumb/v7-m/nofp/libnosys.a(sbrk.o)
 .debug_info    0x0002a39a      0x106 /usr/lib/gcc/arm-none-eabi/13.2.1/../../../arm-none-eabi/lib/thumb/v7-m/nofp/libnosys.a(write.o)

.debug_abbrev   0x00000000     0x7a5d
 .debug_abbrev  0x00000000      0x267 /workspaces/hoverboard-firmware-hack-FOC/build/stm32f1xx_hal_flash.o
 .debug_abbrev  0x00000267      0x2c9 /workspaces/hoverboard-firmware-hack-FOC/build/stm32f1xx_hal_rcc.o
 .debug_abbrev  0x00000530      0x2dd /workspaces/hoverboard-firmware-hack-FOC/build/stm32f1xx_hal_tim.o
 .debug_abbrev  0x0000080d      0x296 /workspaces/hoverboard-firmware-hack-FOC/build/stm32f1xx_hal_tim_ex.o
 .debug_abbrev  0x00000aa3      0x2a1 /workspaces/hoverboard-firmware-hack-FOC/build/stm32f1xx_hal_adc_ex.o
 .debug_abbrev  0x00000d44      0x38d /workspaces/hoverboard-firmware-hack-FOC/build/stm32f1xx_hal_cortex.o
 .debug_abbrev  0x000010d1      0x297 /workspaces/hoverboard-firmware-hack-FOC/build/stm32f1xx_hal_flash_ex.o
 .debug_abbrev  0x00001368      0x22b /workspaces/hoverboard-firmware-hack-FOC/build/stm32f1xx_hal_gpio.o
 .debug_abbrev  0x00001593      0x1d4 /workspaces/hoverboard-firmware-hack-FOC/build/stm32f1xx_hal_rcc_ex.o
 .debug_abbrev  0x00001767      0x24e /workspaces/hoverboard-firmware-hack-FOC/build/stm32f1xx_hal.o
 .debug_abbrev  0x000019b5      0x282 /workspaces/hoverboard-firmware-hack-FOC/build/stm32f1xx_hal_adc.o
 .debug_abbrev  0x00001c37      0x2df /workspaces/hoverboard-firmware-hack-FOC/build/stm32f1xx_hal_uart.o
 .debug_abbrev  0x00001f16      0x261 /workspaces/hoverboard-firmware-hack-FOC/build/stm32f1xx_hal_dma.o
 .debug_abbrev  0x00002177      0x140 /workspaces/hoverboard-firmware-hack-FOC/build/system_stm32f1xx.o
 .debug_abbrev  0x000022b7      0x29a /workspaces/hoverboard-firmware-hack-FOC/build/setup.o
 .debug_abbrev  0x00002551      0x269 /workspaces/hoverboard-firmware-hack-FOC/build/control.o
 .debug_abbrev  0x000027ba      0x429 /workspaces/hoverboard-firmware-hack-FOC/build/util.o
 .debug_abbrev  0x00002be3      0x2b7 /workspaces/hoverboard-firmware-hack-FOC/build/main.o
 .debug_abbrev  0x00002e9a      0x21f /workspaces/hoverboard-firmware-hack-FOC/build/bldc.o
 .debug_abbrev  0x000030b9      0x1e9 /workspaces/hoverboard-firmware-hack-FOC/build/eeprom.o
 .debug_abbrev  0x000032a2      0x1d8 /workspaces/hoverboard-firmware-hack-FOC/build/stm32f1xx_it.o
 .debug_abbrev  0x0000347a       0xd4 /workspaces/hoverboard-firmware-hack-FOC/build/BLDC_controller_data.o
 .debug_abbrev  0x0000354e      0x2b0 /workspaces/hoverboard-firmware-hack-FOC/build/BLDC_controller.o
 .debug_abbrev  0x000037fe       0x1d /workspaces/hoverboard-firmware-hack-FOC/build/startup_stm32f103xe.o
 .debug_abbrev  0x0000381b       0xc9 /usr/lib/gcc/arm-none-eabi/13.2.1/../../../arm-none-eabi/lib/thumb/v7-m/nofp/libc_nano.a(libc_a-init.o)
 .debug_abbrev  0x000038e4       0xb7 /usr/lib/gcc/arm-none-eabi/13.2.1/../../../arm-none-eabi/lib/thumb/v7-m/nofp/libc_nano.a(libc_a-memset.o)
 .debug_abbrev  0x0000399b       0x28 /usr/lib/gcc/arm-none-eabi/13.2.1/../../../arm-none-eabi/lib/thumb/v7-m/nofp/libc_nano.a(libc_a-memcpy.o)
 .debug_abbrev  0x000039c3      0x23c /usr/lib/gcc/arm-none-eabi/13.2.1/../../../arm-none-eabi/lib/thumb/v7-m/nofp/libc_nano.a(libc_a-snprintf.o)
 .debug_abbrev  0x00003bff      0x21a /usr/lib/gcc/arm-none-eabi/13.2.1/../../../arm-none-eabi/lib/thumb/v7-m/nofp/libc_nano.a(libc_a-printf.o)
 .debug_abbrev  0x00003e19      0x36e /usr/lib/gcc/arm-none-eabi/13.2.1/../../../arm-none-eabi/lib/thumb/v7-m/nofp/libc_nano.a(libc_a-nano-vfprintf.o)
 .debug_abbrev  0x00004187      0x236 /usr/lib/gcc/arm-none-eabi/13.2.1/../../../arm-none-eabi/lib/thumb/v7-m/nofp/libc_nano.a(libc_a-wbuf.o)
 .debug_abbrev  0x000043bd      0x149 /usr/lib/gcc/arm-none-eabi/13.2.1/../../../arm-none-eabi/lib/thumb/v7-m/nofp/libc_nano.a(libc_a-impure.o)
 .debug_abbrev  0x00004506      0x32f /usr/lib/gcc/arm-none-eabi/13.2.1/../../../arm-none-eabi/lib/thumb/v7-m/nofp/libc_nano.a(libc_a-nano-svfprintf.o)
 .debug_abbrev  0x00004835      0x224 /usr/lib/gcc/arm-none-eabi/13.2.1/../../../arm-none-eabi/lib/thumb/v7-m/nofp/libc_nano.a(libc_a-fvwrite.o)
 .debug_abbrev  0x00004a59      0x408 /usr/lib/gcc/arm-none-eabi/13.2.1/../../../arm-none-eabi/lib/thumb/v7-m/nofp/libc_nano.a(libc_a-findfp.o)
 .debug_abbrev  0x00004e61      0x2e1 /usr/lib/gcc/arm-none-eabi/13.2.1/../../../arm-none-eabi/lib/thumb/v7-m/nofp/libc_nano.a(libc_a-fflush.o)
 .debug_abbrev  0x00005142      0x24a /usr/lib/gcc/arm-none-eabi/13.2.1/../../../arm-none-eabi/lib/thumb/v7-m/nofp/libc_nano.a(libc_a-mallocr.o)
 .debug_abbrev  0x0000538c      0x249 /usr/lib/gcc/arm-none-eabi/13.2.1/../../../arm-none-eabi/lib/thumb/v7-m/nofp/libc_nano.a(libc_a-freer.o)
 .debug_abbrev  0x000055d5       0xc3 /usr/lib/gcc/arm-none-eabi/13.2.1/../../../arm-none-eabi/lib/thumb/v7-m/nofp/libc_nano.a(libc_a-memmove.o)
 .debug_abbrev  0x00005698      0x19b /usr/lib/gcc/arm-none-eabi/13.2.1/../../../arm-none-eabi/lib/thumb/v7-m/nofp/libc_nano.a(libc_a-fwalk.o)
 .debug_abbrev  0x00005833      0x1e2 /usr/lib/gcc/arm-none-eabi/13.2.1/../../../arm-none-eabi/lib/thumb/v7-m/nofp/libc_nano.a(libc_a-wsetup.o)
 .debug_abbrev  0x00005a15      0x20c /usr/lib/gcc/arm-none-eabi/13.2.1/../../../arm-none-eabi/lib/thumb/v7-m/nofp/libc_nano.a(libc_a-reallocr.o)
 .debug_abbrev  0x00005c21      0x284 /usr/lib/gcc/arm-none-eabi/13.2.1/../../../arm-none-eabi/lib/thumb/v7-m/nofp/libc_nano.a(libc_a-nano-vfprintf_i.o)
 .debug_abbrev  0x00005ea5      0x192 /usr/lib/gcc/arm-none-eabi/13.2.1/../../../arm-none-eabi/lib/thumb/v7-m/nofp/libc_nano.a(libc_a-mlock.o)
 .debug_abbrev  0x00006037      0x29d /usr/lib/gcc/arm-none-eabi/13.2.1/../../../arm-none-eabi/lib/thumb/v7-m/nofp/libc_nano.a(libc_a-makebuf.o)
 .debug_abbrev  0x000062d4       0xc7 /usr/lib/gcc/arm-none-eabi/13.2.1/../../../arm-none-eabi/lib/thumb/v7-m/nofp/libc_nano.a(libc_a-memchr-stub.o)
 .debug_abbrev  0x0000639b      0x1b0 /usr/lib/gcc/arm-none-eabi/13.2.1/../../../arm-none-eabi/lib/thumb/v7-m/nofp/libc_nano.a(libc_a-isattyr.o)
 .debug_abbrev  0x0000654b      0x1da /usr/lib/gcc/arm-none-eabi/13.2.1/../../../arm-none-eabi/lib/thumb/v7-m/nofp/libc_nano.a(libc_a-sbrkr.o)
 .debug_abbrev  0x00006725      0x224 /usr/lib/gcc/arm-none-eabi/13.2.1/../../../arm-none-eabi/lib/thumb/v7-m/nofp/libc_nano.a(libc_a-stdio.o)
 .debug_abbrev  0x00006949      0x196 /usr/lib/gcc/arm-none-eabi/13.2.1/../../../arm-none-eabi/lib/thumb/v7-m/nofp/libc_nano.a(libc_a-msizer.o)
 .debug_abbrev  0x00006adf      0x1b0 /usr/lib/gcc/arm-none-eabi/13.2.1/../../../arm-none-eabi/lib/thumb/v7-m/nofp/libc_nano.a(libc_a-closer.o)
 .debug_abbrev  0x00006c8f      0x1b0 /usr/lib/gcc/arm-none-eabi/13.2.1/../../../arm-none-eabi/lib/thumb/v7-m/nofp/libc_nano.a(libc_a-readr.o)
 .debug_abbrev  0x00006e3f      0x1ee /usr/lib/gcc/arm-none-eabi/13.2.1/../../../arm-none-eabi/lib/thumb/v7-m/nofp/libc_nano.a(libc_a-reent.o)
 .debug_abbrev  0x0000702d      0x1c3 /usr/lib/gcc/arm-none-eabi/13.2.1/../../../arm-none-eabi/lib/thumb/v7-m/nofp/libc_nano.a(libc_a-fstatr.o)
 .debug_abbrev  0x000071f0      0x1c4 /usr/lib/gcc/arm-none-eabi/13.2.1/../../../arm-none-eabi/lib/thumb/v7-m/nofp/libc_nano.a(libc_a-lseekr.o)
 .debug_abbrev  0x000073b4      0x1b5 /usr/lib/gcc/arm-none-eabi/13.2.1/../../../arm-none-eabi/lib/thumb/v7-m/nofp/libc_nano.a(libc_a-writer.o)
 .debug_abbrev  0x00007569       0x96 /usr/lib/gcc/arm-none-eabi/13.2.1/../../../arm-none-eabi/lib/thumb/v7-m/nofp/libnosys.a(close.o)
 .debug_abbrev  0x000075ff       0xe4 /usr/lib/gcc/arm-none-eabi/13.2.1/../../../arm-none-eabi/lib/thumb/v7-m/nofp/libnosys.a(fstat.o)
 .debug_abbrev  0x000076e3       0x96 /usr/lib/gcc/arm-none-eabi/13.2.1/../../../arm-none-eabi/lib/thumb/v7-m/nofp/libnosys.a(isatty.o)
 .debug_abbrev  0x00007779       0xbb /usr/lib/gcc/arm-none-eabi/13.2.1/../../../arm-none-eabi/lib/thumb/v7-m/nofp/libnosys.a(lseek.o)
 .debug_abbrev  0x00007834       0xc4 /usr/lib/gcc/arm-none-eabi/13.2.1/../../../arm-none-eabi/lib/thumb/v7-m/nofp/libnosys.a(read.o)
 .debug_abbrev  0x000078f8       0xa1 /usr/lib/gcc/arm-none-eabi/13.2.1/../../../arm-none-eabi/lib/thumb/v7-m/nofp/libnosys.a(sbrk.o)
 .debug_abbrev  0x00007999       0xc4 /usr/lib/gcc/arm-none-eabi/13.2.1/../../../arm-none-eabi/lib/thumb/v7-m/nofp/libnosys.a(write.o)

.debug_loc      0x00000000    0x11829
 .debug_loc     0x00000000      0x458 /workspaces/hoverboard-firmware-hack-FOC/build/stm32f1xx_hal_flash.o
 .debug_loc     0x00000458      0x744 /workspaces/hoverboard-firmware-hack-FOC/build/stm32f1xx_hal_rcc.o
 .debug_loc     0x00000b9c     0x461e /workspaces/hoverboard-firmware-hack-FOC/build/stm32f1xx_hal_tim.o
 .debug_loc     0x000051ba     0x145c /workspaces/hoverboard-firmware-hack-FOC/build/stm32f1xx_hal_tim_ex.o
 .debug_loc     0x00006616      0xc2b /workspaces/hoverboard-firmware-hack-FOC/build/stm32f1xx_hal_adc_ex.o
 .debug_loc     0x00007241      0x894 /workspaces/hoverboard-firmware-hack-FOC/build/stm32f1xx_hal_cortex.o
 .debug_loc     0x00007ad5      0x9ec /workspaces/hoverboard-firmware-hack-FOC/build/stm32f1xx_hal_flash_ex.o
 .debug_loc     0x000084c1      0x5db /workspaces/hoverboard-firmware-hack-FOC/build/stm32f1xx_hal_gpio.o
 .debug_loc     0x00008a9c      0x4b6 /workspaces/hoverboard-firmware-hack-FOC/build/stm32f1xx_hal_rcc_ex.o
 .debug_loc     0x00008f52      0x12a /workspaces/hoverboard-firmware-hack-FOC/build/stm32f1xx_hal.o
 .debug_loc     0x0000907c      0xef2 /workspaces/hoverboard-firmware-hack-FOC/build/stm32f1xx_hal_adc.o
 .debug_loc     0x00009f6e     0x1e7c /workspaces/hoverboard-firmware-hack-FOC/build/stm32f1xx_hal_uart.o
 .debug_loc     0x0000bdea      0x973 /workspaces/hoverboard-firmware-hack-FOC/build/stm32f1xx_hal_dma.o
 .debug_loc     0x0000c75d      0x11b /workspaces/hoverboard-firmware-hack-FOC/build/system_stm32f1xx.o
 .debug_loc     0x0000c878      0x29a /workspaces/hoverboard-firmware-hack-FOC/build/setup.o
 .debug_loc     0x0000cb12      0x326 /workspaces/hoverboard-firmware-hack-FOC/build/control.o
 .debug_loc     0x0000ce38     0x12b8 /workspaces/hoverboard-firmware-hack-FOC/build/util.o
 .debug_loc     0x0000e0f0       0xf7 /workspaces/hoverboard-firmware-hack-FOC/build/main.o
 .debug_loc     0x0000e1e7      0x264 /workspaces/hoverboard-firmware-hack-FOC/build/bldc.o
 .debug_loc     0x0000e44b      0xc6d /workspaces/hoverboard-firmware-hack-FOC/build/eeprom.o
 .debug_loc     0x0000f0b8       0xa4 /workspaces/hoverboard-firmware-hack-FOC/build/stm32f1xx_it.o
 .debug_loc     0x0000f15c     0x26cd /workspaces/hoverboard-firmware-hack-FOC/build/BLDC_controller.o

.debug_aranges  0x00000000     0x1510
 .debug_aranges
                0x00000000       0x88 /workspaces/hoverboard-firmware-hack-FOC/build/stm32f1xx_hal_flash.o
 .debug_aranges
                0x00000088       0x90 /workspaces/hoverboard-firmware-hack-FOC/build/stm32f1xx_hal_rcc.o
 .debug_aranges
                0x00000118      0x368 /workspaces/hoverboard-firmware-hack-FOC/build/stm32f1xx_hal_tim.o
 .debug_aranges
                0x00000480      0x138 /workspaces/hoverboard-firmware-hack-FOC/build/stm32f1xx_hal_tim_ex.o
 .debug_aranges
                0x000005b8       0x80 /workspaces/hoverboard-firmware-hack-FOC/build/stm32f1xx_hal_adc_ex.o
 .debug_aranges
                0x00000638       0xb8 /workspaces/hoverboard-firmware-hack-FOC/build/stm32f1xx_hal_cortex.o
 .debug_aranges
                0x000006f0       0x98 /workspaces/hoverboard-firmware-hack-FOC/build/stm32f1xx_hal_flash_ex.o
 .debug_aranges
                0x00000788       0x58 /workspaces/hoverboard-firmware-hack-FOC/build/stm32f1xx_hal_gpio.o
 .debug_aranges
                0x000007e0       0x30 /workspaces/hoverboard-firmware-hack-FOC/build/stm32f1xx_hal_rcc_ex.o
 .debug_aranges
                0x00000810       0xb8 /workspaces/hoverboard-firmware-hack-FOC/build/stm32f1xx_hal.o
 .debug_aranges
                0x000008c8       0xf0 /workspaces/hoverboard-firmware-hack-FOC/build/stm32f1xx_hal_adc.o
 .debug_aranges
                0x000009b8      0x1d0 /workspaces/hoverboard-firmware-hack-FOC/build/stm32f1xx_hal_uart.o
 .debug_aranges
                0x00000b88       0x80 /workspaces/hoverboard-firmware-hack-FOC/build/stm32f1xx_hal_dma.o
 .debug_aranges
                0x00000c08       0x28 /workspaces/hoverboard-firmware-hack-FOC/build/system_stm32f1xx.o
 .debug_aranges
                0x00000c30       0x68 /workspaces/hoverboard-firmware-hack-FOC/build/setup.o
 .debug_aranges
                0x00000c98       0x40 /workspaces/hoverboard-firmware-hack-FOC/build/control.o
 .debug_aranges
                0x00000cd8      0x120 /workspaces/hoverboard-firmware-hack-FOC/build/util.o
 .debug_aranges
                0x00000df8       0x28 /workspaces/hoverboard-firmware-hack-FOC/build/main.o
 .debug_aranges
                0x00000e20       0x20 /workspaces/hoverboard-firmware-hack-FOC/build/bldc.o
 .debug_aranges
                0x00000e40       0x58 /workspaces/hoverboard-firmware-hack-FOC/build/eeprom.o
 .debug_aranges
                0x00000e98       0x78 /workspaces/hoverboard-firmware-hack-FOC/build/stm32f1xx_it.o
 .debug_aranges
                0x00000f10       0x18 /workspaces/hoverboard-firmware-hack-FOC/build/BLDC_controller_data.o
 .debug_aranges
                0x00000f28       0xe8 /workspaces/hoverboard-firmware-hack-FOC/build/BLDC_controller.o
 .debug_aranges
                0x00001010       0x28 /workspaces/hoverboard-firmware-hack-FOC/build/startup_stm32f103xe.o
 .debug_aranges
                0x00001038       0x20 /usr/lib/gcc/arm-none-eabi/13.2.1/../../../arm-none-eabi/lib/thumb/v7-m/nofp/libc_nano.a(libc_a-init.o)
 .debug_aranges
                0x00001058       0x20 /usr/lib/gcc/arm-none-eabi/13.2.1/../../../arm-none-eabi/lib/thumb/v7-m/nofp/libc_nano.a(libc_a-memset.o)
 .debug_aranges
                0x00001078       0x20 /usr/lib/gcc/arm-none-eabi/13.2.1/../../../arm-none-eabi/lib/thumb/v7-m/nofp/libc_nano.a(libc_a-memcpy.o)
 .debug_aranges
                0x00001098       0x20 /usr/lib/gcc/arm-none-eabi/13.2.1/../../../arm-none-eabi/lib/thumb/v7-m/nofp/libc_nano.a(libc_a-snprintf.o)
 .debug_aranges
                0x000010b8       0x20 /usr/lib/gcc/arm-none-eabi/13.2.1/../../../arm-none-eabi/lib/thumb/v7-m/nofp/libc_nano.a(libc_a-printf.o)
 .debug_aranges
                0x000010d8       0x20 /usr/lib/gcc/arm-none-eabi/13.2.1/../../../arm-none-eabi/lib/thumb/v7-m/nofp/libc_nano.a(libc_a-nano-vfprintf.o)
 .debug_aranges
                0x000010f8       0x20 /usr/lib/gcc/arm-none-eabi/13.2.1/../../../arm-none-eabi/lib/thumb/v7-m/nofp/libc_nano.a(libc_a-wbuf.o)
 .debug_aranges
                0x00001118       0x18 /usr/lib/gcc/arm-none-eabi/13.2.1/../../../arm-none-eabi/lib/thumb/v7-m/nofp/libc_nano.a(libc_a-impure.o)
 .debug_aranges
                0x00001130       0x20 /usr/lib/gcc/arm-none-eabi/13.2.1/../../../arm-none-eabi/lib/thumb/v7-m/nofp/libc_nano.a(libc_a-nano-svfprintf.o)
 .debug_aranges
                0x00001150       0x20 /usr/lib/gcc/arm-none-eabi/13.2.1/../../../arm-none-eabi/lib/thumb/v7-m/nofp/libc_nano.a(libc_a-fvwrite.o)
 .debug_aranges
                0x00001170       0x20 /usr/lib/gcc/arm-none-eabi/13.2.1/../../../arm-none-eabi/lib/thumb/v7-m/nofp/libc_nano.a(libc_a-findfp.o)
 .debug_aranges
                0x00001190       0x20 /usr/lib/gcc/arm-none-eabi/13.2.1/../../../arm-none-eabi/lib/thumb/v7-m/nofp/libc_nano.a(libc_a-fflush.o)
 .debug_aranges
                0x000011b0       0x20 /usr/lib/gcc/arm-none-eabi/13.2.1/../../../arm-none-eabi/lib/thumb/v7-m/nofp/libc_nano.a(libc_a-mallocr.o)
 .debug_aranges
                0x000011d0       0x20 /usr/lib/gcc/arm-none-eabi/13.2.1/../../../arm-none-eabi/lib/thumb/v7-m/nofp/libc_nano.a(libc_a-freer.o)
 .debug_aranges
                0x000011f0       0x20 /usr/lib/gcc/arm-none-eabi/13.2.1/../../../arm-none-eabi/lib/thumb/v7-m/nofp/libc_nano.a(libc_a-memmove.o)
 .debug_aranges
                0x00001210       0x20 /usr/lib/gcc/arm-none-eabi/13.2.1/../../../arm-none-eabi/lib/thumb/v7-m/nofp/libc_nano.a(libc_a-fwalk.o)
 .debug_aranges
                0x00001230       0x20 /usr/lib/gcc/arm-none-eabi/13.2.1/../../../arm-none-eabi/lib/thumb/v7-m/nofp/libc_nano.a(libc_a-wsetup.o)
 .debug_aranges
                0x00001250       0x20 /usr/lib/gcc/arm-none-eabi/13.2.1/../../../arm-none-eabi/lib/thumb/v7-m/nofp/libc_nano.a(libc_a-reallocr.o)
 .debug_aranges
                0x00001270       0x20 /usr/lib/gcc/arm-none-eabi/13.2.1/../../../arm-none-eabi/lib/thumb/v7-m/nofp/libc_nano.a(libc_a-nano-vfprintf_i.o)
 .debug_aranges
                0x00001290       0x20 /usr/lib/gcc/arm-none-eabi/13.2.1/../../../arm-none-eabi/lib/thumb/v7-m/nofp/libc_nano.a(libc_a-mlock.o)
 .debug_aranges
                0x000012b0       0x20 /usr/lib/gcc/arm-none-eabi/13.2.1/../../../arm-none-eabi/lib/thumb/v7-m/nofp/libc_nano.a(libc_a-makebuf.o)
 .debug_aranges
                0x000012d0       0x20 /usr/lib/gcc/arm-none-eabi/13.2.1/../../../arm-none-eabi/lib/thumb/v7-m/nofp/libc_nano.a(libc_a-memchr-stub.o)
 .debug_aranges
                0x000012f0       0x20 /usr/lib/gcc/arm-none-eabi/13.2.1/../../../arm-none-eabi/lib/thumb/v7-m/nofp/libc_nano.a(libc_a-isattyr.o)
 .debug_aranges
                0x00001310       0x20 /usr/lib/gcc/arm-none-eabi/13.2.1/../../../arm-none-eabi/lib/thumb/v7-m/nofp/libc_nano.a(libc_a-sbrkr.o)
 .debug_aranges
                0x00001330       0x20 /usr/lib/gcc/arm-none-eabi/13.2.1/../../../arm-none-eabi/lib/thumb/v7-m/nofp/libc_nano.a(libc_a-stdio.o)
 .debug_aranges
                0x00001350       0x20 /usr/lib/gcc/arm-none-eabi/13.2.1/../../../arm-none-eabi/lib/thumb/v7-m/nofp/libc_nano.a(libc_a-msizer.o)
 .debug_aranges
                0x00001370       0x20 /usr/lib/gcc/arm-none-eabi/13.2.1/../../../arm-none-eabi/lib/thumb/v7-m/nofp/libc_nano.a(libc_a-closer.o)
 .debug_aranges
                0x00001390       0x20 /usr/lib/gcc/arm-none-eabi/13.2.1/../../../arm-none-eabi/lib/thumb/v7-m/nofp/libc_nano.a(libc_a-readr.o)
 .debug_aranges
                0x000013b0       0x20 /usr/lib/gcc/arm-none-eabi/13.2.1/../../../arm-none-eabi/lib/thumb/v7-m/nofp/libc_nano.a(libc_a-reent.o)
 .debug_aranges
                0x000013d0       0x20 /usr/lib/gcc/arm-none-eabi/13.2.1/../../../arm-none-eabi/lib/thumb/v7-m/nofp/libc_nano.a(libc_a-fstatr.o)
 .debug_aranges
                0x000013f0       0x20 /usr/lib/gcc/arm-none-eabi/13.2.1/../../../arm-none-eabi/lib/thumb/v7-m/nofp/libc_nano.a(libc_a-lseekr.o)
 .debug_aranges
                0x00001410       0x20 /usr/lib/gcc/arm-none-eabi/13.2.1/../../../arm-none-eabi/lib/thumb/v7-m/nofp/libc_nano.a(libc_a-writer.o)
 .debug_aranges
                0x00001430       0x20 /usr/lib/gcc/arm-none-eabi/13.2.1/../../../arm-none-eabi/lib/thumb/v7-m/nofp/libnosys.a(close.o)
 .debug_aranges
                0x00001450       0x20 /usr/lib/gcc/arm-none-eabi/13.2.1/../../../arm-none-eabi/lib/thumb/v7-m/nofp/libnosys.a(fstat.o)
 .debug_aranges
                0x00001470       0x20 /usr/lib/gcc/arm-none-eabi/13.2.1/../../../arm-none-eabi/lib/thumb/v7-m/nofp/libnosys.a(isatty.o)
 .debug_aranges
                0x00001490       0x20 /usr/lib/gcc/arm-none-eabi/13.2.1/../../../arm-none-eabi/lib/thumb/v7-m/nofp/libnosys.a(lseek.o)
 .debug_aranges
                0x000014b0       0x20 /usr/lib/gcc/arm-none-eabi/13.2.1/../../../arm-none-eabi/lib/thumb/v7-m/nofp/libnosys.a(read.o)
 .debug_aranges
                0x000014d0       0x20 /usr/lib/gcc/arm-none-eabi/13.2.1/../../../arm-none-eabi/lib/thumb/v7-m/nofp/libnosys.a(sbrk.o)
 .debug_aranges
                0x000014f0       0x20 /usr/lib/gcc/arm-none-eabi/13.2.1/../../../arm-none-eabi/lib/thumb/v7-m/nofp/libnosys.a(write.o)

.debug_ranges   0x00000000      0xf20
 .debug_ranges  0x00000000       0x78 /workspaces/hoverboard-firmware-hack-FOC/build/stm32f1xx_hal_flash.o
 .debug_ranges  0x00000078       0xa0 /workspaces/hoverboard-firmware-hack-FOC/build/stm32f1xx_hal_rcc.o
 .debug_ranges  0x00000118      0x358 /workspaces/hoverboard-firmware-hack-FOC/build/stm32f1xx_hal_tim.o
 .debug_ranges  0x00000470      0x128 /workspaces/hoverboard-firmware-hack-FOC/build/stm32f1xx_hal_tim_ex.o
 .debug_ranges  0x00000598       0x70 /workspaces/hoverboard-firmware-hack-FOC/build/stm32f1xx_hal_adc_ex.o
 .debug_ranges  0x00000608       0xa8 /workspaces/hoverboard-firmware-hack-FOC/build/stm32f1xx_hal_cortex.o
 .debug_ranges  0x000006b0       0x88 /workspaces/hoverboard-firmware-hack-FOC/build/stm32f1xx_hal_flash_ex.o
 .debug_ranges  0x00000738       0x48 /workspaces/hoverboard-firmware-hack-FOC/build/stm32f1xx_hal_gpio.o
 .debug_ranges  0x00000780       0x38 /workspaces/hoverboard-firmware-hack-FOC/build/stm32f1xx_hal_rcc_ex.o
 .debug_ranges  0x000007b8       0xa8 /workspaces/hoverboard-firmware-hack-FOC/build/stm32f1xx_hal.o
 .debug_ranges  0x00000860       0xe0 /workspaces/hoverboard-firmware-hack-FOC/build/stm32f1xx_hal_adc.o
 .debug_ranges  0x00000940      0x1c0 /workspaces/hoverboard-firmware-hack-FOC/build/stm32f1xx_hal_uart.o
 .debug_ranges  0x00000b00       0x70 /workspaces/hoverboard-firmware-hack-FOC/build/stm32f1xx_hal_dma.o
 .debug_ranges  0x00000b70       0x18 /workspaces/hoverboard-firmware-hack-FOC/build/system_stm32f1xx.o
 .debug_ranges  0x00000b88       0x58 /workspaces/hoverboard-firmware-hack-FOC/build/setup.o
 .debug_ranges  0x00000be0       0x30 /workspaces/hoverboard-firmware-hack-FOC/build/control.o
 .debug_ranges  0x00000c10      0x128 /workspaces/hoverboard-firmware-hack-FOC/build/util.o
 .debug_ranges  0x00000d38       0x30 /workspaces/hoverboard-firmware-hack-FOC/build/main.o
 .debug_ranges  0x00000d68       0x10 /workspaces/hoverboard-firmware-hack-FOC/build/bldc.o
 .debug_ranges  0x00000d78       0x48 /workspaces/hoverboard-firmware-hack-FOC/build/eeprom.o
 .debug_ranges  0x00000dc0       0x68 /workspaces/hoverboard-firmware-hack-FOC/build/stm32f1xx_it.o
 .debug_ranges  0x00000e28       0xd8 /workspaces/hoverboard-firmware-hack-FOC/build/BLDC_controller.o
 .debug_ranges  0x00000f00       0x20 /workspaces/hoverboard-firmware-hack-FOC/build/startup_stm32f103xe.o

.debug_line     0x00000000    0x16721
 .debug_line    0x00000000      0x66f /workspaces/hoverboard-firmware-hack-FOC/build/stm32f1xx_hal_flash.o
 .debug_line    0x0000066f      0xb1f /workspaces/hoverboard-firmware-hack-FOC/build/stm32f1xx_hal_rcc.o
 .debug_line    0x0000118e     0x2d9b /workspaces/hoverboard-firmware-hack-FOC/build/stm32f1xx_hal_tim.o
 .debug_line    0x00003f29      0xd8d /workspaces/hoverboard-firmware-hack-FOC/build/stm32f1xx_hal_tim_ex.o
 .debug_line    0x00004cb6      0xa80 /workspaces/hoverboard-firmware-hack-FOC/build/stm32f1xx_hal_adc_ex.o
 .debug_line    0x00005736      0x59d /workspaces/hoverboard-firmware-hack-FOC/build/stm32f1xx_hal_cortex.o
 .debug_line    0x00005cd3      0x868 /workspaces/hoverboard-firmware-hack-FOC/build/stm32f1xx_hal_flash_ex.o
 .debug_line    0x0000653b      0x544 /workspaces/hoverboard-firmware-hack-FOC/build/stm32f1xx_hal_gpio.o
 .debug_line    0x00006a7f      0x446 /workspaces/hoverboard-firmware-hack-FOC/build/stm32f1xx_hal_rcc_ex.o
 .debug_line    0x00006ec5      0x3af /workspaces/hoverboard-firmware-hack-FOC/build/stm32f1xx_hal.o
 .debug_line    0x00007274      0xda1 /workspaces/hoverboard-firmware-hack-FOC/build/stm32f1xx_hal_adc.o
 .debug_line    0x00008015     0x1739 /workspaces/hoverboard-firmware-hack-FOC/build/stm32f1xx_hal_uart.o
 .debug_line    0x0000974e      0xf26 /workspaces/hoverboard-firmware-hack-FOC/build/stm32f1xx_hal_dma.o
 .debug_line    0x0000a674      0x203 /workspaces/hoverboard-firmware-hack-FOC/build/system_stm32f1xx.o
 .debug_line    0x0000a877      0xb5a /workspaces/hoverboard-firmware-hack-FOC/build/setup.o
 .debug_line    0x0000b3d1      0x397 /workspaces/hoverboard-firmware-hack-FOC/build/control.o
 .debug_line    0x0000b768     0x1652 /workspaces/hoverboard-firmware-hack-FOC/build/util.o
 .debug_line    0x0000cdba      0x791 /workspaces/hoverboard-firmware-hack-FOC/build/main.o
 .debug_line    0x0000d54b      0x628 /workspaces/hoverboard-firmware-hack-FOC/build/bldc.o
 .debug_line    0x0000db73      0x7b2 /workspaces/hoverboard-firmware-hack-FOC/build/eeprom.o
 .debug_line    0x0000e325      0x289 /workspaces/hoverboard-firmware-hack-FOC/build/stm32f1xx_it.o
 .debug_line    0x0000e5ae       0x62 /workspaces/hoverboard-firmware-hack-FOC/build/BLDC_controller_data.o
 .debug_line    0x0000e610     0x2254 /workspaces/hoverboard-firmware-hack-FOC/build/BLDC_controller.o
 .debug_line    0x00010864       0x6f /workspaces/hoverboard-firmware-hack-FOC/build/startup_stm32f103xe.o
 .debug_line    0x000108d3      0x11e /usr/lib/gcc/arm-none-eabi/13.2.1/../../../arm-none-eabi/lib/thumb/v7-m/nofp/libc_nano.a(libc_a-init.o)
 .debug_line    0x000109f1      0x1b1 /usr/lib/gcc/arm-none-eabi/13.2.1/../../../arm-none-eabi/lib/thumb/v7-m/nofp/libc_nano.a(libc_a-memset.o)
 .debug_line    0x00010ba2       0xbd /usr/lib/gcc/arm-none-eabi/13.2.1/../../../arm-none-eabi/lib/thumb/v7-m/nofp/libc_nano.a(libc_a-memcpy.o)
 .debug_line    0x00010c5f      0x356 /usr/lib/gcc/arm-none-eabi/13.2.1/../../../arm-none-eabi/lib/thumb/v7-m/nofp/libc_nano.a(libc_a-snprintf.o)
 .debug_line    0x00010fb5      0x1c0 /usr/lib/gcc/arm-none-eabi/13.2.1/../../../arm-none-eabi/lib/thumb/v7-m/nofp/libc_nano.a(libc_a-printf.o)
 .debug_line    0x00011175      0x6b7 /usr/lib/gcc/arm-none-eabi/13.2.1/../../../arm-none-eabi/lib/thumb/v7-m/nofp/libc_nano.a(libc_a-nano-vfprintf.o)
 .debug_line    0x0001182c      0x253 /usr/lib/gcc/arm-none-eabi/13.2.1/../../../arm-none-eabi/lib/thumb/v7-m/nofp/libc_nano.a(libc_a-wbuf.o)
 .debug_line    0x00011a7f       0xe7 /usr/lib/gcc/arm-none-eabi/13.2.1/../../../arm-none-eabi/lib/thumb/v7-m/nofp/libc_nano.a(libc_a-impure.o)
 .debug_line    0x00011b66      0x862 /usr/lib/gcc/arm-none-eabi/13.2.1/../../../arm-none-eabi/lib/thumb/v7-m/nofp/libc_nano.a(libc_a-nano-svfprintf.o)
 .debug_line    0x000123c8      0x5f5 /usr/lib/gcc/arm-none-eabi/13.2.1/../../../arm-none-eabi/lib/thumb/v7-m/nofp/libc_nano.a(libc_a-fvwrite.o)
 .debug_line    0x000129bd      0x51f /usr/lib/gcc/arm-none-eabi/13.2.1/../../../arm-none-eabi/lib/thumb/v7-m/nofp/libc_nano.a(libc_a-findfp.o)
 .debug_line    0x00012edc      0x456 /usr/lib/gcc/arm-none-eabi/13.2.1/../../../arm-none-eabi/lib/thumb/v7-m/nofp/libc_nano.a(libc_a-fflush.o)
 .debug_line    0x00013332      0x45c /usr/lib/gcc/arm-none-eabi/13.2.1/../../../arm-none-eabi/lib/thumb/v7-m/nofp/libc_nano.a(libc_a-mallocr.o)
 .debug_line    0x0001378e      0x2c8 /usr/lib/gcc/arm-none-eabi/13.2.1/../../../arm-none-eabi/lib/thumb/v7-m/nofp/libc_nano.a(libc_a-freer.o)
 .debug_line    0x00013a56      0x20d /usr/lib/gcc/arm-none-eabi/13.2.1/../../../arm-none-eabi/lib/thumb/v7-m/nofp/libc_nano.a(libc_a-memmove.o)
 .debug_line    0x00013c63      0x1c9 /usr/lib/gcc/arm-none-eabi/13.2.1/../../../arm-none-eabi/lib/thumb/v7-m/nofp/libc_nano.a(libc_a-fwalk.o)
 .debug_line    0x00013e2c      0x2bd /usr/lib/gcc/arm-none-eabi/13.2.1/../../../arm-none-eabi/lib/thumb/v7-m/nofp/libc_nano.a(libc_a-wsetup.o)
 .debug_line    0x000140e9      0x1fa /usr/lib/gcc/arm-none-eabi/13.2.1/../../../arm-none-eabi/lib/thumb/v7-m/nofp/libc_nano.a(libc_a-reallocr.o)
 .debug_line    0x000142e3      0x770 /usr/lib/gcc/arm-none-eabi/13.2.1/../../../arm-none-eabi/lib/thumb/v7-m/nofp/libc_nano.a(libc_a-nano-vfprintf_i.o)
 .debug_line    0x00014a53      0x153 /usr/lib/gcc/arm-none-eabi/13.2.1/../../../arm-none-eabi/lib/thumb/v7-m/nofp/libc_nano.a(libc_a-mlock.o)
 .debug_line    0x00014ba6      0x3b0 /usr/lib/gcc/arm-none-eabi/13.2.1/../../../arm-none-eabi/lib/thumb/v7-m/nofp/libc_nano.a(libc_a-makebuf.o)
 .debug_line    0x00014f56      0x200 /usr/lib/gcc/arm-none-eabi/13.2.1/../../../arm-none-eabi/lib/thumb/v7-m/nofp/libc_nano.a(libc_a-memchr-stub.o)
 .debug_line    0x00015156      0x197 /usr/lib/gcc/arm-none-eabi/13.2.1/../../../arm-none-eabi/lib/thumb/v7-m/nofp/libc_nano.a(libc_a-isattyr.o)
 .debug_line    0x000152ed      0x196 /usr/lib/gcc/arm-none-eabi/13.2.1/../../../arm-none-eabi/lib/thumb/v7-m/nofp/libc_nano.a(libc_a-sbrkr.o)
 .debug_line    0x00015483      0x22b /usr/lib/gcc/arm-none-eabi/13.2.1/../../../arm-none-eabi/lib/thumb/v7-m/nofp/libc_nano.a(libc_a-stdio.o)
 .debug_line    0x000156ae      0x176 /usr/lib/gcc/arm-none-eabi/13.2.1/../../../arm-none-eabi/lib/thumb/v7-m/nofp/libc_nano.a(libc_a-msizer.o)
 .debug_line    0x00015824      0x196 /usr/lib/gcc/arm-none-eabi/13.2.1/../../../arm-none-eabi/lib/thumb/v7-m/nofp/libc_nano.a(libc_a-closer.o)
 .debug_line    0x000159ba      0x19c /usr/lib/gcc/arm-none-eabi/13.2.1/../../../arm-none-eabi/lib/thumb/v7-m/nofp/libc_nano.a(libc_a-readr.o)
 .debug_line    0x00015b56      0x27b /usr/lib/gcc/arm-none-eabi/13.2.1/../../../arm-none-eabi/lib/thumb/v7-m/nofp/libc_nano.a(libc_a-reent.o)
 .debug_line    0x00015dd1      0x215 /usr/lib/gcc/arm-none-eabi/13.2.1/../../../arm-none-eabi/lib/thumb/v7-m/nofp/libc_nano.a(libc_a-fstatr.o)
 .debug_line    0x00015fe6      0x19d /usr/lib/gcc/arm-none-eabi/13.2.1/../../../arm-none-eabi/lib/thumb/v7-m/nofp/libc_nano.a(libc_a-lseekr.o)
 .debug_line    0x00016183      0x19d /usr/lib/gcc/arm-none-eabi/13.2.1/../../../arm-none-eabi/lib/thumb/v7-m/nofp/libc_nano.a(libc_a-writer.o)
 .debug_line    0x00016320       0x72 /usr/lib/gcc/arm-none-eabi/13.2.1/../../../arm-none-eabi/lib/thumb/v7-m/nofp/libnosys.a(close.o)
 .debug_line    0x00016392      0x14e /usr/lib/gcc/arm-none-eabi/13.2.1/../../../arm-none-eabi/lib/thumb/v7-m/nofp/libnosys.a(fstat.o)
 .debug_line    0x000164e0       0x73 /usr/lib/gcc/arm-none-eabi/13.2.1/../../../arm-none-eabi/lib/thumb/v7-m/nofp/libnosys.a(isatty.o)
 .debug_line    0x00016553       0x73 /usr/lib/gcc/arm-none-eabi/13.2.1/../../../arm-none-eabi/lib/thumb/v7-m/nofp/libnosys.a(lseek.o)
 .debug_line    0x000165c6       0x72 /usr/lib/gcc/arm-none-eabi/13.2.1/../../../arm-none-eabi/lib/thumb/v7-m/nofp/libnosys.a(read.o)
 .debug_line    0x00016638       0x76 /usr/lib/gcc/arm-none-eabi/13.2.1/../../../arm-none-eabi/lib/thumb/v7-m/nofp/libnosys.a(sbrk.o)
 .debug_line    0x000166ae       0x73 /usr/lib/gcc/arm-none-eabi/13.2.1/../../../arm-none-eabi/lib/thumb/v7-m/nofp/libnosys.a(write.o)

.debug_str      0x00000000     0x6f70
 .debug_str     0x00000000     0x6f70 /workspaces/hoverboard-firmware-hack-FOC/build/stm32f1xx_hal_flash.o
                                0x4e4 (size before relaxing)
 .debug_str     0x00006f70      0x5db /workspaces/hoverboard-firmware-hack-FOC/build/stm32f1xx_hal_rcc.o
 .debug_str     0x00006f70     0x1318 /workspaces/hoverboard-firmware-hack-FOC/build/stm32f1xx_hal_tim.o
 .debug_str     0x00006f70      0xbd7 /workspaces/hoverboard-firmware-hack-FOC/build/stm32f1xx_hal_tim_ex.o
 .debug_str     0x00006f70      0x856 /workspaces/hoverboard-firmware-hack-FOC/build/stm32f1xx_hal_adc_ex.o
 .debug_str     0x00006f70      0x962 /workspaces/hoverboard-firmware-hack-FOC/build/stm32f1xx_hal_cortex.o
 .debug_str     0x00006f70      0x5fa /workspaces/hoverboard-firmware-hack-FOC/build/stm32f1xx_hal_flash_ex.o
 .debug_str     0x00006f70      0x3d0 /workspaces/hoverboard-firmware-hack-FOC/build/stm32f1xx_hal_gpio.o
 .debug_str     0x00006f70      0x3dc /workspaces/hoverboard-firmware-hack-FOC/build/stm32f1xx_hal_rcc_ex.o
 .debug_str     0x00006f70      0x808 /workspaces/hoverboard-firmware-hack-FOC/build/stm32f1xx_hal.o
 .debug_str     0x00006f70      0x87a /workspaces/hoverboard-firmware-hack-FOC/build/stm32f1xx_hal_adc.o
 .debug_str     0x00006f70      0xb20 /workspaces/hoverboard-firmware-hack-FOC/build/stm32f1xx_hal_uart.o
 .debug_str     0x00006f70      0x5d2 /workspaces/hoverboard-firmware-hack-FOC/build/stm32f1xx_hal_dma.o
 .debug_str     0x00006f70      0x278 /workspaces/hoverboard-firmware-hack-FOC/build/system_stm32f1xx.o
 .debug_str     0x00006f70     0x1415 /workspaces/hoverboard-firmware-hack-FOC/build/setup.o
 .debug_str     0x00006f70      0x95c /workspaces/hoverboard-firmware-hack-FOC/build/control.o
 .debug_str     0x00006f70     0x15b6 /workspaces/hoverboard-firmware-hack-FOC/build/util.o
 .debug_str     0x00006f70     0x1478 /workspaces/hoverboard-firmware-hack-FOC/build/main.o
 .debug_str     0x00006f70      0xc43 /workspaces/hoverboard-firmware-hack-FOC/build/bldc.o
 .debug_str     0x00006f70      0x39b /workspaces/hoverboard-firmware-hack-FOC/build/eeprom.o
 .debug_str     0x00006f70      0x64d /workspaces/hoverboard-firmware-hack-FOC/build/stm32f1xx_it.o
 .debug_str     0x00006f70      0x430 /workspaces/hoverboard-firmware-hack-FOC/build/BLDC_controller_data.o
 .debug_str     0x00006f70      0xf4f /workspaces/hoverboard-firmware-hack-FOC/build/BLDC_controller.o
 .debug_str     0x00006f70       0x59 /workspaces/hoverboard-firmware-hack-FOC/build/startup_stm32f103xe.o
 .debug_str     0x00006f70      0x1f2 /usr/lib/gcc/arm-none-eabi/13.2.1/../../../arm-none-eabi/lib/thumb/v7-m/nofp/libc_nano.a(libc_a-init.o)
 .debug_str     0x00006f70      0x1a5 /usr/lib/gcc/arm-none-eabi/13.2.1/../../../arm-none-eabi/lib/thumb/v7-m/nofp/libc_nano.a(libc_a-memset.o)
 .debug_str     0x00006f70       0xa8 /usr/lib/gcc/arm-none-eabi/13.2.1/../../../arm-none-eabi/lib/thumb/v7-m/nofp/libc_nano.a(libc_a-memcpy.o)
 .debug_str     0x00006f70      0x502 /usr/lib/gcc/arm-none-eabi/13.2.1/../../../arm-none-eabi/lib/thumb/v7-m/nofp/libc_nano.a(libc_a-snprintf.o)
 .debug_str     0x00006f70      0x4ef /usr/lib/gcc/arm-none-eabi/13.2.1/../../../arm-none-eabi/lib/thumb/v7-m/nofp/libc_nano.a(libc_a-printf.o)
 .debug_str     0x00006f70      0x821 /usr/lib/gcc/arm-none-eabi/13.2.1/../../../arm-none-eabi/lib/thumb/v7-m/nofp/libc_nano.a(libc_a-nano-vfprintf.o)
 .debug_str     0x00006f70      0x4ea /usr/lib/gcc/arm-none-eabi/13.2.1/../../../arm-none-eabi/lib/thumb/v7-m/nofp/libc_nano.a(libc_a-wbuf.o)
 .debug_str     0x00006f70      0x4b4 /usr/lib/gcc/arm-none-eabi/13.2.1/../../../arm-none-eabi/lib/thumb/v7-m/nofp/libc_nano.a(libc_a-impure.o)
 .debug_str     0x00006f70      0x7fd /usr/lib/gcc/arm-none-eabi/13.2.1/../../../arm-none-eabi/lib/thumb/v7-m/nofp/libc_nano.a(libc_a-nano-svfprintf.o)
 .debug_str     0x00006f70      0x558 /usr/lib/gcc/arm-none-eabi/13.2.1/../../../arm-none-eabi/lib/thumb/v7-m/nofp/libc_nano.a(libc_a-fvwrite.o)
 .debug_str     0x00006f70      0x6b7 /usr/lib/gcc/arm-none-eabi/13.2.1/../../../arm-none-eabi/lib/thumb/v7-m/nofp/libc_nano.a(libc_a-findfp.o)
 .debug_str     0x00006f70      0x53b /usr/lib/gcc/arm-none-eabi/13.2.1/../../../arm-none-eabi/lib/thumb/v7-m/nofp/libc_nano.a(libc_a-fflush.o)
 .debug_str     0x00006f70      0x595 /usr/lib/gcc/arm-none-eabi/13.2.1/../../../arm-none-eabi/lib/thumb/v7-m/nofp/libc_nano.a(libc_a-mallocr.o)
 .debug_str     0x00006f70      0x534 /usr/lib/gcc/arm-none-eabi/13.2.1/../../../arm-none-eabi/lib/thumb/v7-m/nofp/libc_nano.a(libc_a-freer.o)
 .debug_str     0x00006f70      0x1c4 /usr/lib/gcc/arm-none-eabi/13.2.1/../../../arm-none-eabi/lib/thumb/v7-m/nofp/libc_nano.a(libc_a-memmove.o)
 .debug_str     0x00006f70      0x4c4 /usr/lib/gcc/arm-none-eabi/13.2.1/../../../arm-none-eabi/lib/thumb/v7-m/nofp/libc_nano.a(libc_a-fwalk.o)
 .debug_str     0x00006f70      0x4e5 /usr/lib/gcc/arm-none-eabi/13.2.1/../../../arm-none-eabi/lib/thumb/v7-m/nofp/libc_nano.a(libc_a-wsetup.o)
 .debug_str     0x00006f70      0x52a /usr/lib/gcc/arm-none-eabi/13.2.1/../../../arm-none-eabi/lib/thumb/v7-m/nofp/libc_nano.a(libc_a-reallocr.o)
 .debug_str     0x00006f70      0x793 /usr/lib/gcc/arm-none-eabi/13.2.1/../../../arm-none-eabi/lib/thumb/v7-m/nofp/libc_nano.a(libc_a-nano-vfprintf_i.o)
 .debug_str     0x00006f70      0x4d2 /usr/lib/gcc/arm-none-eabi/13.2.1/../../../arm-none-eabi/lib/thumb/v7-m/nofp/libc_nano.a(libc_a-mlock.o)
 .debug_str     0x00006f70      0x647 /usr/lib/gcc/arm-none-eabi/13.2.1/../../../arm-none-eabi/lib/thumb/v7-m/nofp/libc_nano.a(libc_a-makebuf.o)
 .debug_str     0x00006f70      0x1b5 /usr/lib/gcc/arm-none-eabi/13.2.1/../../../arm-none-eabi/lib/thumb/v7-m/nofp/libc_nano.a(libc_a-memchr-stub.o)
 .debug_str     0x00006f70      0x4b4 /usr/lib/gcc/arm-none-eabi/13.2.1/../../../arm-none-eabi/lib/thumb/v7-m/nofp/libc_nano.a(libc_a-isattyr.o)
 .debug_str     0x00006f70      0x4bd /usr/lib/gcc/arm-none-eabi/13.2.1/../../../arm-none-eabi/lib/thumb/v7-m/nofp/libc_nano.a(libc_a-sbrkr.o)
 .debug_str     0x00006f70      0x521 /usr/lib/gcc/arm-none-eabi/13.2.1/../../../arm-none-eabi/lib/thumb/v7-m/nofp/libc_nano.a(libc_a-stdio.o)
 .debug_str     0x00006f70      0x4fd /usr/lib/gcc/arm-none-eabi/13.2.1/../../../arm-none-eabi/lib/thumb/v7-m/nofp/libc_nano.a(libc_a-msizer.o)
 .debug_str     0x00006f70      0x4aa /usr/lib/gcc/arm-none-eabi/13.2.1/../../../arm-none-eabi/lib/thumb/v7-m/nofp/libc_nano.a(libc_a-closer.o)
 .debug_str     0x00006f70      0x4b8 /usr/lib/gcc/arm-none-eabi/13.2.1/../../../arm-none-eabi/lib/thumb/v7-m/nofp/libc_nano.a(libc_a-readr.o)
 .debug_str     0x00006f70      0x4d3 /usr/lib/gcc/arm-none-eabi/13.2.1/../../../arm-none-eabi/lib/thumb/v7-m/nofp/libc_nano.a(libc_a-reent.o)
 .debug_str     0x00006f70      0x5fc /usr/lib/gcc/arm-none-eabi/13.2.1/../../../arm-none-eabi/lib/thumb/v7-m/nofp/libc_nano.a(libc_a-fstatr.o)
 .debug_str     0x00006f70      0x4b8 /usr/lib/gcc/arm-none-eabi/13.2.1/../../../arm-none-eabi/lib/thumb/v7-m/nofp/libc_nano.a(libc_a-lseekr.o)
 .debug_str     0x00006f70      0x4ba /usr/lib/gcc/arm-none-eabi/13.2.1/../../../arm-none-eabi/lib/thumb/v7-m/nofp/libc_nano.a(libc_a-writer.o)
 .debug_str     0x00006f70      0x190 /usr/lib/gcc/arm-none-eabi/13.2.1/../../../arm-none-eabi/lib/thumb/v7-m/nofp/libnosys.a(close.o)
 .debug_str     0x00006f70      0x2dc /usr/lib/gcc/arm-none-eabi/13.2.1/../../../arm-none-eabi/lib/thumb/v7-m/nofp/libnosys.a(fstat.o)
 .debug_str     0x00006f70      0x191 /usr/lib/gcc/arm-none-eabi/13.2.1/../../../arm-none-eabi/lib/thumb/v7-m/nofp/libnosys.a(isatty.o)
 .debug_str     0x00006f70      0x18e /usr/lib/gcc/arm-none-eabi/13.2.1/../../../arm-none-eabi/lib/thumb/v7-m/nofp/libnosys.a(lseek.o)
 .debug_str     0x00006f70      0x18b /usr/lib/gcc/arm-none-eabi/13.2.1/../../../arm-none-eabi/lib/thumb/v7-m/nofp/libnosys.a(read.o)
 .debug_str     0x00006f70      0x115 /usr/lib/gcc/arm-none-eabi/13.2.1/../../../arm-none-eabi/lib/thumb/v7-m/nofp/libnosys.a(sbrk.o)
 .debug_str     0x00006f70      0x18e /usr/lib/gcc/arm-none-eabi/13.2.1/../../../arm-none-eabi/lib/thumb/v7-m/nofp/libnosys.a(write.o)

.debug_frame    0x00000000     0x34cc
 .debug_frame   0x00000000      0x134 /workspaces/hoverboard-firmware-hack-FOC/build/stm32f1xx_hal_flash.o
 .debug_frame   0x00000134      0x160 /workspaces/hoverboard-firmware-hack-FOC/build/stm32f1xx_hal_rcc.o
 .debug_frame   0x00000294      0x9b0 /workspaces/hoverboard-firmware-hack-FOC/build/stm32f1xx_hal_tim.o
 .debug_frame   0x00000c44      0x374 /workspaces/hoverboard-firmware-hack-FOC/build/stm32f1xx_hal_tim_ex.o
 .debug_frame   0x00000fb8      0x19c /workspaces/hoverboard-firmware-hack-FOC/build/stm32f1xx_hal_adc_ex.o
 .debug_frame   0x00001154      0x184 /workspaces/hoverboard-firmware-hack-FOC/build/stm32f1xx_hal_cortex.o
 .debug_frame   0x000012d8      0x194 /workspaces/hoverboard-firmware-hack-FOC/build/stm32f1xx_hal_flash_ex.o
 .debug_frame   0x0000146c       0xe0 /workspaces/hoverboard-firmware-hack-FOC/build/stm32f1xx_hal_gpio.o
 .debug_frame   0x0000154c       0x64 /workspaces/hoverboard-firmware-hack-FOC/build/stm32f1xx_hal_rcc_ex.o
 .debug_frame   0x000015b0      0x178 /workspaces/hoverboard-firmware-hack-FOC/build/stm32f1xx_hal.o
 .debug_frame   0x00001728      0x2cc /workspaces/hoverboard-firmware-hack-FOC/build/stm32f1xx_hal_adc.o
 .debug_frame   0x000019f4      0x4f0 /workspaces/hoverboard-firmware-hack-FOC/build/stm32f1xx_hal_uart.o
 .debug_frame   0x00001ee4      0x140 /workspaces/hoverboard-firmware-hack-FOC/build/stm32f1xx_hal_dma.o
 .debug_frame   0x00002024       0x30 /workspaces/hoverboard-firmware-hack-FOC/build/system_stm32f1xx.o
 .debug_frame   0x00002054      0x164 /workspaces/hoverboard-firmware-hack-FOC/build/setup.o
 .debug_frame   0x000021b8       0x9c /workspaces/hoverboard-firmware-hack-FOC/build/control.o
 .debug_frame   0x00002254      0x350 /workspaces/hoverboard-firmware-hack-FOC/build/util.o
 .debug_frame   0x000025a4       0x50 /workspaces/hoverboard-firmware-hack-FOC/build/main.o
 .debug_frame   0x000025f4       0x38 /workspaces/hoverboard-firmware-hack-FOC/build/bldc.o
 .debug_frame   0x0000262c       0xf4 /workspaces/hoverboard-firmware-hack-FOC/build/eeprom.o
 .debug_frame   0x00002720       0xf8 /workspaces/hoverboard-firmware-hack-FOC/build/stm32f1xx_it.o
 .debug_frame   0x00002818      0x244 /workspaces/hoverboard-firmware-hack-FOC/build/BLDC_controller.o
 .debug_frame   0x00002a5c       0x2c /usr/lib/gcc/arm-none-eabi/13.2.1/../../../arm-none-eabi/lib/thumb/v7-m/nofp/libc_nano.a(libc_a-init.o)
 .debug_frame   0x00002a88       0x2c /usr/lib/gcc/arm-none-eabi/13.2.1/../../../arm-none-eabi/lib/thumb/v7-m/nofp/libc_nano.a(libc_a-memset.o)
 .debug_frame   0x00002ab4       0x94 /usr/lib/gcc/arm-none-eabi/13.2.1/../../../arm-none-eabi/lib/thumb/v7-m/nofp/libc_nano.a(libc_a-snprintf.o)
 .debug_frame   0x00002b48       0x74 /usr/lib/gcc/arm-none-eabi/13.2.1/../../../arm-none-eabi/lib/thumb/v7-m/nofp/libc_nano.a(libc_a-printf.o)
 .debug_frame   0x00002bbc       0xac /usr/lib/gcc/arm-none-eabi/13.2.1/../../../arm-none-eabi/lib/thumb/v7-m/nofp/libc_nano.a(libc_a-nano-vfprintf.o)
 .debug_frame   0x00002c68       0x40 /usr/lib/gcc/arm-none-eabi/13.2.1/../../../arm-none-eabi/lib/thumb/v7-m/nofp/libc_nano.a(libc_a-wbuf.o)
 .debug_frame   0x00002ca8       0x98 /usr/lib/gcc/arm-none-eabi/13.2.1/../../../arm-none-eabi/lib/thumb/v7-m/nofp/libc_nano.a(libc_a-nano-svfprintf.o)
 .debug_frame   0x00002d40       0x64 /usr/lib/gcc/arm-none-eabi/13.2.1/../../../arm-none-eabi/lib/thumb/v7-m/nofp/libc_nano.a(libc_a-fvwrite.o)
 .debug_frame   0x00002da4       0xf4 /usr/lib/gcc/arm-none-eabi/13.2.1/../../../arm-none-eabi/lib/thumb/v7-m/nofp/libc_nano.a(libc_a-findfp.o)
 .debug_frame   0x00002e98       0x8c /usr/lib/gcc/arm-none-eabi/13.2.1/../../../arm-none-eabi/lib/thumb/v7-m/nofp/libc_nano.a(libc_a-fflush.o)
 .debug_frame   0x00002f24       0x50 /usr/lib/gcc/arm-none-eabi/13.2.1/../../../arm-none-eabi/lib/thumb/v7-m/nofp/libc_nano.a(libc_a-mallocr.o)
 .debug_frame   0x00002f74       0x58 /usr/lib/gcc/arm-none-eabi/13.2.1/../../../arm-none-eabi/lib/thumb/v7-m/nofp/libc_nano.a(libc_a-freer.o)
 .debug_frame   0x00002fcc       0x40 /usr/lib/gcc/arm-none-eabi/13.2.1/../../../arm-none-eabi/lib/thumb/v7-m/nofp/libc_nano.a(libc_a-memmove.o)
 .debug_frame   0x0000300c       0x34 /usr/lib/gcc/arm-none-eabi/13.2.1/../../../arm-none-eabi/lib/thumb/v7-m/nofp/libc_nano.a(libc_a-fwalk.o)
 .debug_frame   0x00003040       0x2c /usr/lib/gcc/arm-none-eabi/13.2.1/../../../arm-none-eabi/lib/thumb/v7-m/nofp/libc_nano.a(libc_a-wsetup.o)
 .debug_frame   0x0000306c       0x38 /usr/lib/gcc/arm-none-eabi/13.2.1/../../../arm-none-eabi/lib/thumb/v7-m/nofp/libc_nano.a(libc_a-reallocr.o)
 .debug_frame   0x000030a4       0x6c /usr/lib/gcc/arm-none-eabi/13.2.1/../../../arm-none-eabi/lib/thumb/v7-m/nofp/libc_nano.a(libc_a-nano-vfprintf_i.o)
 .debug_frame   0x00003110       0x30 /usr/lib/gcc/arm-none-eabi/13.2.1/../../../arm-none-eabi/lib/thumb/v7-m/nofp/libc_nano.a(libc_a-mlock.o)
 .debug_frame   0x00003140       0x60 /usr/lib/gcc/arm-none-eabi/13.2.1/../../../arm-none-eabi/lib/thumb/v7-m/nofp/libc_nano.a(libc_a-makebuf.o)
 .debug_frame   0x000031a0       0x2c /usr/lib/gcc/arm-none-eabi/13.2.1/../../../arm-none-eabi/lib/thumb/v7-m/nofp/libc_nano.a(libc_a-memchr-stub.o)
 .debug_frame   0x000031cc       0x2c /usr/lib/gcc/arm-none-eabi/13.2.1/../../../arm-none-eabi/lib/thumb/v7-m/nofp/libc_nano.a(libc_a-isattyr.o)
 .debug_frame   0x000031f8       0x2c /usr/lib/gcc/arm-none-eabi/13.2.1/../../../arm-none-eabi/lib/thumb/v7-m/nofp/libc_nano.a(libc_a-sbrkr.o)
 .debug_frame   0x00003224       0x8c /usr/lib/gcc/arm-none-eabi/13.2.1/../../../arm-none-eabi/lib/thumb/v7-m/nofp/libc_nano.a(libc_a-stdio.o)
 .debug_frame   0x000032b0       0x20 /usr/lib/gcc/arm-none-eabi/13.2.1/../../../arm-none-eabi/lib/thumb/v7-m/nofp/libc_nano.a(libc_a-msizer.o)
 .debug_frame   0x000032d0       0x2c /usr/lib/gcc/arm-none-eabi/13.2.1/../../../arm-none-eabi/lib/thumb/v7-m/nofp/libc_nano.a(libc_a-closer.o)
 .debug_frame   0x000032fc       0x2c /usr/lib/gcc/arm-none-eabi/13.2.1/../../../arm-none-eabi/lib/thumb/v7-m/nofp/libc_nano.a(libc_a-readr.o)
 .debug_frame   0x00003328       0x40 /usr/lib/gcc/arm-none-eabi/13.2.1/../../../arm-none-eabi/lib/thumb/v7-m/nofp/libc_nano.a(libc_a-reent.o)
 .debug_frame   0x00003368       0x2c /usr/lib/gcc/arm-none-eabi/13.2.1/../../../arm-none-eabi/lib/thumb/v7-m/nofp/libc_nano.a(libc_a-fstatr.o)
 .debug_frame   0x00003394       0x2c /usr/lib/gcc/arm-none-eabi/13.2.1/../../../arm-none-eabi/lib/thumb/v7-m/nofp/libc_nano.a(libc_a-lseekr.o)
 .debug_frame   0x000033c0       0x2c /usr/lib/gcc/arm-none-eabi/13.2.1/../../../arm-none-eabi/lib/thumb/v7-m/nofp/libc_nano.a(libc_a-writer.o)
 .debug_frame   0x000033ec       0x20 /usr/lib/gcc/arm-none-eabi/13.2.1/../../../arm-none-eabi/lib/thumb/v7-m/nofp/libnosys.a(close.o)
 .debug_frame   0x0000340c       0x20 /usr/lib/gcc/arm-none-eabi/13.2.1/../../../arm-none-eabi/lib/thumb/v7-m/nofp/libnosys.a(fstat.o)
 .debug_frame   0x0000342c       0x20 /usr/lib/gcc/arm-none-eabi/13.2.1/../../../arm-none-eabi/lib/thumb/v7-m/nofp/libnosys.a(isatty.o)
 .debug_frame   0x0000344c       0x20 /usr/lib/gcc/arm-none-eabi/13.2.1/../../../arm-none-eabi/lib/thumb/v7-m/nofp/libnosys.a(lseek.o)
 .debug_frame   0x0000346c       0x20 /usr/lib/gcc/arm-none-eabi/13.2.1/../../../arm-none-eabi/lib/thumb/v7-m/nofp/libnosys.a(read.o)
 .debug_frame   0x0000348c       0x20 /usr/lib/gcc/arm-none-eabi/13.2.1/../../../arm-none-eabi/lib/thumb/v7-m/nofp/libnosys.a(sbrk.o)
 .debug_frame   0x000034ac       0x20 /usr/lib/gcc/arm-none-eabi/13.2.1/../../../arm-none-eabi/lib/thumb/v7-m/nofp/libnosys.a(write.o)

.debug_loclists
                0x00000000     0x2fb1
 .debug_loclists
                0x00000000       0x65 /usr/lib/gcc/arm-none-eabi/13.2.1/../../../arm-none-eabi/lib/thumb/v7-m/nofp/libc_nano.a(libc_a-init.o)
 .debug_loclists
                0x00000065      0x1d7 /usr/lib/gcc/arm-none-eabi/13.2.1/../../../arm-none-eabi/lib/thumb/v7-m/nofp/libc_nano.a(libc_a-memset.o)
 .debug_loclists
                0x0000023c      0x214 /usr/lib/gcc/arm-none-eabi/13.2.1/../../../arm-none-eabi/lib/thumb/v7-m/nofp/libc_nano.a(libc_a-snprintf.o)
 .debug_loclists
                0x00000450       0x3c /usr/lib/gcc/arm-none-eabi/13.2.1/../../../arm-none-eabi/lib/thumb/v7-m/nofp/libc_nano.a(libc_a-printf.o)
 .debug_loclists
                0x0000048c      0x58a /usr/lib/gcc/arm-none-eabi/13.2.1/../../../arm-none-eabi/lib/thumb/v7-m/nofp/libc_nano.a(libc_a-nano-vfprintf.o)
 .debug_loclists
                0x00000a16      0x104 /usr/lib/gcc/arm-none-eabi/13.2.1/../../../arm-none-eabi/lib/thumb/v7-m/nofp/libc_nano.a(libc_a-wbuf.o)
 .debug_loclists
                0x00000b1a      0x531 /usr/lib/gcc/arm-none-eabi/13.2.1/../../../arm-none-eabi/lib/thumb/v7-m/nofp/libc_nano.a(libc_a-nano-svfprintf.o)
 .debug_loclists
                0x0000104b      0x3f8 /usr/lib/gcc/arm-none-eabi/13.2.1/../../../arm-none-eabi/lib/thumb/v7-m/nofp/libc_nano.a(libc_a-fvwrite.o)
 .debug_loclists
                0x00001443      0x1d0 /usr/lib/gcc/arm-none-eabi/13.2.1/../../../arm-none-eabi/lib/thumb/v7-m/nofp/libc_nano.a(libc_a-findfp.o)
 .debug_loclists
                0x00001613      0x2f2 /usr/lib/gcc/arm-none-eabi/13.2.1/../../../arm-none-eabi/lib/thumb/v7-m/nofp/libc_nano.a(libc_a-fflush.o)
 .debug_loclists
                0x00001905      0x273 /usr/lib/gcc/arm-none-eabi/13.2.1/../../../arm-none-eabi/lib/thumb/v7-m/nofp/libc_nano.a(libc_a-mallocr.o)
 .debug_loclists
                0x00001b78      0x164 /usr/lib/gcc/arm-none-eabi/13.2.1/../../../arm-none-eabi/lib/thumb/v7-m/nofp/libc_nano.a(libc_a-freer.o)
 .debug_loclists
                0x00001cdc      0x21b /usr/lib/gcc/arm-none-eabi/13.2.1/../../../arm-none-eabi/lib/thumb/v7-m/nofp/libc_nano.a(libc_a-memmove.o)
 .debug_loclists
                0x00001ef7       0x79 /usr/lib/gcc/arm-none-eabi/13.2.1/../../../arm-none-eabi/lib/thumb/v7-m/nofp/libc_nano.a(libc_a-fwalk.o)
 .debug_loclists
                0x00001f70       0x61 /usr/lib/gcc/arm-none-eabi/13.2.1/../../../arm-none-eabi/lib/thumb/v7-m/nofp/libc_nano.a(libc_a-wsetup.o)
 .debug_loclists
                0x00001fd1      0x102 /usr/lib/gcc/arm-none-eabi/13.2.1/../../../arm-none-eabi/lib/thumb/v7-m/nofp/libc_nano.a(libc_a-reallocr.o)
 .debug_loclists
                0x000020d3      0x444 /usr/lib/gcc/arm-none-eabi/13.2.1/../../../arm-none-eabi/lib/thumb/v7-m/nofp/libc_nano.a(libc_a-nano-vfprintf_i.o)
 .debug_loclists
                0x00002517      0x1b4 /usr/lib/gcc/arm-none-eabi/13.2.1/../../../arm-none-eabi/lib/thumb/v7-m/nofp/libc_nano.a(libc_a-makebuf.o)
 .debug_loclists
                0x000026cb      0x172 /usr/lib/gcc/arm-none-eabi/13.2.1/../../../arm-none-eabi/lib/thumb/v7-m/nofp/libc_nano.a(libc_a-memchr-stub.o)
 .debug_loclists
                0x0000283d       0x4b /usr/lib/gcc/arm-none-eabi/13.2.1/../../../arm-none-eabi/lib/thumb/v7-m/nofp/libc_nano.a(libc_a-isattyr.o)
 .debug_loclists
                0x00002888       0x4b /usr/lib/gcc/arm-none-eabi/13.2.1/../../../arm-none-eabi/lib/thumb/v7-m/nofp/libc_nano.a(libc_a-sbrkr.o)
 .debug_loclists
                0x000028d3      0x23b /usr/lib/gcc/arm-none-eabi/13.2.1/../../../arm-none-eabi/lib/thumb/v7-m/nofp/libc_nano.a(libc_a-stdio.o)
 .debug_loclists
                0x00002b0e       0x59 /usr/lib/gcc/arm-none-eabi/13.2.1/../../../arm-none-eabi/lib/thumb/v7-m/nofp/libc_nano.a(libc_a-msizer.o)
 .debug_loclists
                0x00002b67       0x4b /usr/lib/gcc/arm-none-eabi/13.2.1/../../../arm-none-eabi/lib/thumb/v7-m/nofp/libc_nano.a(libc_a-closer.o)
 .debug_loclists
                0x00002bb2       0x97 /usr/lib/gcc/arm-none-eabi/13.2.1/../../../arm-none-eabi/lib/thumb/v7-m/nofp/libc_nano.a(libc_a-readr.o)
 .debug_loclists
                0x00002c49       0x80 /usr/lib/gcc/arm-none-eabi/13.2.1/../../../arm-none-eabi/lib/thumb/v7-m/nofp/libc_nano.a(libc_a-reent.o)
 .debug_loclists
                0x00002cc9       0x6a /usr/lib/gcc/arm-none-eabi/13.2.1/../../../arm-none-eabi/lib/thumb/v7-m/nofp/libc_nano.a(libc_a-fstatr.o)
 .debug_loclists
                0x00002d33       0x97 /usr/lib/gcc/arm-none-eabi/13.2.1/../../../arm-none-eabi/lib/thumb/v7-m/nofp/libc_nano.a(libc_a-lseekr.o)
 .debug_loclists
                0x00002dca       0x97 /usr/lib/gcc/arm-none-eabi/13.2.1/../../../arm-none-eabi/lib/thumb/v7-m/nofp/libc_nano.a(libc_a-writer.o)
 .debug_loclists
                0x00002e61       0x24 /usr/lib/gcc/arm-none-eabi/13.2.1/../../../arm-none-eabi/lib/thumb/v7-m/nofp/libnosys.a(close.o)
 .debug_loclists
                0x00002e85       0x24 /usr/lib/gcc/arm-none-eabi/13.2.1/../../../arm-none-eabi/lib/thumb/v7-m/nofp/libnosys.a(fstat.o)
 .debug_loclists
                0x00002ea9       0x24 /usr/lib/gcc/arm-none-eabi/13.2.1/../../../arm-none-eabi/lib/thumb/v7-m/nofp/libnosys.a(isatty.o)
 .debug_loclists
                0x00002ecd       0x3c /usr/lib/gcc/arm-none-eabi/13.2.1/../../../arm-none-eabi/lib/thumb/v7-m/nofp/libnosys.a(lseek.o)
 .debug_loclists
                0x00002f09       0x3c /usr/lib/gcc/arm-none-eabi/13.2.1/../../../arm-none-eabi/lib/thumb/v7-m/nofp/libnosys.a(read.o)
 .debug_loclists
                0x00002f45       0x30 /usr/lib/gcc/arm-none-eabi/13.2.1/../../../arm-none-eabi/lib/thumb/v7-m/nofp/libnosys.a(sbrk.o)
 .debug_loclists
                0x00002f75       0x3c /usr/lib/gcc/arm-none-eabi/13.2.1/../../../arm-none-eabi/lib/thumb/v7-m/nofp/libnosys.a(write.o)

.debug_line_str
                0x00000000       0x95
 .debug_line_str
                0x00000000       0x95 /usr/lib/gcc/arm-none-eabi/13.2.1/../../../arm-none-eabi/lib/thumb/v7-m/nofp/libc_nano.a(libc_a-memcpy.o)

.debug_rnglists
                0x00000000      0x24c
 .debug_rnglists
                0x00000000       0x1a /usr/lib/gcc/arm-none-eabi/13.2.1/../../../arm-none-eabi/lib/thumb/v7-m/nofp/libc_nano.a(libc_a-nano-vfprintf.o)
 .debug_rnglists
                0x0000001a       0x1b /usr/lib/gcc/arm-none-eabi/13.2.1/../../../arm-none-eabi/lib/thumb/v7-m/nofp/libc_nano.a(libc_a-wbuf.o)
 .debug_rnglists
                0x00000035       0x42 /usr/lib/gcc/arm-none-eabi/13.2.1/../../../arm-none-eabi/lib/thumb/v7-m/nofp/libc_nano.a(libc_a-nano-svfprintf.o)
 .debug_rnglists
                0x00000077       0x30 /usr/lib/gcc/arm-none-eabi/13.2.1/../../../arm-none-eabi/lib/thumb/v7-m/nofp/libc_nano.a(libc_a-fvwrite.o)
 .debug_rnglists
                0x000000a7       0x7a /usr/lib/gcc/arm-none-eabi/13.2.1/../../../arm-none-eabi/lib/thumb/v7-m/nofp/libc_nano.a(libc_a-findfp.o)
 .debug_rnglists
                0x00000121       0x58 /usr/lib/gcc/arm-none-eabi/13.2.1/../../../arm-none-eabi/lib/thumb/v7-m/nofp/libc_nano.a(libc_a-fflush.o)
 .debug_rnglists
                0x00000179       0x1f /usr/lib/gcc/arm-none-eabi/13.2.1/../../../arm-none-eabi/lib/thumb/v7-m/nofp/libc_nano.a(libc_a-mallocr.o)
 .debug_rnglists
                0x00000198       0x13 /usr/lib/gcc/arm-none-eabi/13.2.1/../../../arm-none-eabi/lib/thumb/v7-m/nofp/libc_nano.a(libc_a-freer.o)
 .debug_rnglists
                0x000001ab       0x1e /usr/lib/gcc/arm-none-eabi/13.2.1/../../../arm-none-eabi/lib/thumb/v7-m/nofp/libc_nano.a(libc_a-wsetup.o)
 .debug_rnglists
                0x000001c9       0x66 /usr/lib/gcc/arm-none-eabi/13.2.1/../../../arm-none-eabi/lib/thumb/v7-m/nofp/libc_nano.a(libc_a-nano-vfprintf_i.o)
 .debug_rnglists
                0x0000022f       0x1d /usr/lib/gcc/arm-none-eabi/13.2.1/../../../arm-none-eabi/lib/thumb/v7-m/nofp/libc_nano.a(libc_a-makebuf.o)

Cross Reference Table

Symbol                                            File
ADC1_2_IRQHandler                                 /workspaces/hoverboard-firmware-hack-FOC/build/startup_stm32f103xe.o
ADC3_IRQHandler                                   /workspaces/hoverboard-firmware-hack-FOC/build/startup_stm32f103xe.o
ADC_ConversionStop_Disable                        /workspaces/hoverboard-firmware-hack-FOC/build/stm32f1xx_hal_adc.o
                                                  /workspaces/hoverboard-firmware-hack-FOC/build/stm32f1xx_hal_adc_ex.o
ADC_DMAConvCplt                                   /workspaces/hoverboard-firmware-hack-FOC/build/stm32f1xx_hal_adc.o
                                                  /workspaces/hoverboard-firmware-hack-FOC/build/stm32f1xx_hal_adc_ex.o
ADC_DMAError                                      /workspaces/hoverboard-firmware-hack-FOC/build/stm32f1xx_hal_adc.o
                                                  /workspaces/hoverboard-firmware-hack-FOC/build/stm32f1xx_hal_adc_ex.o
ADC_DMAHalfConvCplt                               /workspaces/hoverboard-firmware-hack-FOC/build/stm32f1xx_hal_adc.o
                                                  /workspaces/hoverboard-firmware-hack-FOC/build/stm32f1xx_hal_adc_ex.o
ADC_Enable                                        /workspaces/hoverboard-firmware-hack-FOC/build/stm32f1xx_hal_adc.o
                                                  /workspaces/hoverboard-firmware-hack-FOC/build/stm32f1xx_hal_adc_ex.o
AHBPrescTable                                     /workspaces/hoverboard-firmware-hack-FOC/build/system_stm32f1xx.o
                                                  /workspaces/hoverboard-firmware-hack-FOC/build/stm32f1xx_hal_rcc.o
APBPrescTable                                     /workspaces/hoverboard-firmware-hack-FOC/build/system_stm32f1xx.o
                                                  /workspaces/hoverboard-firmware-hack-FOC/build/stm32f1xx_hal_rcc.o
BLDC_Init                                         /workspaces/hoverboard-firmware-hack-FOC/build/util.o
                                                  /workspaces/hoverboard-firmware-hack-FOC/build/main.o
BLDC_controller_initialize                        /workspaces/hoverboard-firmware-hack-FOC/build/BLDC_controller.o
                                                  /workspaces/hoverboard-firmware-hack-FOC/build/util.o
BLDC_controller_step                              /workspaces/hoverboard-firmware-hack-FOC/build/BLDC_controller.o
                                                  /workspaces/hoverboard-firmware-hack-FOC/build/bldc.o
BusFault_Handler                                  /workspaces/hoverboard-firmware-hack-FOC/build/stm32f1xx_it.o
CAN1_RX1_IRQHandler                               /workspaces/hoverboard-firmware-hack-FOC/build/startup_stm32f103xe.o
CAN1_SCE_IRQHandler                               /workspaces/hoverboard-firmware-hack-FOC/build/startup_stm32f103xe.o
Counter                                           /workspaces/hoverboard-firmware-hack-FOC/build/BLDC_controller.o
Counter_Init                                      /workspaces/hoverboard-firmware-hack-FOC/build/BLDC_controller.o
Counter_b_Init                                    /workspaces/hoverboard-firmware-hack-FOC/build/BLDC_controller.o
Counter_n                                         /workspaces/hoverboard-firmware-hack-FOC/build/BLDC_controller.o
DMA1_Channel1_IRQHandler                          /workspaces/hoverboard-firmware-hack-FOC/build/bldc.o
DMA1_Channel2_IRQHandler                          /workspaces/hoverboard-firmware-hack-FOC/build/stm32f1xx_it.o
DMA1_Channel3_IRQHandler                          /workspaces/hoverboard-firmware-hack-FOC/build/stm32f1xx_it.o
DMA1_Channel4_IRQHandler                          /workspaces/hoverboard-firmware-hack-FOC/build/startup_stm32f103xe.o
DMA1_Channel5_IRQHandler                          /workspaces/hoverboard-firmware-hack-FOC/build/startup_stm32f103xe.o
DMA1_Channel6_IRQHandler                          /workspaces/hoverboard-firmware-hack-FOC/build/startup_stm32f103xe.o
DMA1_Channel7_IRQHandler                          /workspaces/hoverboard-firmware-hack-FOC/build/startup_stm32f103xe.o
DMA2_Channel1_IRQHandler                          /workspaces/hoverboard-firmware-hack-FOC/build/startup_stm32f103xe.o
DMA2_Channel2_IRQHandler                          /workspaces/hoverboard-firmware-hack-FOC/build/startup_stm32f103xe.o
DMA2_Channel3_IRQHandler                          /workspaces/hoverboard-firmware-hack-FOC/build/startup_stm32f103xe.o
DMA2_Channel4_5_IRQHandler                        /workspaces/hoverboard-firmware-hack-FOC/build/startup_stm32f103xe.o
DataVar                                           /workspaces/hoverboard-firmware-hack-FOC/build/eeprom.o
Debounce_Filter                                   /workspaces/hoverboard-firmware-hack-FOC/build/BLDC_controller.o
Debounce_Filter_Init                              /workspaces/hoverboard-firmware-hack-FOC/build/BLDC_controller.o
DebugMon_Handler                                  /workspaces/hoverboard-firmware-hack-FOC/build/stm32f1xx_it.o
Default_Handler                                   /workspaces/hoverboard-firmware-hack-FOC/build/startup_stm32f103xe.o
EE_Init                                           /workspaces/hoverboard-firmware-hack-FOC/build/eeprom.o
                                                  /workspaces/hoverboard-firmware-hack-FOC/build/util.o
EE_ReadVariable                                   /workspaces/hoverboard-firmware-hack-FOC/build/eeprom.o
                                                  /workspaces/hoverboard-firmware-hack-FOC/build/util.o
EE_WriteVariable                                  /workspaces/hoverboard-firmware-hack-FOC/build/eeprom.o
                                                  /workspaces/hoverboard-firmware-hack-FOC/build/util.o
EXTI0_IRQHandler                                  /workspaces/hoverboard-firmware-hack-FOC/build/startup_stm32f103xe.o
EXTI15_10_IRQHandler                              /workspaces/hoverboard-firmware-hack-FOC/build/startup_stm32f103xe.o
EXTI1_IRQHandler                                  /workspaces/hoverboard-firmware-hack-FOC/build/startup_stm32f103xe.o
EXTI2_IRQHandler                                  /workspaces/hoverboard-firmware-hack-FOC/build/startup_stm32f103xe.o
EXTI3_IRQHandler                                  /workspaces/hoverboard-firmware-hack-FOC/build/startup_stm32f103xe.o
EXTI4_IRQHandler                                  /workspaces/hoverboard-firmware-hack-FOC/build/startup_stm32f103xe.o
EXTI9_5_IRQHandler                                /workspaces/hoverboard-firmware-hack-FOC/build/startup_stm32f103xe.o
FLASH_IRQHandler                                  /workspaces/hoverboard-firmware-hack-FOC/build/startup_stm32f103xe.o
FLASH_PageErase                                   /workspaces/hoverboard-firmware-hack-FOC/build/stm32f1xx_hal_flash_ex.o
                                                  /workspaces/hoverboard-firmware-hack-FOC/build/stm32f1xx_hal_flash.o
FLASH_WaitForLastOperation                        /workspaces/hoverboard-firmware-hack-FOC/build/stm32f1xx_hal_flash.o
                                                  /workspaces/hoverboard-firmware-hack-FOC/build/stm32f1xx_hal_flash_ex.o
FSMC_IRQHandler                                   /workspaces/hoverboard-firmware-hack-FOC/build/startup_stm32f103xe.o
HAL_ADCEx_Calibration_Start                       /workspaces/hoverboard-firmware-hack-FOC/build/stm32f1xx_hal_adc_ex.o
HAL_ADCEx_InjectedConfigChannel                   /workspaces/hoverboard-firmware-hack-FOC/build/stm32f1xx_hal_adc_ex.o
HAL_ADCEx_InjectedConvCpltCallback                /workspaces/hoverboard-firmware-hack-FOC/build/stm32f1xx_hal_adc_ex.o
                                                  /workspaces/hoverboard-firmware-hack-FOC/build/stm32f1xx_hal_adc.o
HAL_ADCEx_InjectedGetValue                        /workspaces/hoverboard-firmware-hack-FOC/build/stm32f1xx_hal_adc_ex.o
HAL_ADCEx_InjectedPollForConversion               /workspaces/hoverboard-firmware-hack-FOC/build/stm32f1xx_hal_adc_ex.o
HAL_ADCEx_InjectedStart                           /workspaces/hoverboard-firmware-hack-FOC/build/stm32f1xx_hal_adc_ex.o
HAL_ADCEx_InjectedStart_IT                        /workspaces/hoverboard-firmware-hack-FOC/build/stm32f1xx_hal_adc_ex.o
HAL_ADCEx_InjectedStop                            /workspaces/hoverboard-firmware-hack-FOC/build/stm32f1xx_hal_adc_ex.o
HAL_ADCEx_InjectedStop_IT                         /workspaces/hoverboard-firmware-hack-FOC/build/stm32f1xx_hal_adc_ex.o
HAL_ADCEx_MultiModeConfigChannel                  /workspaces/hoverboard-firmware-hack-FOC/build/stm32f1xx_hal_adc_ex.o
                                                  /workspaces/hoverboard-firmware-hack-FOC/build/setup.o
HAL_ADCEx_MultiModeGetValue                       /workspaces/hoverboard-firmware-hack-FOC/build/stm32f1xx_hal_adc_ex.o
HAL_ADCEx_MultiModeStart_DMA                      /workspaces/hoverboard-firmware-hack-FOC/build/stm32f1xx_hal_adc_ex.o
HAL_ADCEx_MultiModeStop_DMA                       /workspaces/hoverboard-firmware-hack-FOC/build/stm32f1xx_hal_adc_ex.o
HAL_ADC_AnalogWDGConfig                           /workspaces/hoverboard-firmware-hack-FOC/build/stm32f1xx_hal_adc.o
HAL_ADC_ConfigChannel                             /workspaces/hoverboard-firmware-hack-FOC/build/stm32f1xx_hal_adc.o
                                                  /workspaces/hoverboard-firmware-hack-FOC/build/setup.o
HAL_ADC_ConvCpltCallback                          /workspaces/hoverboard-firmware-hack-FOC/build/stm32f1xx_hal_adc.o
HAL_ADC_ConvHalfCpltCallback                      /workspaces/hoverboard-firmware-hack-FOC/build/stm32f1xx_hal_adc.o
HAL_ADC_DeInit                                    /workspaces/hoverboard-firmware-hack-FOC/build/stm32f1xx_hal_adc.o
HAL_ADC_ErrorCallback                             /workspaces/hoverboard-firmware-hack-FOC/build/stm32f1xx_hal_adc.o
HAL_ADC_GetError                                  /workspaces/hoverboard-firmware-hack-FOC/build/stm32f1xx_hal_adc.o
HAL_ADC_GetState                                  /workspaces/hoverboard-firmware-hack-FOC/build/stm32f1xx_hal_adc.o
HAL_ADC_GetValue                                  /workspaces/hoverboard-firmware-hack-FOC/build/stm32f1xx_hal_adc.o
HAL_ADC_IRQHandler                                /workspaces/hoverboard-firmware-hack-FOC/build/stm32f1xx_hal_adc.o
HAL_ADC_Init                                      /workspaces/hoverboard-firmware-hack-FOC/build/stm32f1xx_hal_adc.o
                                                  /workspaces/hoverboard-firmware-hack-FOC/build/setup.o
HAL_ADC_LevelOutOfWindowCallback                  /workspaces/hoverboard-firmware-hack-FOC/build/stm32f1xx_hal_adc.o
HAL_ADC_MspDeInit                                 /workspaces/hoverboard-firmware-hack-FOC/build/stm32f1xx_hal_adc.o
HAL_ADC_MspInit                                   /workspaces/hoverboard-firmware-hack-FOC/build/stm32f1xx_hal_adc.o
HAL_ADC_PollForConversion                         /workspaces/hoverboard-firmware-hack-FOC/build/stm32f1xx_hal_adc.o
HAL_ADC_PollForEvent                              /workspaces/hoverboard-firmware-hack-FOC/build/stm32f1xx_hal_adc.o
HAL_ADC_Start                                     /workspaces/hoverboard-firmware-hack-FOC/build/stm32f1xx_hal_adc.o
                                                  /workspaces/hoverboard-firmware-hack-FOC/build/main.o
HAL_ADC_Start_DMA                                 /workspaces/hoverboard-firmware-hack-FOC/build/stm32f1xx_hal_adc.o
HAL_ADC_Start_IT                                  /workspaces/hoverboard-firmware-hack-FOC/build/stm32f1xx_hal_adc.o
HAL_ADC_Stop                                      /workspaces/hoverboard-firmware-hack-FOC/build/stm32f1xx_hal_adc.o
HAL_ADC_Stop_DMA                                  /workspaces/hoverboard-firmware-hack-FOC/build/stm32f1xx_hal_adc.o
HAL_ADC_Stop_IT                                   /workspaces/hoverboard-firmware-hack-FOC/build/stm32f1xx_hal_adc.o
HAL_DBGMCU_DisableDBGSleepMode                    /workspaces/hoverboard-firmware-hack-FOC/build/stm32f1xx_hal.o
HAL_DBGMCU_DisableDBGStandbyMode                  /workspaces/hoverboard-firmware-hack-FOC/build/stm32f1xx_hal.o
HAL_DBGMCU_DisableDBGStopMode                     /workspaces/hoverboard-firmware-hack-FOC/build/stm32f1xx_hal.o
HAL_DBGMCU_EnableDBGSleepMode                     /workspaces/hoverboard-firmware-hack-FOC/build/stm32f1xx_hal.o
HAL_DBGMCU_EnableDBGStandbyMode                   /workspaces/hoverboard-firmware-hack-FOC/build/stm32f1xx_hal.o
HAL_DBGMCU_EnableDBGStopMode                      /workspaces/hoverboard-firmware-hack-FOC/build/stm32f1xx_hal.o
HAL_DMA_Abort                                     /workspaces/hoverboard-firmware-hack-FOC/build/stm32f1xx_hal_dma.o
                                                  /workspaces/hoverboard-firmware-hack-FOC/build/stm32f1xx_hal_uart.o
                                                  /workspaces/hoverboard-firmware-hack-FOC/build/stm32f1xx_hal_adc.o
                                                  /workspaces/hoverboard-firmware-hack-FOC/build/stm32f1xx_hal_adc_ex.o
                                                  /workspaces/hoverboard-firmware-hack-FOC/build/stm32f1xx_hal_tim.o
HAL_DMA_Abort_IT                                  /workspaces/hoverboard-firmware-hack-FOC/build/stm32f1xx_hal_dma.o
                                                  /workspaces/hoverboard-firmware-hack-FOC/build/stm32f1xx_hal_i2c.o
                                                  /workspaces/hoverboard-firmware-hack-FOC/build/stm32f1xx_hal_uart.o
HAL_DMA_DeInit                                    /workspaces/hoverboard-firmware-hack-FOC/build/stm32f1xx_hal_dma.o
                                                  /workspaces/hoverboard-firmware-hack-FOC/build/setup.o
HAL_DMA_GetError                                  /workspaces/hoverboard-firmware-hack-FOC/build/stm32f1xx_hal_dma.o
HAL_DMA_GetState                                  /workspaces/hoverboard-firmware-hack-FOC/build/stm32f1xx_hal_dma.o
HAL_DMA_IRQHandler                                /workspaces/hoverboard-firmware-hack-FOC/build/stm32f1xx_hal_dma.o
                                                  /workspaces/hoverboard-firmware-hack-FOC/build/stm32f1xx_it.o
HAL_DMA_Init                                      /workspaces/hoverboard-firmware-hack-FOC/build/stm32f1xx_hal_dma.o
                                                  /workspaces/hoverboard-firmware-hack-FOC/build/setup.o
HAL_DMA_PollForTransfer                           /workspaces/hoverboard-firmware-hack-FOC/build/stm32f1xx_hal_dma.o
HAL_DMA_RegisterCallback                          /workspaces/hoverboard-firmware-hack-FOC/build/stm32f1xx_hal_dma.o
HAL_DMA_Start                                     /workspaces/hoverboard-firmware-hack-FOC/build/stm32f1xx_hal_dma.o
HAL_DMA_Start_IT                                  /workspaces/hoverboard-firmware-hack-FOC/build/stm32f1xx_hal_dma.o
                                                  /workspaces/hoverboard-firmware-hack-FOC/build/stm32f1xx_hal_i2c.o
                                                  /workspaces/hoverboard-firmware-hack-FOC/build/stm32f1xx_hal_uart.o
                                                  /workspaces/hoverboard-firmware-hack-FOC/build/stm32f1xx_hal_adc.o
                                                  /workspaces/hoverboard-firmware-hack-FOC/build/stm32f1xx_hal_adc_ex.o
                                                  /workspaces/hoverboard-firmware-hack-FOC/build/stm32f1xx_hal_tim_ex.o
                                                  /workspaces/hoverboard-firmware-hack-FOC/build/stm32f1xx_hal_tim.o
HAL_DMA_UnRegisterCallback                        /workspaces/hoverboard-firmware-hack-FOC/build/stm32f1xx_hal_dma.o
HAL_DeInit                                        /workspaces/hoverboard-firmware-hack-FOC/build/stm32f1xx_hal.o
HAL_Delay                                         /workspaces/hoverboard-firmware-hack-FOC/build/stm32f1xx_hal.o
                                                  /workspaces/hoverboard-firmware-hack-FOC/build/hd44780.o
                                                  /workspaces/hoverboard-firmware-hack-FOC/build/main.o
                                                  /workspaces/hoverboard-firmware-hack-FOC/build/util.o
                                                  /workspaces/hoverboard-firmware-hack-FOC/build/control.o
HAL_FLASHEx_Erase                                 /workspaces/hoverboard-firmware-hack-FOC/build/stm32f1xx_hal_flash_ex.o
                                                  /workspaces/hoverboard-firmware-hack-FOC/build/eeprom.o
HAL_FLASHEx_Erase_IT                              /workspaces/hoverboard-firmware-hack-FOC/build/stm32f1xx_hal_flash_ex.o
HAL_FLASHEx_OBErase                               /workspaces/hoverboard-firmware-hack-FOC/build/stm32f1xx_hal_flash_ex.o
HAL_FLASHEx_OBGetConfig                           /workspaces/hoverboard-firmware-hack-FOC/build/stm32f1xx_hal_flash_ex.o
HAL_FLASHEx_OBGetUserData                         /workspaces/hoverboard-firmware-hack-FOC/build/stm32f1xx_hal_flash_ex.o
HAL_FLASHEx_OBProgram                             /workspaces/hoverboard-firmware-hack-FOC/build/stm32f1xx_hal_flash_ex.o
HAL_FLASH_EndOfOperationCallback                  /workspaces/hoverboard-firmware-hack-FOC/build/stm32f1xx_hal_flash.o
HAL_FLASH_GetError                                /workspaces/hoverboard-firmware-hack-FOC/build/stm32f1xx_hal_flash.o
HAL_FLASH_IRQHandler                              /workspaces/hoverboard-firmware-hack-FOC/build/stm32f1xx_hal_flash.o
HAL_FLASH_Lock                                    /workspaces/hoverboard-firmware-hack-FOC/build/stm32f1xx_hal_flash.o
                                                  /workspaces/hoverboard-firmware-hack-FOC/build/util.o
HAL_FLASH_OB_Launch                               /workspaces/hoverboard-firmware-hack-FOC/build/stm32f1xx_hal_flash.o
HAL_FLASH_OB_Lock                                 /workspaces/hoverboard-firmware-hack-FOC/build/stm32f1xx_hal_flash.o
HAL_FLASH_OB_Unlock                               /workspaces/hoverboard-firmware-hack-FOC/build/stm32f1xx_hal_flash.o
HAL_FLASH_OperationErrorCallback                  /workspaces/hoverboard-firmware-hack-FOC/build/stm32f1xx_hal_flash.o
HAL_FLASH_Program                                 /workspaces/hoverboard-firmware-hack-FOC/build/stm32f1xx_hal_flash.o
                                                  /workspaces/hoverboard-firmware-hack-FOC/build/eeprom.o
HAL_FLASH_Program_IT                              /workspaces/hoverboard-firmware-hack-FOC/build/stm32f1xx_hal_flash.o
HAL_FLASH_Unlock                                  /workspaces/hoverboard-firmware-hack-FOC/build/stm32f1xx_hal_flash.o
                                                  /workspaces/hoverboard-firmware-hack-FOC/build/util.o
HAL_GPIOEx_ConfigEventout                         /workspaces/hoverboard-firmware-hack-FOC/build/stm32f1xx_hal_gpio_ex.o
HAL_GPIOEx_DisableEventout                        /workspaces/hoverboard-firmware-hack-FOC/build/stm32f1xx_hal_gpio_ex.o
HAL_GPIOEx_EnableEventout                         /workspaces/hoverboard-firmware-hack-FOC/build/stm32f1xx_hal_gpio_ex.o
HAL_GPIO_DeInit                                   /workspaces/hoverboard-firmware-hack-FOC/build/stm32f1xx_hal_gpio.o
                                                  /workspaces/hoverboard-firmware-hack-FOC/build/setup.o
HAL_GPIO_EXTI_Callback                            /workspaces/hoverboard-firmware-hack-FOC/build/stm32f1xx_hal_gpio.o
HAL_GPIO_EXTI_IRQHandler                          /workspaces/hoverboard-firmware-hack-FOC/build/stm32f1xx_hal_gpio.o
HAL_GPIO_Init                                     /workspaces/hoverboard-firmware-hack-FOC/build/stm32f1xx_hal_gpio.o
                                                  /workspaces/hoverboard-firmware-hack-FOC/build/setup.o
                                                  /workspaces/hoverboard-firmware-hack-FOC/build/stm32f1xx_hal_rcc.o
HAL_GPIO_LockPin                                  /workspaces/hoverboard-firmware-hack-FOC/build/stm32f1xx_hal_gpio.o
HAL_GPIO_ReadPin                                  /workspaces/hoverboard-firmware-hack-FOC/build/stm32f1xx_hal_gpio.o
                                                  /workspaces/hoverboard-firmware-hack-FOC/build/main.o
                                                  /workspaces/hoverboard-firmware-hack-FOC/build/util.o
HAL_GPIO_TogglePin                                /workspaces/hoverboard-firmware-hack-FOC/build/stm32f1xx_hal_gpio.o
                                                  /workspaces/hoverboard-firmware-hack-FOC/build/bldc.o
HAL_GPIO_WritePin                                 /workspaces/hoverboard-firmware-hack-FOC/build/stm32f1xx_hal_gpio.o
                                                  /workspaces/hoverboard-firmware-hack-FOC/build/bldc.o
                                                  /workspaces/hoverboard-firmware-hack-FOC/build/main.o
                                                  /workspaces/hoverboard-firmware-hack-FOC/build/util.o
HAL_GetDEVID                                      /workspaces/hoverboard-firmware-hack-FOC/build/stm32f1xx_hal.o
HAL_GetHalVersion                                 /workspaces/hoverboard-firmware-hack-FOC/build/stm32f1xx_hal.o
HAL_GetREVID                                      /workspaces/hoverboard-firmware-hack-FOC/build/stm32f1xx_hal.o
HAL_GetTick                                       /workspaces/hoverboard-firmware-hack-FOC/build/stm32f1xx_hal.o
                                                  /workspaces/hoverboard-firmware-hack-FOC/build/main.o
                                                  /workspaces/hoverboard-firmware-hack-FOC/build/util.o
                                                  /workspaces/hoverboard-firmware-hack-FOC/build/stm32f1xx_hal_dma.o
                                                  /workspaces/hoverboard-firmware-hack-FOC/build/stm32f1xx_hal_i2c.o
                                                  /workspaces/hoverboard-firmware-hack-FOC/build/stm32f1xx_hal_uart.o
                                                  /workspaces/hoverboard-firmware-hack-FOC/build/stm32f1xx_hal_adc.o
                                                  /workspaces/hoverboard-firmware-hack-FOC/build/stm32f1xx_hal_rcc_ex.o
                                                  /workspaces/hoverboard-firmware-hack-FOC/build/stm32f1xx_hal_adc_ex.o
                                                  /workspaces/hoverboard-firmware-hack-FOC/build/stm32f1xx_hal_rcc.o
                                                  /workspaces/hoverboard-firmware-hack-FOC/build/stm32f1xx_hal_flash.o
HAL_GetUID                                        /workspaces/hoverboard-firmware-hack-FOC/build/stm32f1xx_hal.o
HAL_HalfDuplex_EnableReceiver                     /workspaces/hoverboard-firmware-hack-FOC/build/stm32f1xx_hal_uart.o
HAL_HalfDuplex_EnableTransmitter                  /workspaces/hoverboard-firmware-hack-FOC/build/stm32f1xx_hal_uart.o
HAL_HalfDuplex_Init                               /workspaces/hoverboard-firmware-hack-FOC/build/stm32f1xx_hal_uart.o
HAL_I2C_AbortCpltCallback                         /workspaces/hoverboard-firmware-hack-FOC/build/stm32f1xx_hal_i2c.o
HAL_I2C_AddrCallback                              /workspaces/hoverboard-firmware-hack-FOC/build/stm32f1xx_hal_i2c.o
HAL_I2C_DeInit                                    /workspaces/hoverboard-firmware-hack-FOC/build/stm32f1xx_hal_i2c.o
                                                  /workspaces/hoverboard-firmware-hack-FOC/build/pcf8574.o
HAL_I2C_DisableListen_IT                          /workspaces/hoverboard-firmware-hack-FOC/build/stm32f1xx_hal_i2c.o
HAL_I2C_ER_IRQHandler                             /workspaces/hoverboard-firmware-hack-FOC/build/stm32f1xx_hal_i2c.o
HAL_I2C_EV_IRQHandler                             /workspaces/hoverboard-firmware-hack-FOC/build/stm32f1xx_hal_i2c.o
HAL_I2C_EnableListen_IT                           /workspaces/hoverboard-firmware-hack-FOC/build/stm32f1xx_hal_i2c.o
HAL_I2C_ErrorCallback                             /workspaces/hoverboard-firmware-hack-FOC/build/stm32f1xx_hal_i2c.o
HAL_I2C_GetError                                  /workspaces/hoverboard-firmware-hack-FOC/build/stm32f1xx_hal_i2c.o
HAL_I2C_GetMode                                   /workspaces/hoverboard-firmware-hack-FOC/build/stm32f1xx_hal_i2c.o
HAL_I2C_GetState                                  /workspaces/hoverboard-firmware-hack-FOC/build/stm32f1xx_hal_i2c.o
HAL_I2C_Init                                      /workspaces/hoverboard-firmware-hack-FOC/build/stm32f1xx_hal_i2c.o
                                                  /workspaces/hoverboard-firmware-hack-FOC/build/setup.o
HAL_I2C_IsDeviceReady                             /workspaces/hoverboard-firmware-hack-FOC/build/stm32f1xx_hal_i2c.o
HAL_I2C_ListenCpltCallback                        /workspaces/hoverboard-firmware-hack-FOC/build/stm32f1xx_hal_i2c.o
HAL_I2C_MasterRxCpltCallback                      /workspaces/hoverboard-firmware-hack-FOC/build/stm32f1xx_hal_i2c.o
HAL_I2C_MasterTxCpltCallback                      /workspaces/hoverboard-firmware-hack-FOC/build/stm32f1xx_hal_i2c.o
HAL_I2C_Master_Abort_IT                           /workspaces/hoverboard-firmware-hack-FOC/build/stm32f1xx_hal_i2c.o
HAL_I2C_Master_Receive                            /workspaces/hoverboard-firmware-hack-FOC/build/stm32f1xx_hal_i2c.o
                                                  /workspaces/hoverboard-firmware-hack-FOC/build/pcf8574.o
                                                  /workspaces/hoverboard-firmware-hack-FOC/build/control.o
HAL_I2C_Master_Receive_DMA                        /workspaces/hoverboard-firmware-hack-FOC/build/stm32f1xx_hal_i2c.o
HAL_I2C_Master_Receive_IT                         /workspaces/hoverboard-firmware-hack-FOC/build/stm32f1xx_hal_i2c.o
HAL_I2C_Master_Sequential_Receive_IT              /workspaces/hoverboard-firmware-hack-FOC/build/stm32f1xx_hal_i2c.o
HAL_I2C_Master_Sequential_Transmit_IT             /workspaces/hoverboard-firmware-hack-FOC/build/stm32f1xx_hal_i2c.o
HAL_I2C_Master_Transmit                           /workspaces/hoverboard-firmware-hack-FOC/build/stm32f1xx_hal_i2c.o
                                                  /workspaces/hoverboard-firmware-hack-FOC/build/pcf8574.o
                                                  /workspaces/hoverboard-firmware-hack-FOC/build/control.o
HAL_I2C_Master_Transmit_DMA                       /workspaces/hoverboard-firmware-hack-FOC/build/stm32f1xx_hal_i2c.o
HAL_I2C_Master_Transmit_IT                        /workspaces/hoverboard-firmware-hack-FOC/build/stm32f1xx_hal_i2c.o
HAL_I2C_MemRxCpltCallback                         /workspaces/hoverboard-firmware-hack-FOC/build/stm32f1xx_hal_i2c.o
HAL_I2C_MemTxCpltCallback                         /workspaces/hoverboard-firmware-hack-FOC/build/stm32f1xx_hal_i2c.o
HAL_I2C_Mem_Read                                  /workspaces/hoverboard-firmware-hack-FOC/build/stm32f1xx_hal_i2c.o
HAL_I2C_Mem_Read_DMA                              /workspaces/hoverboard-firmware-hack-FOC/build/stm32f1xx_hal_i2c.o
HAL_I2C_Mem_Read_IT                               /workspaces/hoverboard-firmware-hack-FOC/build/stm32f1xx_hal_i2c.o
HAL_I2C_Mem_Write                                 /workspaces/hoverboard-firmware-hack-FOC/build/stm32f1xx_hal_i2c.o
HAL_I2C_Mem_Write_DMA                             /workspaces/hoverboard-firmware-hack-FOC/build/stm32f1xx_hal_i2c.o
HAL_I2C_Mem_Write_IT                              /workspaces/hoverboard-firmware-hack-FOC/build/stm32f1xx_hal_i2c.o
HAL_I2C_MspDeInit                                 /workspaces/hoverboard-firmware-hack-FOC/build/stm32f1xx_hal_i2c.o
HAL_I2C_MspInit                                   /workspaces/hoverboard-firmware-hack-FOC/build/stm32f1xx_hal_i2c.o
HAL_I2C_SlaveRxCpltCallback                       /workspaces/hoverboard-firmware-hack-FOC/build/stm32f1xx_hal_i2c.o
HAL_I2C_SlaveTxCpltCallback                       /workspaces/hoverboard-firmware-hack-FOC/build/stm32f1xx_hal_i2c.o
HAL_I2C_Slave_Receive                             /workspaces/hoverboard-firmware-hack-FOC/build/stm32f1xx_hal_i2c.o
HAL_I2C_Slave_Receive_DMA                         /workspaces/hoverboard-firmware-hack-FOC/build/stm32f1xx_hal_i2c.o
HAL_I2C_Slave_Receive_IT                          /workspaces/hoverboard-firmware-hack-FOC/build/stm32f1xx_hal_i2c.o
HAL_I2C_Slave_Sequential_Receive_IT               /workspaces/hoverboard-firmware-hack-FOC/build/stm32f1xx_hal_i2c.o
HAL_I2C_Slave_Sequential_Transmit_IT              /workspaces/hoverboard-firmware-hack-FOC/build/stm32f1xx_hal_i2c.o
HAL_I2C_Slave_Transmit                            /workspaces/hoverboard-firmware-hack-FOC/build/stm32f1xx_hal_i2c.o
HAL_I2C_Slave_Transmit_DMA                        /workspaces/hoverboard-firmware-hack-FOC/build/stm32f1xx_hal_i2c.o
HAL_I2C_Slave_Transmit_IT                         /workspaces/hoverboard-firmware-hack-FOC/build/stm32f1xx_hal_i2c.o
HAL_IncTick                                       /workspaces/hoverboard-firmware-hack-FOC/build/stm32f1xx_hal.o
                                                  /workspaces/hoverboard-firmware-hack-FOC/build/stm32f1xx_it.o
HAL_Init                                          /workspaces/hoverboard-firmware-hack-FOC/build/stm32f1xx_hal.o
                                                  /workspaces/hoverboard-firmware-hack-FOC/build/main.o
HAL_InitTick                                      /workspaces/hoverboard-firmware-hack-FOC/build/stm32f1xx_hal.o
                                                  /workspaces/hoverboard-firmware-hack-FOC/build/stm32f1xx_hal_rcc.o
HAL_LIN_Init                                      /workspaces/hoverboard-firmware-hack-FOC/build/stm32f1xx_hal_uart.o
HAL_LIN_SendBreak                                 /workspaces/hoverboard-firmware-hack-FOC/build/stm32f1xx_hal_uart.o
HAL_MspDeInit                                     /workspaces/hoverboard-firmware-hack-FOC/build/stm32f1xx_hal.o
HAL_MspInit                                       /workspaces/hoverboard-firmware-hack-FOC/build/stm32f1xx_hal.o
HAL_MultiProcessor_EnterMuteMode                  /workspaces/hoverboard-firmware-hack-FOC/build/stm32f1xx_hal_uart.o
HAL_MultiProcessor_ExitMuteMode                   /workspaces/hoverboard-firmware-hack-FOC/build/stm32f1xx_hal_uart.o
HAL_MultiProcessor_Init                           /workspaces/hoverboard-firmware-hack-FOC/build/stm32f1xx_hal_uart.o
HAL_NVIC_ClearPendingIRQ                          /workspaces/hoverboard-firmware-hack-FOC/build/stm32f1xx_hal_cortex.o
HAL_NVIC_DisableIRQ                               /workspaces/hoverboard-firmware-hack-FOC/build/stm32f1xx_hal_cortex.o
                                                  /workspaces/hoverboard-firmware-hack-FOC/build/setup.o
HAL_NVIC_EnableIRQ                                /workspaces/hoverboard-firmware-hack-FOC/build/stm32f1xx_hal_cortex.o
                                                  /workspaces/hoverboard-firmware-hack-FOC/build/setup.o
HAL_NVIC_GetActive                                /workspaces/hoverboard-firmware-hack-FOC/build/stm32f1xx_hal_cortex.o
HAL_NVIC_GetPendingIRQ                            /workspaces/hoverboard-firmware-hack-FOC/build/stm32f1xx_hal_cortex.o
HAL_NVIC_GetPriority                              /workspaces/hoverboard-firmware-hack-FOC/build/stm32f1xx_hal_cortex.o
HAL_NVIC_GetPriorityGrouping                      /workspaces/hoverboard-firmware-hack-FOC/build/stm32f1xx_hal_cortex.o
HAL_NVIC_SetPendingIRQ                            /workspaces/hoverboard-firmware-hack-FOC/build/stm32f1xx_hal_cortex.o
HAL_NVIC_SetPriority                              /workspaces/hoverboard-firmware-hack-FOC/build/stm32f1xx_hal_cortex.o
                                                  /workspaces/hoverboard-firmware-hack-FOC/build/main.o
                                                  /workspaces/hoverboard-firmware-hack-FOC/build/setup.o
                                                  /workspaces/hoverboard-firmware-hack-FOC/build/stm32f1xx_hal.o
HAL_NVIC_SetPriorityGrouping                      /workspaces/hoverboard-firmware-hack-FOC/build/stm32f1xx_hal_cortex.o
                                                  /workspaces/hoverboard-firmware-hack-FOC/build/main.o
                                                  /workspaces/hoverboard-firmware-hack-FOC/build/stm32f1xx_hal.o
HAL_NVIC_SystemReset                              /workspaces/hoverboard-firmware-hack-FOC/build/stm32f1xx_hal_cortex.o
                                                  /workspaces/hoverboard-firmware-hack-FOC/build/stm32f1xx_hal_flash.o
HAL_PWR_ConfigPVD                                 /workspaces/hoverboard-firmware-hack-FOC/build/stm32f1xx_hal_pwr.o
HAL_PWR_DeInit                                    /workspaces/hoverboard-firmware-hack-FOC/build/stm32f1xx_hal_pwr.o
HAL_PWR_DisableBkUpAccess                         /workspaces/hoverboard-firmware-hack-FOC/build/stm32f1xx_hal_pwr.o
HAL_PWR_DisablePVD                                /workspaces/hoverboard-firmware-hack-FOC/build/stm32f1xx_hal_pwr.o
HAL_PWR_DisableSEVOnPend                          /workspaces/hoverboard-firmware-hack-FOC/build/stm32f1xx_hal_pwr.o
HAL_PWR_DisableSleepOnExit                        /workspaces/hoverboard-firmware-hack-FOC/build/stm32f1xx_hal_pwr.o
HAL_PWR_DisableWakeUpPin                          /workspaces/hoverboard-firmware-hack-FOC/build/stm32f1xx_hal_pwr.o
HAL_PWR_EnableBkUpAccess                          /workspaces/hoverboard-firmware-hack-FOC/build/stm32f1xx_hal_pwr.o
HAL_PWR_EnablePVD                                 /workspaces/hoverboard-firmware-hack-FOC/build/stm32f1xx_hal_pwr.o
HAL_PWR_EnableSEVOnPend                           /workspaces/hoverboard-firmware-hack-FOC/build/stm32f1xx_hal_pwr.o
HAL_PWR_EnableSleepOnExit                         /workspaces/hoverboard-firmware-hack-FOC/build/stm32f1xx_hal_pwr.o
HAL_PWR_EnableWakeUpPin                           /workspaces/hoverboard-firmware-hack-FOC/build/stm32f1xx_hal_pwr.o
HAL_PWR_EnterSLEEPMode                            /workspaces/hoverboard-firmware-hack-FOC/build/stm32f1xx_hal_pwr.o
HAL_PWR_EnterSTANDBYMode                          /workspaces/hoverboard-firmware-hack-FOC/build/stm32f1xx_hal_pwr.o
HAL_PWR_EnterSTOPMode                             /workspaces/hoverboard-firmware-hack-FOC/build/stm32f1xx_hal_pwr.o
HAL_PWR_PVDCallback                               /workspaces/hoverboard-firmware-hack-FOC/build/stm32f1xx_hal_pwr.o
HAL_PWR_PVD_IRQHandler                            /workspaces/hoverboard-firmware-hack-FOC/build/stm32f1xx_hal_pwr.o
HAL_RCCEx_GetPeriphCLKConfig                      /workspaces/hoverboard-firmware-hack-FOC/build/stm32f1xx_hal_rcc_ex.o
HAL_RCCEx_GetPeriphCLKFreq                        /workspaces/hoverboard-firmware-hack-FOC/build/stm32f1xx_hal_rcc_ex.o
                                                  /workspaces/hoverboard-firmware-hack-FOC/build/stm32f1xx_hal_adc.o
                                                  /workspaces/hoverboard-firmware-hack-FOC/build/stm32f1xx_hal_adc_ex.o
HAL_RCCEx_PeriphCLKConfig                         /workspaces/hoverboard-firmware-hack-FOC/build/stm32f1xx_hal_rcc_ex.o
                                                  /workspaces/hoverboard-firmware-hack-FOC/build/main.o
HAL_RCC_CSSCallback                               /workspaces/hoverboard-firmware-hack-FOC/build/stm32f1xx_hal_rcc.o
HAL_RCC_ClockConfig                               /workspaces/hoverboard-firmware-hack-FOC/build/stm32f1xx_hal_rcc.o
                                                  /workspaces/hoverboard-firmware-hack-FOC/build/main.o
HAL_RCC_DeInit                                    /workspaces/hoverboard-firmware-hack-FOC/build/stm32f1xx_hal_rcc.o
HAL_RCC_DisableCSS                                /workspaces/hoverboard-firmware-hack-FOC/build/stm32f1xx_hal_rcc.o
HAL_RCC_EnableCSS                                 /workspaces/hoverboard-firmware-hack-FOC/build/stm32f1xx_hal_rcc.o
HAL_RCC_GetClockConfig                            /workspaces/hoverboard-firmware-hack-FOC/build/stm32f1xx_hal_rcc.o
HAL_RCC_GetHCLKFreq                               /workspaces/hoverboard-firmware-hack-FOC/build/stm32f1xx_hal_rcc.o
                                                  /workspaces/hoverboard-firmware-hack-FOC/build/main.o
HAL_RCC_GetOscConfig                              /workspaces/hoverboard-firmware-hack-FOC/build/stm32f1xx_hal_rcc.o
HAL_RCC_GetPCLK1Freq                              /workspaces/hoverboard-firmware-hack-FOC/build/stm32f1xx_hal_rcc.o
                                                  /workspaces/hoverboard-firmware-hack-FOC/build/stm32f1xx_hal_i2c.o
                                                  /workspaces/hoverboard-firmware-hack-FOC/build/stm32f1xx_hal_uart.o
HAL_RCC_GetPCLK2Freq                              /workspaces/hoverboard-firmware-hack-FOC/build/stm32f1xx_hal_rcc.o
                                                  /workspaces/hoverboard-firmware-hack-FOC/build/stm32f1xx_hal_uart.o
                                                  /workspaces/hoverboard-firmware-hack-FOC/build/stm32f1xx_hal_rcc_ex.o
HAL_RCC_GetSysClockFreq                           /workspaces/hoverboard-firmware-hack-FOC/build/stm32f1xx_hal_rcc.o
                                                  /workspaces/hoverboard-firmware-hack-FOC/build/stm32f1xx_hal_rcc_ex.o
HAL_RCC_MCOConfig                                 /workspaces/hoverboard-firmware-hack-FOC/build/stm32f1xx_hal_rcc.o
HAL_RCC_NMI_IRQHandler                            /workspaces/hoverboard-firmware-hack-FOC/build/stm32f1xx_hal_rcc.o
HAL_RCC_OscConfig                                 /workspaces/hoverboard-firmware-hack-FOC/build/stm32f1xx_hal_rcc.o
                                                  /workspaces/hoverboard-firmware-hack-FOC/build/main.o
HAL_ResumeTick                                    /workspaces/hoverboard-firmware-hack-FOC/build/stm32f1xx_hal.o
HAL_SYSTICK_CLKSourceConfig                       /workspaces/hoverboard-firmware-hack-FOC/build/stm32f1xx_hal_cortex.o
                                                  /workspaces/hoverboard-firmware-hack-FOC/build/main.o
HAL_SYSTICK_Callback                              /workspaces/hoverboard-firmware-hack-FOC/build/stm32f1xx_hal_cortex.o
HAL_SYSTICK_Config                                /workspaces/hoverboard-firmware-hack-FOC/build/stm32f1xx_hal_cortex.o
                                                  /workspaces/hoverboard-firmware-hack-FOC/build/main.o
                                                  /workspaces/hoverboard-firmware-hack-FOC/build/stm32f1xx_hal.o
HAL_SYSTICK_IRQHandler                            /workspaces/hoverboard-firmware-hack-FOC/build/stm32f1xx_hal_cortex.o
                                                  /workspaces/hoverboard-firmware-hack-FOC/build/stm32f1xx_it.o
HAL_SuspendTick                                   /workspaces/hoverboard-firmware-hack-FOC/build/stm32f1xx_hal.o
HAL_TIMEx_BreakCallback                           /workspaces/hoverboard-firmware-hack-FOC/build/stm32f1xx_hal_tim_ex.o
                                                  /workspaces/hoverboard-firmware-hack-FOC/build/stm32f1xx_hal_tim.o
HAL_TIMEx_CommutationCallback                     /workspaces/hoverboard-firmware-hack-FOC/build/stm32f1xx_hal_tim_ex.o
                                                  /workspaces/hoverboard-firmware-hack-FOC/build/stm32f1xx_hal_tim.o
HAL_TIMEx_ConfigBreakDeadTime                     /workspaces/hoverboard-firmware-hack-FOC/build/stm32f1xx_hal_tim_ex.o
                                                  /workspaces/hoverboard-firmware-hack-FOC/build/setup.o
HAL_TIMEx_ConfigCommutationEvent                  /workspaces/hoverboard-firmware-hack-FOC/build/stm32f1xx_hal_tim_ex.o
HAL_TIMEx_ConfigCommutationEvent_DMA              /workspaces/hoverboard-firmware-hack-FOC/build/stm32f1xx_hal_tim_ex.o
HAL_TIMEx_ConfigCommutationEvent_IT               /workspaces/hoverboard-firmware-hack-FOC/build/stm32f1xx_hal_tim_ex.o
HAL_TIMEx_HallSensor_DeInit                       /workspaces/hoverboard-firmware-hack-FOC/build/stm32f1xx_hal_tim_ex.o
HAL_TIMEx_HallSensor_GetState                     /workspaces/hoverboard-firmware-hack-FOC/build/stm32f1xx_hal_tim_ex.o
HAL_TIMEx_HallSensor_Init                         /workspaces/hoverboard-firmware-hack-FOC/build/stm32f1xx_hal_tim_ex.o
HAL_TIMEx_HallSensor_MspDeInit                    /workspaces/hoverboard-firmware-hack-FOC/build/stm32f1xx_hal_tim_ex.o
HAL_TIMEx_HallSensor_MspInit                      /workspaces/hoverboard-firmware-hack-FOC/build/stm32f1xx_hal_tim_ex.o
HAL_TIMEx_HallSensor_Start                        /workspaces/hoverboard-firmware-hack-FOC/build/stm32f1xx_hal_tim_ex.o
HAL_TIMEx_HallSensor_Start_DMA                    /workspaces/hoverboard-firmware-hack-FOC/build/stm32f1xx_hal_tim_ex.o
HAL_TIMEx_HallSensor_Start_IT                     /workspaces/hoverboard-firmware-hack-FOC/build/stm32f1xx_hal_tim_ex.o
HAL_TIMEx_HallSensor_Stop                         /workspaces/hoverboard-firmware-hack-FOC/build/stm32f1xx_hal_tim_ex.o
HAL_TIMEx_HallSensor_Stop_DMA                     /workspaces/hoverboard-firmware-hack-FOC/build/stm32f1xx_hal_tim_ex.o
HAL_TIMEx_HallSensor_Stop_IT                      /workspaces/hoverboard-firmware-hack-FOC/build/stm32f1xx_hal_tim_ex.o
HAL_TIMEx_MasterConfigSynchronization             /workspaces/hoverboard-firmware-hack-FOC/build/stm32f1xx_hal_tim_ex.o
                                                  /workspaces/hoverboard-firmware-hack-FOC/build/setup.o
HAL_TIMEx_OCN_Start                               /workspaces/hoverboard-firmware-hack-FOC/build/stm32f1xx_hal_tim_ex.o
HAL_TIMEx_OCN_Start_DMA                           /workspaces/hoverboard-firmware-hack-FOC/build/stm32f1xx_hal_tim_ex.o
HAL_TIMEx_OCN_Start_IT                            /workspaces/hoverboard-firmware-hack-FOC/build/stm32f1xx_hal_tim_ex.o
HAL_TIMEx_OCN_Stop                                /workspaces/hoverboard-firmware-hack-FOC/build/stm32f1xx_hal_tim_ex.o
HAL_TIMEx_OCN_Stop_DMA                            /workspaces/hoverboard-firmware-hack-FOC/build/stm32f1xx_hal_tim_ex.o
HAL_TIMEx_OCN_Stop_IT                             /workspaces/hoverboard-firmware-hack-FOC/build/stm32f1xx_hal_tim_ex.o
HAL_TIMEx_OnePulseN_Start                         /workspaces/hoverboard-firmware-hack-FOC/build/stm32f1xx_hal_tim_ex.o
HAL_TIMEx_OnePulseN_Start_IT                      /workspaces/hoverboard-firmware-hack-FOC/build/stm32f1xx_hal_tim_ex.o
HAL_TIMEx_OnePulseN_Stop                          /workspaces/hoverboard-firmware-hack-FOC/build/stm32f1xx_hal_tim_ex.o
HAL_TIMEx_OnePulseN_Stop_IT                       /workspaces/hoverboard-firmware-hack-FOC/build/stm32f1xx_hal_tim_ex.o
HAL_TIMEx_PWMN_Start                              /workspaces/hoverboard-firmware-hack-FOC/build/stm32f1xx_hal_tim_ex.o
                                                  /workspaces/hoverboard-firmware-hack-FOC/build/setup.o
HAL_TIMEx_PWMN_Start_DMA                          /workspaces/hoverboard-firmware-hack-FOC/build/stm32f1xx_hal_tim_ex.o
HAL_TIMEx_PWMN_Start_IT                           /workspaces/hoverboard-firmware-hack-FOC/build/stm32f1xx_hal_tim_ex.o
HAL_TIMEx_PWMN_Stop                               /workspaces/hoverboard-firmware-hack-FOC/build/stm32f1xx_hal_tim_ex.o
HAL_TIMEx_PWMN_Stop_DMA                           /workspaces/hoverboard-firmware-hack-FOC/build/stm32f1xx_hal_tim_ex.o
HAL_TIMEx_PWMN_Stop_IT                            /workspaces/hoverboard-firmware-hack-FOC/build/stm32f1xx_hal_tim_ex.o
HAL_TIM_Base_DeInit                               /workspaces/hoverboard-firmware-hack-FOC/build/stm32f1xx_hal_tim.o
HAL_TIM_Base_GetState                             /workspaces/hoverboard-firmware-hack-FOC/build/stm32f1xx_hal_tim.o
HAL_TIM_Base_Init                                 /workspaces/hoverboard-firmware-hack-FOC/build/stm32f1xx_hal_tim.o
HAL_TIM_Base_MspDeInit                            /workspaces/hoverboard-firmware-hack-FOC/build/stm32f1xx_hal_tim.o
HAL_TIM_Base_MspInit                              /workspaces/hoverboard-firmware-hack-FOC/build/stm32f1xx_hal_tim.o
HAL_TIM_Base_Start                                /workspaces/hoverboard-firmware-hack-FOC/build/stm32f1xx_hal_tim.o
HAL_TIM_Base_Start_DMA                            /workspaces/hoverboard-firmware-hack-FOC/build/stm32f1xx_hal_tim.o
HAL_TIM_Base_Start_IT                             /workspaces/hoverboard-firmware-hack-FOC/build/stm32f1xx_hal_tim.o
HAL_TIM_Base_Stop                                 /workspaces/hoverboard-firmware-hack-FOC/build/stm32f1xx_hal_tim.o
HAL_TIM_Base_Stop_DMA                             /workspaces/hoverboard-firmware-hack-FOC/build/stm32f1xx_hal_tim.o
HAL_TIM_Base_Stop_IT                              /workspaces/hoverboard-firmware-hack-FOC/build/stm32f1xx_hal_tim.o
HAL_TIM_ConfigClockSource                         /workspaces/hoverboard-firmware-hack-FOC/build/stm32f1xx_hal_tim.o
HAL_TIM_ConfigOCrefClear                          /workspaces/hoverboard-firmware-hack-FOC/build/stm32f1xx_hal_tim.o
HAL_TIM_ConfigTI1Input                            /workspaces/hoverboard-firmware-hack-FOC/build/stm32f1xx_hal_tim.o
HAL_TIM_DMABurst_ReadStart                        /workspaces/hoverboard-firmware-hack-FOC/build/stm32f1xx_hal_tim.o
HAL_TIM_DMABurst_ReadStop                         /workspaces/hoverboard-firmware-hack-FOC/build/stm32f1xx_hal_tim.o
HAL_TIM_DMABurst_WriteStart                       /workspaces/hoverboard-firmware-hack-FOC/build/stm32f1xx_hal_tim.o
HAL_TIM_DMABurst_WriteStop                        /workspaces/hoverboard-firmware-hack-FOC/build/stm32f1xx_hal_tim.o
HAL_TIM_Encoder_DeInit                            /workspaces/hoverboard-firmware-hack-FOC/build/stm32f1xx_hal_tim.o
HAL_TIM_Encoder_GetState                          /workspaces/hoverboard-firmware-hack-FOC/build/stm32f1xx_hal_tim.o
HAL_TIM_Encoder_Init                              /workspaces/hoverboard-firmware-hack-FOC/build/stm32f1xx_hal_tim.o
HAL_TIM_Encoder_MspDeInit                         /workspaces/hoverboard-firmware-hack-FOC/build/stm32f1xx_hal_tim.o
HAL_TIM_Encoder_MspInit                           /workspaces/hoverboard-firmware-hack-FOC/build/stm32f1xx_hal_tim.o
HAL_TIM_Encoder_Start                             /workspaces/hoverboard-firmware-hack-FOC/build/stm32f1xx_hal_tim.o
HAL_TIM_Encoder_Start_DMA                         /workspaces/hoverboard-firmware-hack-FOC/build/stm32f1xx_hal_tim.o
HAL_TIM_Encoder_Start_IT                          /workspaces/hoverboard-firmware-hack-FOC/build/stm32f1xx_hal_tim.o
HAL_TIM_Encoder_Stop                              /workspaces/hoverboard-firmware-hack-FOC/build/stm32f1xx_hal_tim.o
HAL_TIM_Encoder_Stop_DMA                          /workspaces/hoverboard-firmware-hack-FOC/build/stm32f1xx_hal_tim.o
HAL_TIM_Encoder_Stop_IT                           /workspaces/hoverboard-firmware-hack-FOC/build/stm32f1xx_hal_tim.o
HAL_TIM_ErrorCallback                             /workspaces/hoverboard-firmware-hack-FOC/build/stm32f1xx_hal_tim.o
HAL_TIM_GenerateEvent                             /workspaces/hoverboard-firmware-hack-FOC/build/stm32f1xx_hal_tim.o
HAL_TIM_IC_CaptureCallback                        /workspaces/hoverboard-firmware-hack-FOC/build/stm32f1xx_hal_tim.o
HAL_TIM_IC_ConfigChannel                          /workspaces/hoverboard-firmware-hack-FOC/build/stm32f1xx_hal_tim.o
HAL_TIM_IC_DeInit                                 /workspaces/hoverboard-firmware-hack-FOC/build/stm32f1xx_hal_tim.o
HAL_TIM_IC_GetState                               /workspaces/hoverboard-firmware-hack-FOC/build/stm32f1xx_hal_tim.o
HAL_TIM_IC_Init                                   /workspaces/hoverboard-firmware-hack-FOC/build/stm32f1xx_hal_tim.o
HAL_TIM_IC_MspDeInit                              /workspaces/hoverboard-firmware-hack-FOC/build/stm32f1xx_hal_tim.o
HAL_TIM_IC_MspInit                                /workspaces/hoverboard-firmware-hack-FOC/build/stm32f1xx_hal_tim.o
HAL_TIM_IC_Start                                  /workspaces/hoverboard-firmware-hack-FOC/build/stm32f1xx_hal_tim.o
HAL_TIM_IC_Start_DMA                              /workspaces/hoverboard-firmware-hack-FOC/build/stm32f1xx_hal_tim.o
HAL_TIM_IC_Start_IT                               /workspaces/hoverboard-firmware-hack-FOC/build/stm32f1xx_hal_tim.o
HAL_TIM_IC_Stop                                   /workspaces/hoverboard-firmware-hack-FOC/build/stm32f1xx_hal_tim.o
HAL_TIM_IC_Stop_DMA                               /workspaces/hoverboard-firmware-hack-FOC/build/stm32f1xx_hal_tim.o
HAL_TIM_IC_Stop_IT                                /workspaces/hoverboard-firmware-hack-FOC/build/stm32f1xx_hal_tim.o
HAL_TIM_IRQHandler                                /workspaces/hoverboard-firmware-hack-FOC/build/stm32f1xx_hal_tim.o
HAL_TIM_OC_ConfigChannel                          /workspaces/hoverboard-firmware-hack-FOC/build/stm32f1xx_hal_tim.o
HAL_TIM_OC_DeInit                                 /workspaces/hoverboard-firmware-hack-FOC/build/stm32f1xx_hal_tim.o
HAL_TIM_OC_DelayElapsedCallback                   /workspaces/hoverboard-firmware-hack-FOC/build/stm32f1xx_hal_tim.o
HAL_TIM_OC_GetState                               /workspaces/hoverboard-firmware-hack-FOC/build/stm32f1xx_hal_tim.o
HAL_TIM_OC_Init                                   /workspaces/hoverboard-firmware-hack-FOC/build/stm32f1xx_hal_tim.o
HAL_TIM_OC_MspDeInit                              /workspaces/hoverboard-firmware-hack-FOC/build/stm32f1xx_hal_tim.o
HAL_TIM_OC_MspInit                                /workspaces/hoverboard-firmware-hack-FOC/build/stm32f1xx_hal_tim.o
HAL_TIM_OC_Start                                  /workspaces/hoverboard-firmware-hack-FOC/build/stm32f1xx_hal_tim.o
HAL_TIM_OC_Start_DMA                              /workspaces/hoverboard-firmware-hack-FOC/build/stm32f1xx_hal_tim.o
HAL_TIM_OC_Start_IT                               /workspaces/hoverboard-firmware-hack-FOC/build/stm32f1xx_hal_tim.o
HAL_TIM_OC_Stop                                   /workspaces/hoverboard-firmware-hack-FOC/build/stm32f1xx_hal_tim.o
HAL_TIM_OC_Stop_DMA                               /workspaces/hoverboard-firmware-hack-FOC/build/stm32f1xx_hal_tim.o
HAL_TIM_OC_Stop_IT                                /workspaces/hoverboard-firmware-hack-FOC/build/stm32f1xx_hal_tim.o
HAL_TIM_OnePulse_ConfigChannel                    /workspaces/hoverboard-firmware-hack-FOC/build/stm32f1xx_hal_tim.o
HAL_TIM_OnePulse_DeInit                           /workspaces/hoverboard-firmware-hack-FOC/build/stm32f1xx_hal_tim.o
HAL_TIM_OnePulse_GetState                         /workspaces/hoverboard-firmware-hack-FOC/build/stm32f1xx_hal_tim.o
HAL_TIM_OnePulse_Init                             /workspaces/hoverboard-firmware-hack-FOC/build/stm32f1xx_hal_tim.o
HAL_TIM_OnePulse_MspDeInit                        /workspaces/hoverboard-firmware-hack-FOC/build/stm32f1xx_hal_tim.o
HAL_TIM_OnePulse_MspInit                          /workspaces/hoverboard-firmware-hack-FOC/build/stm32f1xx_hal_tim.o
HAL_TIM_OnePulse_Start                            /workspaces/hoverboard-firmware-hack-FOC/build/stm32f1xx_hal_tim.o
HAL_TIM_OnePulse_Start_IT                         /workspaces/hoverboard-firmware-hack-FOC/build/stm32f1xx_hal_tim.o
HAL_TIM_OnePulse_Stop                             /workspaces/hoverboard-firmware-hack-FOC/build/stm32f1xx_hal_tim.o
HAL_TIM_OnePulse_Stop_IT                          /workspaces/hoverboard-firmware-hack-FOC/build/stm32f1xx_hal_tim.o
HAL_TIM_PWM_ConfigChannel                         /workspaces/hoverboard-firmware-hack-FOC/build/stm32f1xx_hal_tim.o
                                                  /workspaces/hoverboard-firmware-hack-FOC/build/setup.o
HAL_TIM_PWM_DeInit                                /workspaces/hoverboard-firmware-hack-FOC/build/stm32f1xx_hal_tim.o
HAL_TIM_PWM_GetState                              /workspaces/hoverboard-firmware-hack-FOC/build/stm32f1xx_hal_tim.o
HAL_TIM_PWM_Init                                  /workspaces/hoverboard-firmware-hack-FOC/build/stm32f1xx_hal_tim.o
                                                  /workspaces/hoverboard-firmware-hack-FOC/build/setup.o
HAL_TIM_PWM_MspDeInit                             /workspaces/hoverboard-firmware-hack-FOC/build/stm32f1xx_hal_tim.o
HAL_TIM_PWM_MspInit                               /workspaces/hoverboard-firmware-hack-FOC/build/stm32f1xx_hal_tim.o
HAL_TIM_PWM_PulseFinishedCallback                 /workspaces/hoverboard-firmware-hack-FOC/build/stm32f1xx_hal_tim.o
HAL_TIM_PWM_Start                                 /workspaces/hoverboard-firmware-hack-FOC/build/stm32f1xx_hal_tim.o
                                                  /workspaces/hoverboard-firmware-hack-FOC/build/setup.o
HAL_TIM_PWM_Start_DMA                             /workspaces/hoverboard-firmware-hack-FOC/build/stm32f1xx_hal_tim.o
HAL_TIM_PWM_Start_IT                              /workspaces/hoverboard-firmware-hack-FOC/build/stm32f1xx_hal_tim.o
HAL_TIM_PWM_Stop                                  /workspaces/hoverboard-firmware-hack-FOC/build/stm32f1xx_hal_tim.o
HAL_TIM_PWM_Stop_DMA                              /workspaces/hoverboard-firmware-hack-FOC/build/stm32f1xx_hal_tim.o
HAL_TIM_PWM_Stop_IT                               /workspaces/hoverboard-firmware-hack-FOC/build/stm32f1xx_hal_tim.o
HAL_TIM_PeriodElapsedCallback                     /workspaces/hoverboard-firmware-hack-FOC/build/stm32f1xx_hal_tim.o
HAL_TIM_ReadCapturedValue                         /workspaces/hoverboard-firmware-hack-FOC/build/stm32f1xx_hal_tim.o
HAL_TIM_SlaveConfigSynchronization                /workspaces/hoverboard-firmware-hack-FOC/build/stm32f1xx_hal_tim.o
                                                  /workspaces/hoverboard-firmware-hack-FOC/build/setup.o
HAL_TIM_SlaveConfigSynchronization_IT             /workspaces/hoverboard-firmware-hack-FOC/build/stm32f1xx_hal_tim.o
HAL_TIM_TriggerCallback                           /workspaces/hoverboard-firmware-hack-FOC/build/stm32f1xx_hal_tim.o
HAL_UART_Abort                                    /workspaces/hoverboard-firmware-hack-FOC/build/stm32f1xx_hal_uart.o
HAL_UART_AbortCpltCallback                        /workspaces/hoverboard-firmware-hack-FOC/build/stm32f1xx_hal_uart.o
HAL_UART_AbortReceive                             /workspaces/hoverboard-firmware-hack-FOC/build/stm32f1xx_hal_uart.o
HAL_UART_AbortReceiveCpltCallback                 /workspaces/hoverboard-firmware-hack-FOC/build/stm32f1xx_hal_uart.o
HAL_UART_AbortReceive_IT                          /workspaces/hoverboard-firmware-hack-FOC/build/stm32f1xx_hal_uart.o
HAL_UART_AbortTransmit                            /workspaces/hoverboard-firmware-hack-FOC/build/stm32f1xx_hal_uart.o
HAL_UART_AbortTransmitCpltCallback                /workspaces/hoverboard-firmware-hack-FOC/build/stm32f1xx_hal_uart.o
HAL_UART_AbortTransmit_IT                         /workspaces/hoverboard-firmware-hack-FOC/build/stm32f1xx_hal_uart.o
HAL_UART_Abort_IT                                 /workspaces/hoverboard-firmware-hack-FOC/build/stm32f1xx_hal_uart.o
HAL_UART_DMAPause                                 /workspaces/hoverboard-firmware-hack-FOC/build/stm32f1xx_hal_uart.o
HAL_UART_DMAResume                                /workspaces/hoverboard-firmware-hack-FOC/build/stm32f1xx_hal_uart.o
HAL_UART_DMAStop                                  /workspaces/hoverboard-firmware-hack-FOC/build/stm32f1xx_hal_uart.o
HAL_UART_DeInit                                   /workspaces/hoverboard-firmware-hack-FOC/build/stm32f1xx_hal_uart.o
HAL_UART_ErrorCallback                            /workspaces/hoverboard-firmware-hack-FOC/build/stm32f1xx_hal_uart.o
HAL_UART_GetError                                 /workspaces/hoverboard-firmware-hack-FOC/build/stm32f1xx_hal_uart.o
HAL_UART_GetState                                 /workspaces/hoverboard-firmware-hack-FOC/build/stm32f1xx_hal_uart.o
HAL_UART_IRQHandler                               /workspaces/hoverboard-firmware-hack-FOC/build/stm32f1xx_hal_uart.o
                                                  /workspaces/hoverboard-firmware-hack-FOC/build/stm32f1xx_it.o
HAL_UART_Init                                     /workspaces/hoverboard-firmware-hack-FOC/build/stm32f1xx_hal_uart.o
                                                  /workspaces/hoverboard-firmware-hack-FOC/build/setup.o
HAL_UART_MspDeInit                                /workspaces/hoverboard-firmware-hack-FOC/build/setup.o
                                                  /workspaces/hoverboard-firmware-hack-FOC/build/stm32f1xx_hal_uart.o
HAL_UART_MspInit                                  /workspaces/hoverboard-firmware-hack-FOC/build/setup.o
                                                  /workspaces/hoverboard-firmware-hack-FOC/build/stm32f1xx_hal_uart.o
HAL_UART_Receive                                  /workspaces/hoverboard-firmware-hack-FOC/build/stm32f1xx_hal_uart.o
HAL_UART_Receive_DMA                              /workspaces/hoverboard-firmware-hack-FOC/build/stm32f1xx_hal_uart.o
                                                  /workspaces/hoverboard-firmware-hack-FOC/build/util.o
HAL_UART_Receive_IT                               /workspaces/hoverboard-firmware-hack-FOC/build/stm32f1xx_hal_uart.o
HAL_UART_RxCpltCallback                           /workspaces/hoverboard-firmware-hack-FOC/build/stm32f1xx_hal_uart.o
HAL_UART_RxHalfCpltCallback                       /workspaces/hoverboard-firmware-hack-FOC/build/stm32f1xx_hal_uart.o
HAL_UART_Transmit                                 /workspaces/hoverboard-firmware-hack-FOC/build/stm32f1xx_hal_uart.o
                                                  /workspaces/hoverboard-firmware-hack-FOC/build/util.o
HAL_UART_Transmit_DMA                             /workspaces/hoverboard-firmware-hack-FOC/build/stm32f1xx_hal_uart.o
                                                  /workspaces/hoverboard-firmware-hack-FOC/build/main.o
HAL_UART_Transmit_IT                              /workspaces/hoverboard-firmware-hack-FOC/build/stm32f1xx_hal_uart.o
HAL_UART_TxCpltCallback                           /workspaces/hoverboard-firmware-hack-FOC/build/stm32f1xx_hal_uart.o
HAL_UART_TxHalfCpltCallback                       /workspaces/hoverboard-firmware-hack-FOC/build/stm32f1xx_hal_uart.o
HardFault_Handler                                 /workspaces/hoverboard-firmware-hack-FOC/build/stm32f1xx_it.o
I2C1_ER_IRQHandler                                /workspaces/hoverboard-firmware-hack-FOC/build/startup_stm32f103xe.o
I2C1_EV_IRQHandler                                /workspaces/hoverboard-firmware-hack-FOC/build/startup_stm32f103xe.o
I2C2_ER_IRQHandler                                /workspaces/hoverboard-firmware-hack-FOC/build/startup_stm32f103xe.o
I2C2_EV_IRQHandler                                /workspaces/hoverboard-firmware-hack-FOC/build/startup_stm32f103xe.o
I2C_Init                                          /workspaces/hoverboard-firmware-hack-FOC/build/setup.o
                                                  /workspaces/hoverboard-firmware-hack-FOC/build/control.o
I_backCalc_fixdt                                  /workspaces/hoverboard-firmware-hack-FOC/build/BLDC_controller.o
I_backCalc_fixdt_Init                             /workspaces/hoverboard-firmware-hack-FOC/build/BLDC_controller.o
I_backCalc_fixdt_Reset                            /workspaces/hoverboard-firmware-hack-FOC/build/BLDC_controller.o
Input_Init                                        /workspaces/hoverboard-firmware-hack-FOC/build/util.o
                                                  /workspaces/hoverboard-firmware-hack-FOC/build/main.o
Input_Lim_Init                                    /workspaces/hoverboard-firmware-hack-FOC/build/util.o
                                                  /workspaces/hoverboard-firmware-hack-FOC/build/main.o
LCD_ClearDisplay                                  /workspaces/hoverboard-firmware-hack-FOC/build/hd44780.o
LCD_CursorOFF                                     /workspaces/hoverboard-firmware-hack-FOC/build/hd44780.o
LCD_CursorON                                      /workspaces/hoverboard-firmware-hack-FOC/build/hd44780.o
LCD_CustomChar                                    /workspaces/hoverboard-firmware-hack-FOC/build/hd44780.o
LCD_DisplayOFF                                    /workspaces/hoverboard-firmware-hack-FOC/build/hd44780.o
LCD_DisplayON                                     /workspaces/hoverboard-firmware-hack-FOC/build/hd44780.o
LCD_EntryModeSet                                  /workspaces/hoverboard-firmware-hack-FOC/build/hd44780.o
LCD_GetBusyFlag                                   /workspaces/hoverboard-firmware-hack-FOC/build/hd44780.o
LCD_I2C_WriteOut                                  /workspaces/hoverboard-firmware-hack-FOC/build/hd44780.o
LCD_Init                                          /workspaces/hoverboard-firmware-hack-FOC/build/hd44780.o
LCD_SetLocation                                   /workspaces/hoverboard-firmware-hack-FOC/build/hd44780.o
LCD_ShiftCursor                                   /workspaces/hoverboard-firmware-hack-FOC/build/hd44780.o
LCD_ShiftDisplay                                  /workspaces/hoverboard-firmware-hack-FOC/build/hd44780.o
LCD_StateLEDControl                               /workspaces/hoverboard-firmware-hack-FOC/build/hd44780.o
LCD_StateWriteBit                                 /workspaces/hoverboard-firmware-hack-FOC/build/hd44780.o
LCD_WaitForBusyFlag                               /workspaces/hoverboard-firmware-hack-FOC/build/hd44780.o
LCD_WriteCMD                                      /workspaces/hoverboard-firmware-hack-FOC/build/hd44780.o
LCD_WriteDATA                                     /workspaces/hoverboard-firmware-hack-FOC/build/hd44780.o
LCD_WriteFloat                                    /workspaces/hoverboard-firmware-hack-FOC/build/hd44780.o
LCD_WriteNumber                                   /workspaces/hoverboard-firmware-hack-FOC/build/hd44780.o
LCD_WriteString                                   /workspaces/hoverboard-firmware-hack-FOC/build/hd44780.o
LCD_WriteToDataBus                                /workspaces/hoverboard-firmware-hack-FOC/build/hd44780.o
LCDerrorFlag                                      /workspaces/hoverboard-firmware-hack-FOC/build/hd44780.o
Low_Pass_Filter                                   /workspaces/hoverboard-firmware-hack-FOC/build/BLDC_controller.o
Low_Pass_Filter_Reset                             /workspaces/hoverboard-firmware-hack-FOC/build/BLDC_controller.o
MX_ADC1_Init                                      /workspaces/hoverboard-firmware-hack-FOC/build/setup.o
                                                  /workspaces/hoverboard-firmware-hack-FOC/build/main.o
MX_ADC2_Init                                      /workspaces/hoverboard-firmware-hack-FOC/build/setup.o
                                                  /workspaces/hoverboard-firmware-hack-FOC/build/main.o
MX_GPIO_Init                                      /workspaces/hoverboard-firmware-hack-FOC/build/setup.o
                                                  /workspaces/hoverboard-firmware-hack-FOC/build/main.o
MX_TIM_Init                                       /workspaces/hoverboard-firmware-hack-FOC/build/setup.o
                                                  /workspaces/hoverboard-firmware-hack-FOC/build/main.o
MemManage_Handler                                 /workspaces/hoverboard-firmware-hack-FOC/build/stm32f1xx_it.o
NMI_Handler                                       /workspaces/hoverboard-firmware-hack-FOC/build/stm32f1xx_it.o
Nunchuk_Connect                                   /workspaces/hoverboard-firmware-hack-FOC/build/control.o
Nunchuk_Init                                      /workspaces/hoverboard-firmware-hack-FOC/build/control.o
Nunchuk_Read                                      /workspaces/hoverboard-firmware-hack-FOC/build/control.o
Nunchuk_rx                                        /workspaces/hoverboard-firmware-hack-FOC/build/control.o
Nunchuk_tx                                        /workspaces/hoverboard-firmware-hack-FOC/build/control.o
PCF8574_DeInit                                    /workspaces/hoverboard-firmware-hack-FOC/build/pcf8574.o
PCF8574_Init                                      /workspaces/hoverboard-firmware-hack-FOC/build/pcf8574.o
                                                  /workspaces/hoverboard-firmware-hack-FOC/build/hd44780.o
PCF8574_Read                                      /workspaces/hoverboard-firmware-hack-FOC/build/pcf8574.o
PCF8574_Type0Pins                                 /workspaces/hoverboard-firmware-hack-FOC/build/hd44780.o
PCF8574_Write                                     /workspaces/hoverboard-firmware-hack-FOC/build/pcf8574.o
                                                  /workspaces/hoverboard-firmware-hack-FOC/build/hd44780.o
PI_clamp_fixdt                                    /workspaces/hoverboard-firmware-hack-FOC/build/BLDC_controller.o
PI_clamp_fixdt_Init                               /workspaces/hoverboard-firmware-hack-FOC/build/BLDC_controller.o
PI_clamp_fixdt_Reset                              /workspaces/hoverboard-firmware-hack-FOC/build/BLDC_controller.o
PI_clamp_fixdt_b_Reset                            /workspaces/hoverboard-firmware-hack-FOC/build/BLDC_controller.o
PI_clamp_fixdt_d_Init                             /workspaces/hoverboard-firmware-hack-FOC/build/BLDC_controller.o
PI_clamp_fixdt_f_Init                             /workspaces/hoverboard-firmware-hack-FOC/build/BLDC_controller.o
PI_clamp_fixdt_g_Reset                            /workspaces/hoverboard-firmware-hack-FOC/build/BLDC_controller.o
PI_clamp_fixdt_k                                  /workspaces/hoverboard-firmware-hack-FOC/build/BLDC_controller.o
PI_clamp_fixdt_l                                  /workspaces/hoverboard-firmware-hack-FOC/build/BLDC_controller.o
PVD_IRQHandler                                    /workspaces/hoverboard-firmware-hack-FOC/build/startup_stm32f103xe.o
PendSV_Handler                                    /workspaces/hoverboard-firmware-hack-FOC/build/stm32f1xx_it.o
RCC_IRQHandler                                    /workspaces/hoverboard-firmware-hack-FOC/build/startup_stm32f103xe.o
RTC_Alarm_IRQHandler                              /workspaces/hoverboard-firmware-hack-FOC/build/startup_stm32f103xe.o
RTC_IRQHandler                                    /workspaces/hoverboard-firmware-hack-FOC/build/startup_stm32f103xe.o
Reset_Handler                                     /workspaces/hoverboard-firmware-hack-FOC/build/startup_stm32f103xe.o
SDIO_IRQHandler                                   /workspaces/hoverboard-firmware-hack-FOC/build/startup_stm32f103xe.o
SPI1_IRQHandler                                   /workspaces/hoverboard-firmware-hack-FOC/build/startup_stm32f103xe.o
SPI2_IRQHandler                                   /workspaces/hoverboard-firmware-hack-FOC/build/startup_stm32f103xe.o
SPI3_IRQHandler                                   /workspaces/hoverboard-firmware-hack-FOC/build/startup_stm32f103xe.o
SVC_Handler                                       /workspaces/hoverboard-firmware-hack-FOC/build/stm32f1xx_it.o
Sideboard_R                                       /workspaces/hoverboard-firmware-hack-FOC/build/util.o
                                                  /workspaces/hoverboard-firmware-hack-FOC/build/main.o
Sideboard_R_raw                                   /workspaces/hoverboard-firmware-hack-FOC/build/util.o
SysTick_Handler                                   /workspaces/hoverboard-firmware-hack-FOC/build/stm32f1xx_it.o
SystemClock_Config                                /workspaces/hoverboard-firmware-hack-FOC/build/main.o
SystemCoreClock                                   /workspaces/hoverboard-firmware-hack-FOC/build/system_stm32f1xx.o
                                                  /workspaces/hoverboard-firmware-hack-FOC/build/stm32f1xx_hal_i2c.o
                                                  /workspaces/hoverboard-firmware-hack-FOC/build/stm32f1xx_hal_adc.o
                                                  /workspaces/hoverboard-firmware-hack-FOC/build/stm32f1xx_hal.o
                                                  /workspaces/hoverboard-firmware-hack-FOC/build/stm32f1xx_hal_adc_ex.o
                                                  /workspaces/hoverboard-firmware-hack-FOC/build/stm32f1xx_hal_rcc.o
SystemCoreClockUpdate                             /workspaces/hoverboard-firmware-hack-FOC/build/system_stm32f1xx.o
SystemInit                                        /workspaces/hoverboard-firmware-hack-FOC/build/system_stm32f1xx.o
                                                  /workspaces/hoverboard-firmware-hack-FOC/build/startup_stm32f103xe.o
TAMPER_IRQHandler                                 /workspaces/hoverboard-firmware-hack-FOC/build/startup_stm32f103xe.o
TIM1_BRK_IRQHandler                               /workspaces/hoverboard-firmware-hack-FOC/build/startup_stm32f103xe.o
TIM1_CC_IRQHandler                                /workspaces/hoverboard-firmware-hack-FOC/build/startup_stm32f103xe.o
TIM1_TRG_COM_IRQHandler                           /workspaces/hoverboard-firmware-hack-FOC/build/startup_stm32f103xe.o
TIM1_UP_IRQHandler                                /workspaces/hoverboard-firmware-hack-FOC/build/startup_stm32f103xe.o
TIM2_IRQHandler                                   /workspaces/hoverboard-firmware-hack-FOC/build/startup_stm32f103xe.o
TIM3_IRQHandler                                   /workspaces/hoverboard-firmware-hack-FOC/build/startup_stm32f103xe.o
TIM4_IRQHandler                                   /workspaces/hoverboard-firmware-hack-FOC/build/startup_stm32f103xe.o
TIM5_IRQHandler                                   /workspaces/hoverboard-firmware-hack-FOC/build/startup_stm32f103xe.o
TIM6_IRQHandler                                   /workspaces/hoverboard-firmware-hack-FOC/build/startup_stm32f103xe.o
TIM7_IRQHandler                                   /workspaces/hoverboard-firmware-hack-FOC/build/startup_stm32f103xe.o
TIM8_BRK_IRQHandler                               /workspaces/hoverboard-firmware-hack-FOC/build/startup_stm32f103xe.o
TIM8_CC_IRQHandler                                /workspaces/hoverboard-firmware-hack-FOC/build/startup_stm32f103xe.o
TIM8_TRG_COM_IRQHandler                           /workspaces/hoverboard-firmware-hack-FOC/build/startup_stm32f103xe.o
TIM8_UP_IRQHandler                                /workspaces/hoverboard-firmware-hack-FOC/build/startup_stm32f103xe.o
TIMEx_DMACommutationCplt                          /workspaces/hoverboard-firmware-hack-FOC/build/stm32f1xx_hal_tim_ex.o
                                                  /workspaces/hoverboard-firmware-hack-FOC/build/stm32f1xx_hal_tim.o
TIM_Base_SetConfig                                /workspaces/hoverboard-firmware-hack-FOC/build/stm32f1xx_hal_tim.o
                                                  /workspaces/hoverboard-firmware-hack-FOC/build/stm32f1xx_hal_tim_ex.o
TIM_CCxChannelCmd                                 /workspaces/hoverboard-firmware-hack-FOC/build/stm32f1xx_hal_tim.o
                                                  /workspaces/hoverboard-firmware-hack-FOC/build/stm32f1xx_hal_tim_ex.o
TIM_DMACaptureCplt                                /workspaces/hoverboard-firmware-hack-FOC/build/stm32f1xx_hal_tim.o
                                                  /workspaces/hoverboard-firmware-hack-FOC/build/stm32f1xx_hal_tim_ex.o
TIM_DMADelayPulseCplt                             /workspaces/hoverboard-firmware-hack-FOC/build/stm32f1xx_hal_tim.o
                                                  /workspaces/hoverboard-firmware-hack-FOC/build/stm32f1xx_hal_tim_ex.o
TIM_DMAError                                      /workspaces/hoverboard-firmware-hack-FOC/build/stm32f1xx_hal_tim.o
                                                  /workspaces/hoverboard-firmware-hack-FOC/build/stm32f1xx_hal_tim_ex.o
TIM_OC2_SetConfig                                 /workspaces/hoverboard-firmware-hack-FOC/build/stm32f1xx_hal_tim.o
                                                  /workspaces/hoverboard-firmware-hack-FOC/build/stm32f1xx_hal_tim_ex.o
TIM_TI1_SetConfig                                 /workspaces/hoverboard-firmware-hack-FOC/build/stm32f1xx_hal_tim.o
                                                  /workspaces/hoverboard-firmware-hack-FOC/build/stm32f1xx_hal_tim_ex.o
TimHandle                                         /workspaces/hoverboard-firmware-hack-FOC/build/control.o
TimHandle2                                        /workspaces/hoverboard-firmware-hack-FOC/build/control.o
UART3_Init                                        /workspaces/hoverboard-firmware-hack-FOC/build/setup.o
                                                  /workspaces/hoverboard-firmware-hack-FOC/build/util.o
UART3_Init_a                                      /workspaces/hoverboard-firmware-hack-FOC/build/setup.o
UART3_Init_old                                    /workspaces/hoverboard-firmware-hack-FOC/build/setup.o
UART4_IRQHandler                                  /workspaces/hoverboard-firmware-hack-FOC/build/startup_stm32f103xe.o
UART5_IRQHandler                                  /workspaces/hoverboard-firmware-hack-FOC/build/startup_stm32f103xe.o
UART_DisableRxErrors                              /workspaces/hoverboard-firmware-hack-FOC/build/util.o
USART1_IRQHandler                                 /workspaces/hoverboard-firmware-hack-FOC/build/startup_stm32f103xe.o
USART2_IRQHandler                                 /workspaces/hoverboard-firmware-hack-FOC/build/startup_stm32f103xe.o
USART3_IRQHandler                                 /workspaces/hoverboard-firmware-hack-FOC/build/stm32f1xx_it.o
USBWakeUp_IRQHandler                              /workspaces/hoverboard-firmware-hack-FOC/build/startup_stm32f103xe.o
USB_HP_CAN1_TX_IRQHandler                         /workspaces/hoverboard-firmware-hack-FOC/build/startup_stm32f103xe.o
USB_LP_CAN1_RX0_IRQHandler                        /workspaces/hoverboard-firmware-hack-FOC/build/startup_stm32f103xe.o
UsageFault_Handler                                /workspaces/hoverboard-firmware-hack-FOC/build/stm32f1xx_it.o
VirtAddVarTab                                     /workspaces/hoverboard-firmware-hack-FOC/build/util.o
                                                  /workspaces/hoverboard-firmware-hack-FOC/build/eeprom.o
WWDG_IRQHandler                                   /workspaces/hoverboard-firmware-hack-FOC/build/startup_stm32f103xe.o
_ITM_deregisterTMCloneTable                       /usr/lib/gcc/arm-none-eabi/13.2.1/thumb/v7-m/nofp/crtbegin.o
_ITM_registerTMCloneTable                         /usr/lib/gcc/arm-none-eabi/13.2.1/thumb/v7-m/nofp/crtbegin.o
__TMC_END__                                       /usr/lib/gcc/arm-none-eabi/13.2.1/thumb/v7-m/nofp/crtend.o
                                                  /usr/lib/gcc/arm-none-eabi/13.2.1/thumb/v7-m/nofp/crtbegin.o
__adddf3                                          /usr/lib/gcc/arm-none-eabi/13.2.1/thumb/v7-m/nofp/libgcc.a(_arm_addsubdf3.o)
__aeabi_cdcmpeq                                   /usr/lib/gcc/arm-none-eabi/13.2.1/thumb/v7-m/nofp/libgcc.a(_arm_cmpdf2.o)
__aeabi_cdcmple                                   /usr/lib/gcc/arm-none-eabi/13.2.1/thumb/v7-m/nofp/libgcc.a(_arm_cmpdf2.o)
__aeabi_cdrcmple                                  /usr/lib/gcc/arm-none-eabi/13.2.1/thumb/v7-m/nofp/libgcc.a(_arm_cmpdf2.o)
__aeabi_d2iz                                      /usr/lib/gcc/arm-none-eabi/13.2.1/thumb/v7-m/nofp/libgcc.a(_arm_fixdfsi.o)
                                                  /workspaces/hoverboard-firmware-hack-FOC/build/hd44780.o
__aeabi_d2uiz                                     /usr/lib/gcc/arm-none-eabi/13.2.1/thumb/v7-m/nofp/libgcc.a(_arm_fixunsdfsi.o)
                                                  /workspaces/hoverboard-firmware-hack-FOC/build/hd44780.o
__aeabi_dadd                                      /usr/lib/gcc/arm-none-eabi/13.2.1/thumb/v7-m/nofp/libgcc.a(_arm_addsubdf3.o)
                                                  /workspaces/hoverboard-firmware-hack-FOC/build/hd44780.o
__aeabi_dcmpeq                                    /usr/lib/gcc/arm-none-eabi/13.2.1/thumb/v7-m/nofp/libgcc.a(_arm_cmpdf2.o)
__aeabi_dcmpge                                    /usr/lib/gcc/arm-none-eabi/13.2.1/thumb/v7-m/nofp/libgcc.a(_arm_cmpdf2.o)
__aeabi_dcmpgt                                    /usr/lib/gcc/arm-none-eabi/13.2.1/thumb/v7-m/nofp/libgcc.a(_arm_cmpdf2.o)
__aeabi_dcmple                                    /usr/lib/gcc/arm-none-eabi/13.2.1/thumb/v7-m/nofp/libgcc.a(_arm_cmpdf2.o)
__aeabi_dcmplt                                    /usr/lib/gcc/arm-none-eabi/13.2.1/thumb/v7-m/nofp/libgcc.a(_arm_cmpdf2.o)
                                                  /workspaces/hoverboard-firmware-hack-FOC/build/hd44780.o
__aeabi_ddiv                                      /usr/lib/gcc/arm-none-eabi/13.2.1/thumb/v7-m/nofp/libgcc.a(_arm_muldivdf3.o)
                                                  /workspaces/hoverboard-firmware-hack-FOC/build/hd44780.o
__aeabi_dmul                                      /usr/lib/gcc/arm-none-eabi/13.2.1/thumb/v7-m/nofp/libgcc.a(_arm_muldivdf3.o)
                                                  /usr/lib/gcc/arm-none-eabi/13.2.1/thumb/v7-m/nofp/libgcc.a(_arm_muldf3.o)
                                                  /workspaces/hoverboard-firmware-hack-FOC/build/hd44780.o
__aeabi_drsub                                     /usr/lib/gcc/arm-none-eabi/13.2.1/thumb/v7-m/nofp/libgcc.a(_arm_addsubdf3.o)
__aeabi_dsub                                      /usr/lib/gcc/arm-none-eabi/13.2.1/thumb/v7-m/nofp/libgcc.a(_arm_addsubdf3.o)
                                                  /workspaces/hoverboard-firmware-hack-FOC/build/hd44780.o
__aeabi_f2d                                       /usr/lib/gcc/arm-none-eabi/13.2.1/thumb/v7-m/nofp/libgcc.a(_arm_addsubdf3.o)
__aeabi_i2d                                       /usr/lib/gcc/arm-none-eabi/13.2.1/thumb/v7-m/nofp/libgcc.a(_arm_addsubdf3.o)
                                                  /workspaces/hoverboard-firmware-hack-FOC/build/hd44780.o
__aeabi_l2d                                       /usr/lib/gcc/arm-none-eabi/13.2.1/thumb/v7-m/nofp/libgcc.a(_arm_addsubdf3.o)
__aeabi_ui2d                                      /usr/lib/gcc/arm-none-eabi/13.2.1/thumb/v7-m/nofp/libgcc.a(_arm_addsubdf3.o)
                                                  /workspaces/hoverboard-firmware-hack-FOC/build/hd44780.o
__aeabi_ul2d                                      /usr/lib/gcc/arm-none-eabi/13.2.1/thumb/v7-m/nofp/libgcc.a(_arm_addsubdf3.o)
__atexit                                          /usr/lib/gcc/arm-none-eabi/13.2.1/../../../arm-none-eabi/lib/thumb/v7-m/nofp/libc_nano.a(libc_a-__call_atexit.o)
                                                  /usr/lib/gcc/arm-none-eabi/13.2.1/../../../arm-none-eabi/lib/thumb/v7-m/nofp/libc_nano.a(libc_a-__atexit.o)
__atexit0                                         /usr/lib/gcc/arm-none-eabi/13.2.1/../../../arm-none-eabi/lib/thumb/v7-m/nofp/libc_nano.a(libc_a-__atexit.o)
__atexit_dummy                                    /usr/lib/gcc/arm-none-eabi/13.2.1/../../../arm-none-eabi/lib/thumb/v7-m/nofp/libc_nano.a(libc_a-__atexit.o)
__bss_end__                                       /usr/lib/gcc/arm-none-eabi/13.2.1/../../../arm-none-eabi/lib/thumb/v7-m/nofp/crt0.o
__bss_start__                                     /usr/lib/gcc/arm-none-eabi/13.2.1/../../../arm-none-eabi/lib/thumb/v7-m/nofp/crt0.o
__call_exitprocs                                  /usr/lib/gcc/arm-none-eabi/13.2.1/../../../arm-none-eabi/lib/thumb/v7-m/nofp/libc_nano.a(libc_a-__call_atexit.o)
                                                  /usr/lib/gcc/arm-none-eabi/13.2.1/../../../arm-none-eabi/lib/thumb/v7-m/nofp/libc_nano.a(libc_a-__atexit.o)
                                                  /usr/lib/gcc/arm-none-eabi/13.2.1/../../../arm-none-eabi/lib/thumb/v7-m/nofp/libc_nano.a(libc_a-exit.o)
__cmpdf2                                          /usr/lib/gcc/arm-none-eabi/13.2.1/thumb/v7-m/nofp/libgcc.a(_arm_cmpdf2.o)
__deregister_frame_info                           /usr/lib/gcc/arm-none-eabi/13.2.1/thumb/v7-m/nofp/crtbegin.o
__divdf3                                          /usr/lib/gcc/arm-none-eabi/13.2.1/thumb/v7-m/nofp/libgcc.a(_arm_muldivdf3.o)
__dso_handle                                      /usr/lib/gcc/arm-none-eabi/13.2.1/thumb/v7-m/nofp/crtbegin.o
__eqdf2                                           /usr/lib/gcc/arm-none-eabi/13.2.1/thumb/v7-m/nofp/libgcc.a(_arm_cmpdf2.o)
__extendsfdf2                                     /usr/lib/gcc/arm-none-eabi/13.2.1/thumb/v7-m/nofp/libgcc.a(_arm_addsubdf3.o)
__fini_array_end                                  /usr/lib/gcc/arm-none-eabi/13.2.1/../../../arm-none-eabi/lib/thumb/v7-m/nofp/libc_nano.a(libc_a-fini.o)
__fini_array_start                                /usr/lib/gcc/arm-none-eabi/13.2.1/../../../arm-none-eabi/lib/thumb/v7-m/nofp/libc_nano.a(libc_a-fini.o)
__fixdfsi                                         /usr/lib/gcc/arm-none-eabi/13.2.1/thumb/v7-m/nofp/libgcc.a(_arm_fixdfsi.o)
__fixunsdfsi                                      /usr/lib/gcc/arm-none-eabi/13.2.1/thumb/v7-m/nofp/libgcc.a(_arm_fixunsdfsi.o)
__floatdidf                                       /usr/lib/gcc/arm-none-eabi/13.2.1/thumb/v7-m/nofp/libgcc.a(_arm_addsubdf3.o)
__floatsidf                                       /usr/lib/gcc/arm-none-eabi/13.2.1/thumb/v7-m/nofp/libgcc.a(_arm_addsubdf3.o)
__floatundidf                                     /usr/lib/gcc/arm-none-eabi/13.2.1/thumb/v7-m/nofp/libgcc.a(_arm_addsubdf3.o)
__floatunsidf                                     /usr/lib/gcc/arm-none-eabi/13.2.1/thumb/v7-m/nofp/libgcc.a(_arm_addsubdf3.o)
__fp_lock_all                                     /usr/lib/gcc/arm-none-eabi/13.2.1/../../../arm-none-eabi/lib/thumb/v7-m/nofp/libc_nano.a(libc_a-findfp.o)
__fp_unlock_all                                   /usr/lib/gcc/arm-none-eabi/13.2.1/../../../arm-none-eabi/lib/thumb/v7-m/nofp/libc_nano.a(libc_a-findfp.o)
__gedf2                                           /usr/lib/gcc/arm-none-eabi/13.2.1/thumb/v7-m/nofp/libgcc.a(_arm_cmpdf2.o)
__gtdf2                                           /usr/lib/gcc/arm-none-eabi/13.2.1/thumb/v7-m/nofp/libgcc.a(_arm_cmpdf2.o)
__init_array_end                                  /usr/lib/gcc/arm-none-eabi/13.2.1/../../../arm-none-eabi/lib/thumb/v7-m/nofp/libc_nano.a(libc_a-init.o)
__init_array_start                                /usr/lib/gcc/arm-none-eabi/13.2.1/../../../arm-none-eabi/lib/thumb/v7-m/nofp/libc_nano.a(libc_a-init.o)
__ledf2                                           /usr/lib/gcc/arm-none-eabi/13.2.1/thumb/v7-m/nofp/libgcc.a(_arm_cmpdf2.o)
__libc_fini_array                                 /usr/lib/gcc/arm-none-eabi/13.2.1/../../../arm-none-eabi/lib/thumb/v7-m/nofp/libc_nano.a(libc_a-fini.o)
                                                  /usr/lib/gcc/arm-none-eabi/13.2.1/../../../arm-none-eabi/lib/thumb/v7-m/nofp/crt0.o
__libc_init_array                                 /usr/lib/gcc/arm-none-eabi/13.2.1/../../../arm-none-eabi/lib/thumb/v7-m/nofp/libc_nano.a(libc_a-init.o)
                                                  /workspaces/hoverboard-firmware-hack-FOC/build/startup_stm32f103xe.o
                                                  /usr/lib/gcc/arm-none-eabi/13.2.1/../../../arm-none-eabi/lib/thumb/v7-m/nofp/crt0.o
__ltdf2                                           /usr/lib/gcc/arm-none-eabi/13.2.1/thumb/v7-m/nofp/libgcc.a(_arm_cmpdf2.o)
__malloc_free_list                                /usr/lib/gcc/arm-none-eabi/13.2.1/../../../arm-none-eabi/lib/thumb/v7-m/nofp/libc_nano.a(libc_a-mallocr.o)
                                                  /usr/lib/gcc/arm-none-eabi/13.2.1/../../../arm-none-eabi/lib/thumb/v7-m/nofp/libc_nano.a(libc_a-freer.o)
__malloc_lock                                     /usr/lib/gcc/arm-none-eabi/13.2.1/../../../arm-none-eabi/lib/thumb/v7-m/nofp/libc_nano.a(libc_a-mlock.o)
                                                  /usr/lib/gcc/arm-none-eabi/13.2.1/../../../arm-none-eabi/lib/thumb/v7-m/nofp/libc_nano.a(libc_a-freer.o)
                                                  /usr/lib/gcc/arm-none-eabi/13.2.1/../../../arm-none-eabi/lib/thumb/v7-m/nofp/libc_nano.a(libc_a-mallocr.o)
__malloc_sbrk_start                               /usr/lib/gcc/arm-none-eabi/13.2.1/../../../arm-none-eabi/lib/thumb/v7-m/nofp/libc_nano.a(libc_a-mallocr.o)
__malloc_unlock                                   /usr/lib/gcc/arm-none-eabi/13.2.1/../../../arm-none-eabi/lib/thumb/v7-m/nofp/libc_nano.a(libc_a-mlock.o)
                                                  /usr/lib/gcc/arm-none-eabi/13.2.1/../../../arm-none-eabi/lib/thumb/v7-m/nofp/libc_nano.a(libc_a-freer.o)
                                                  /usr/lib/gcc/arm-none-eabi/13.2.1/../../../arm-none-eabi/lib/thumb/v7-m/nofp/libc_nano.a(libc_a-mallocr.o)
__muldf3                                          /usr/lib/gcc/arm-none-eabi/13.2.1/thumb/v7-m/nofp/libgcc.a(_arm_muldivdf3.o)
                                                  /usr/lib/gcc/arm-none-eabi/13.2.1/thumb/v7-m/nofp/libgcc.a(_arm_muldf3.o)
__nedf2                                           /usr/lib/gcc/arm-none-eabi/13.2.1/thumb/v7-m/nofp/libgcc.a(_arm_cmpdf2.o)
__on_exit_args                                    /usr/lib/gcc/arm-none-eabi/13.2.1/../../../arm-none-eabi/lib/thumb/v7-m/nofp/libc_nano.a(libc_a-__atexit.o)
__preinit_array_end                               /usr/lib/gcc/arm-none-eabi/13.2.1/../../../arm-none-eabi/lib/thumb/v7-m/nofp/libc_nano.a(libc_a-init.o)
__preinit_array_start                             /usr/lib/gcc/arm-none-eabi/13.2.1/../../../arm-none-eabi/lib/thumb/v7-m/nofp/libc_nano.a(libc_a-init.o)
__register_exitproc                               /usr/lib/gcc/arm-none-eabi/13.2.1/../../../arm-none-eabi/lib/thumb/v7-m/nofp/libc_nano.a(libc_a-__atexit.o)
                                                  /usr/lib/gcc/arm-none-eabi/13.2.1/../../../arm-none-eabi/lib/thumb/v7-m/nofp/libc_nano.a(libc_a-atexit.o)
__register_frame_info                             /usr/lib/gcc/arm-none-eabi/13.2.1/thumb/v7-m/nofp/crtbegin.o
__sclose                                          /usr/lib/gcc/arm-none-eabi/13.2.1/../../../arm-none-eabi/lib/thumb/v7-m/nofp/libc_nano.a(libc_a-stdio.o)
                                                  /usr/lib/gcc/arm-none-eabi/13.2.1/../../../arm-none-eabi/lib/thumb/v7-m/nofp/libc_nano.a(libc_a-findfp.o)
__seofread                                        /usr/lib/gcc/arm-none-eabi/13.2.1/../../../arm-none-eabi/lib/thumb/v7-m/nofp/libc_nano.a(libc_a-stdio.o)
__sf                                              /usr/lib/gcc/arm-none-eabi/13.2.1/../../../arm-none-eabi/lib/thumb/v7-m/nofp/libc_nano.a(libc_a-findfp.o)
                                                  /usr/lib/gcc/arm-none-eabi/13.2.1/../../../arm-none-eabi/lib/thumb/v7-m/nofp/libc_nano.a(libc_a-impure.o)
__sflush_r                                        /usr/lib/gcc/arm-none-eabi/13.2.1/../../../arm-none-eabi/lib/thumb/v7-m/nofp/libc_nano.a(libc_a-fflush.o)
__sfp                                             /usr/lib/gcc/arm-none-eabi/13.2.1/../../../arm-none-eabi/lib/thumb/v7-m/nofp/libc_nano.a(libc_a-findfp.o)
__sfp_lock_acquire                                /usr/lib/gcc/arm-none-eabi/13.2.1/../../../arm-none-eabi/lib/thumb/v7-m/nofp/libc_nano.a(libc_a-findfp.o)
__sfp_lock_release                                /usr/lib/gcc/arm-none-eabi/13.2.1/../../../arm-none-eabi/lib/thumb/v7-m/nofp/libc_nano.a(libc_a-findfp.o)
__sfputs_r                                        /usr/lib/gcc/arm-none-eabi/13.2.1/../../../arm-none-eabi/lib/thumb/v7-m/nofp/libc_nano.a(libc_a-nano-vfprintf.o)
__sfvwrite_r                                      /usr/lib/gcc/arm-none-eabi/13.2.1/../../../arm-none-eabi/lib/thumb/v7-m/nofp/libc_nano.a(libc_a-fvwrite.o)
                                                  /usr/lib/gcc/arm-none-eabi/13.2.1/../../../arm-none-eabi/lib/thumb/v7-m/nofp/libc_nano.a(libc_a-nano-vfprintf.o)
__sglue                                           /usr/lib/gcc/arm-none-eabi/13.2.1/../../../arm-none-eabi/lib/thumb/v7-m/nofp/libc_nano.a(libc_a-findfp.o)
                                                  /usr/lib/gcc/arm-none-eabi/13.2.1/../../../arm-none-eabi/lib/thumb/v7-m/nofp/libc_nano.a(libc_a-fflush.o)
__sinit                                           /usr/lib/gcc/arm-none-eabi/13.2.1/../../../arm-none-eabi/lib/thumb/v7-m/nofp/libc_nano.a(libc_a-findfp.o)
                                                  /usr/lib/gcc/arm-none-eabi/13.2.1/../../../arm-none-eabi/lib/thumb/v7-m/nofp/libc_nano.a(libc_a-wsetup.o)
                                                  /usr/lib/gcc/arm-none-eabi/13.2.1/../../../arm-none-eabi/lib/thumb/v7-m/nofp/libc_nano.a(libc_a-fflush.o)
                                                  /usr/lib/gcc/arm-none-eabi/13.2.1/../../../arm-none-eabi/lib/thumb/v7-m/nofp/libc_nano.a(libc_a-wbuf.o)
                                                  /usr/lib/gcc/arm-none-eabi/13.2.1/../../../arm-none-eabi/lib/thumb/v7-m/nofp/libc_nano.a(libc_a-nano-vfprintf.o)
__smakebuf_r                                      /usr/lib/gcc/arm-none-eabi/13.2.1/../../../arm-none-eabi/lib/thumb/v7-m/nofp/libc_nano.a(libc_a-makebuf.o)
                                                  /usr/lib/gcc/arm-none-eabi/13.2.1/../../../arm-none-eabi/lib/thumb/v7-m/nofp/libc_nano.a(libc_a-wsetup.o)
__sprint_r                                        /usr/lib/gcc/arm-none-eabi/13.2.1/../../../arm-none-eabi/lib/thumb/v7-m/nofp/libc_nano.a(libc_a-nano-vfprintf.o)
__sread                                           /usr/lib/gcc/arm-none-eabi/13.2.1/../../../arm-none-eabi/lib/thumb/v7-m/nofp/libc_nano.a(libc_a-stdio.o)
                                                  /usr/lib/gcc/arm-none-eabi/13.2.1/../../../arm-none-eabi/lib/thumb/v7-m/nofp/libc_nano.a(libc_a-findfp.o)
__sseek                                           /usr/lib/gcc/arm-none-eabi/13.2.1/../../../arm-none-eabi/lib/thumb/v7-m/nofp/libc_nano.a(libc_a-stdio.o)
                                                  /usr/lib/gcc/arm-none-eabi/13.2.1/../../../arm-none-eabi/lib/thumb/v7-m/nofp/libc_nano.a(libc_a-findfp.o)
__ssprint_r                                       /usr/lib/gcc/arm-none-eabi/13.2.1/../../../arm-none-eabi/lib/thumb/v7-m/nofp/libc_nano.a(libc_a-nano-svfprintf.o)
__ssputs_r                                        /usr/lib/gcc/arm-none-eabi/13.2.1/../../../arm-none-eabi/lib/thumb/v7-m/nofp/libc_nano.a(libc_a-nano-svfprintf.o)
__stack                                           /usr/lib/gcc/arm-none-eabi/13.2.1/../../../arm-none-eabi/lib/thumb/v7-m/nofp/crt0.o
__stdio_exit_handler                              /usr/lib/gcc/arm-none-eabi/13.2.1/../../../arm-none-eabi/lib/thumb/v7-m/nofp/libc_nano.a(libc_a-findfp.o)
                                                  /usr/lib/gcc/arm-none-eabi/13.2.1/../../../arm-none-eabi/lib/thumb/v7-m/nofp/libc_nano.a(libc_a-exit.o)
__subdf3                                          /usr/lib/gcc/arm-none-eabi/13.2.1/thumb/v7-m/nofp/libgcc.a(_arm_addsubdf3.o)
__swbuf                                           /usr/lib/gcc/arm-none-eabi/13.2.1/../../../arm-none-eabi/lib/thumb/v7-m/nofp/libc_nano.a(libc_a-wbuf.o)
__swbuf_r                                         /usr/lib/gcc/arm-none-eabi/13.2.1/../../../arm-none-eabi/lib/thumb/v7-m/nofp/libc_nano.a(libc_a-wbuf.o)
                                                  /usr/lib/gcc/arm-none-eabi/13.2.1/../../../arm-none-eabi/lib/thumb/v7-m/nofp/libc_nano.a(libc_a-nano-vfprintf.o)
__swhatbuf_r                                      /usr/lib/gcc/arm-none-eabi/13.2.1/../../../arm-none-eabi/lib/thumb/v7-m/nofp/libc_nano.a(libc_a-makebuf.o)
__swrite                                          /usr/lib/gcc/arm-none-eabi/13.2.1/../../../arm-none-eabi/lib/thumb/v7-m/nofp/libc_nano.a(libc_a-stdio.o)
                                                  /usr/lib/gcc/arm-none-eabi/13.2.1/../../../arm-none-eabi/lib/thumb/v7-m/nofp/libc_nano.a(libc_a-findfp.o)
__swsetup_r                                       /usr/lib/gcc/arm-none-eabi/13.2.1/../../../arm-none-eabi/lib/thumb/v7-m/nofp/libc_nano.a(libc_a-wsetup.o)
                                                  /usr/lib/gcc/arm-none-eabi/13.2.1/../../../arm-none-eabi/lib/thumb/v7-m/nofp/libc_nano.a(libc_a-fvwrite.o)
                                                  /usr/lib/gcc/arm-none-eabi/13.2.1/../../../arm-none-eabi/lib/thumb/v7-m/nofp/libc_nano.a(libc_a-wbuf.o)
                                                  /usr/lib/gcc/arm-none-eabi/13.2.1/../../../arm-none-eabi/lib/thumb/v7-m/nofp/libc_nano.a(libc_a-nano-vfprintf.o)
_close                                            /usr/lib/gcc/arm-none-eabi/13.2.1/../../../arm-none-eabi/lib/thumb/v7-m/nofp/libnosys.a(close.o)
                                                  /usr/lib/gcc/arm-none-eabi/13.2.1/../../../arm-none-eabi/lib/thumb/v7-m/nofp/libc_nano.a(libc_a-closer.o)
_close_r                                          /usr/lib/gcc/arm-none-eabi/13.2.1/../../../arm-none-eabi/lib/thumb/v7-m/nofp/libc_nano.a(libc_a-closer.o)
                                                  /usr/lib/gcc/arm-none-eabi/13.2.1/../../../arm-none-eabi/lib/thumb/v7-m/nofp/libc_nano.a(libc_a-stdio.o)
_ebss                                             /workspaces/hoverboard-firmware-hack-FOC/build/startup_stm32f103xe.o
_edata                                            /workspaces/hoverboard-firmware-hack-FOC/build/startup_stm32f103xe.o
_estack                                           /workspaces/hoverboard-firmware-hack-FOC/build/startup_stm32f103xe.o
_exit                                             /usr/lib/gcc/arm-none-eabi/13.2.1/../../../arm-none-eabi/lib/thumb/v7-m/nofp/libnosys.a(_exit.o)
                                                  /usr/lib/gcc/arm-none-eabi/13.2.1/../../../arm-none-eabi/lib/thumb/v7-m/nofp/libc_nano.a(libc_a-exit.o)
_fflush_r                                         /usr/lib/gcc/arm-none-eabi/13.2.1/../../../arm-none-eabi/lib/thumb/v7-m/nofp/libc_nano.a(libc_a-fflush.o)
                                                  /usr/lib/gcc/arm-none-eabi/13.2.1/../../../arm-none-eabi/lib/thumb/v7-m/nofp/libc_nano.a(libc_a-findfp.o)
                                                  /usr/lib/gcc/arm-none-eabi/13.2.1/../../../arm-none-eabi/lib/thumb/v7-m/nofp/libc_nano.a(libc_a-fvwrite.o)
                                                  /usr/lib/gcc/arm-none-eabi/13.2.1/../../../arm-none-eabi/lib/thumb/v7-m/nofp/libc_nano.a(libc_a-wbuf.o)
_fini                                             /usr/lib/gcc/arm-none-eabi/13.2.1/thumb/v7-m/nofp/crti.o
                                                  /usr/lib/gcc/arm-none-eabi/13.2.1/../../../arm-none-eabi/lib/thumb/v7-m/nofp/libc_nano.a(libc_a-fini.o)
_free_r                                           /usr/lib/gcc/arm-none-eabi/13.2.1/../../../arm-none-eabi/lib/thumb/v7-m/nofp/libc_nano.a(libc_a-freer.o)
                                                  /usr/lib/gcc/arm-none-eabi/13.2.1/../../../arm-none-eabi/lib/thumb/v7-m/nofp/libc_nano.a(libc_a-reent.o)
                                                  /usr/lib/gcc/arm-none-eabi/13.2.1/../../../arm-none-eabi/lib/thumb/v7-m/nofp/libc_nano.a(libc_a-reallocr.o)
                                                  /usr/lib/gcc/arm-none-eabi/13.2.1/../../../arm-none-eabi/lib/thumb/v7-m/nofp/libc_nano.a(libc_a-wsetup.o)
                                                  /usr/lib/gcc/arm-none-eabi/13.2.1/../../../arm-none-eabi/lib/thumb/v7-m/nofp/libc_nano.a(libc_a-fflush.o)
                                                  /usr/lib/gcc/arm-none-eabi/13.2.1/../../../arm-none-eabi/lib/thumb/v7-m/nofp/libc_nano.a(libc_a-fvwrite.o)
                                                  /usr/lib/gcc/arm-none-eabi/13.2.1/../../../arm-none-eabi/lib/thumb/v7-m/nofp/libc_nano.a(libc_a-nano-svfprintf.o)
_fstat                                            /usr/lib/gcc/arm-none-eabi/13.2.1/../../../arm-none-eabi/lib/thumb/v7-m/nofp/libnosys.a(fstat.o)
                                                  /usr/lib/gcc/arm-none-eabi/13.2.1/../../../arm-none-eabi/lib/thumb/v7-m/nofp/libc_nano.a(libc_a-fstatr.o)
_fstat_r                                          /usr/lib/gcc/arm-none-eabi/13.2.1/../../../arm-none-eabi/lib/thumb/v7-m/nofp/libc_nano.a(libc_a-fstatr.o)
                                                  /usr/lib/gcc/arm-none-eabi/13.2.1/../../../arm-none-eabi/lib/thumb/v7-m/nofp/libc_nano.a(libc_a-makebuf.o)
_fwalk_sglue                                      /usr/lib/gcc/arm-none-eabi/13.2.1/../../../arm-none-eabi/lib/thumb/v7-m/nofp/libc_nano.a(libc_a-fwalk.o)
                                                  /usr/lib/gcc/arm-none-eabi/13.2.1/../../../arm-none-eabi/lib/thumb/v7-m/nofp/libc_nano.a(libc_a-fflush.o)
                                                  /usr/lib/gcc/arm-none-eabi/13.2.1/../../../arm-none-eabi/lib/thumb/v7-m/nofp/libc_nano.a(libc_a-findfp.o)
_impure_data                                      /usr/lib/gcc/arm-none-eabi/13.2.1/../../../arm-none-eabi/lib/thumb/v7-m/nofp/libc_nano.a(libc_a-impure.o)
                                                  /usr/lib/gcc/arm-none-eabi/13.2.1/../../../arm-none-eabi/lib/thumb/v7-m/nofp/libc_nano.a(libc_a-fflush.o)
                                                  /usr/lib/gcc/arm-none-eabi/13.2.1/../../../arm-none-eabi/lib/thumb/v7-m/nofp/libc_nano.a(libc_a-findfp.o)
_impure_ptr                                       /usr/lib/gcc/arm-none-eabi/13.2.1/../../../arm-none-eabi/lib/thumb/v7-m/nofp/libc_nano.a(libc_a-impure.o)
                                                  /usr/lib/gcc/arm-none-eabi/13.2.1/../../../arm-none-eabi/lib/thumb/v7-m/nofp/libc_nano.a(libc_a-reent.o)
                                                  /usr/lib/gcc/arm-none-eabi/13.2.1/../../../arm-none-eabi/lib/thumb/v7-m/nofp/libc_nano.a(libc_a-wsetup.o)
                                                  /usr/lib/gcc/arm-none-eabi/13.2.1/../../../arm-none-eabi/lib/thumb/v7-m/nofp/libc_nano.a(libc_a-fflush.o)
                                                  /usr/lib/gcc/arm-none-eabi/13.2.1/../../../arm-none-eabi/lib/thumb/v7-m/nofp/libc_nano.a(libc_a-wbuf.o)
                                                  /usr/lib/gcc/arm-none-eabi/13.2.1/../../../arm-none-eabi/lib/thumb/v7-m/nofp/libc_nano.a(libc_a-nano-vfprintf.o)
                                                  /usr/lib/gcc/arm-none-eabi/13.2.1/../../../arm-none-eabi/lib/thumb/v7-m/nofp/libc_nano.a(libc_a-printf.o)
                                                  /usr/lib/gcc/arm-none-eabi/13.2.1/../../../arm-none-eabi/lib/thumb/v7-m/nofp/libc_nano.a(libc_a-snprintf.o)
_init                                             /usr/lib/gcc/arm-none-eabi/13.2.1/thumb/v7-m/nofp/crti.o
                                                  /usr/lib/gcc/arm-none-eabi/13.2.1/../../../arm-none-eabi/lib/thumb/v7-m/nofp/libc_nano.a(libc_a-init.o)
_iprintf_r                                        /usr/lib/gcc/arm-none-eabi/13.2.1/../../../arm-none-eabi/lib/thumb/v7-m/nofp/libc_nano.a(libc_a-printf.o)
_isatty                                           /usr/lib/gcc/arm-none-eabi/13.2.1/../../../arm-none-eabi/lib/thumb/v7-m/nofp/libnosys.a(isatty.o)
                                                  /usr/lib/gcc/arm-none-eabi/13.2.1/../../../arm-none-eabi/lib/thumb/v7-m/nofp/libc_nano.a(libc_a-isattyr.o)
_isatty_r                                         /usr/lib/gcc/arm-none-eabi/13.2.1/../../../arm-none-eabi/lib/thumb/v7-m/nofp/libc_nano.a(libc_a-isattyr.o)
                                                  /usr/lib/gcc/arm-none-eabi/13.2.1/../../../arm-none-eabi/lib/thumb/v7-m/nofp/libc_nano.a(libc_a-makebuf.o)
_lseek                                            /usr/lib/gcc/arm-none-eabi/13.2.1/../../../arm-none-eabi/lib/thumb/v7-m/nofp/libnosys.a(lseek.o)
                                                  /usr/lib/gcc/arm-none-eabi/13.2.1/../../../arm-none-eabi/lib/thumb/v7-m/nofp/libc_nano.a(libc_a-lseekr.o)
_lseek_r                                          /usr/lib/gcc/arm-none-eabi/13.2.1/../../../arm-none-eabi/lib/thumb/v7-m/nofp/libc_nano.a(libc_a-lseekr.o)
                                                  /usr/lib/gcc/arm-none-eabi/13.2.1/../../../arm-none-eabi/lib/thumb/v7-m/nofp/libc_nano.a(libc_a-stdio.o)
_mainCRTStartup                                   /usr/lib/gcc/arm-none-eabi/13.2.1/../../../arm-none-eabi/lib/thumb/v7-m/nofp/crt0.o
_malloc_r                                         /usr/lib/gcc/arm-none-eabi/13.2.1/../../../arm-none-eabi/lib/thumb/v7-m/nofp/libc_nano.a(libc_a-mallocr.o)
                                                  /usr/lib/gcc/arm-none-eabi/13.2.1/../../../arm-none-eabi/lib/thumb/v7-m/nofp/libc_nano.a(libc_a-makebuf.o)
                                                  /usr/lib/gcc/arm-none-eabi/13.2.1/../../../arm-none-eabi/lib/thumb/v7-m/nofp/libc_nano.a(libc_a-reallocr.o)
                                                  /usr/lib/gcc/arm-none-eabi/13.2.1/../../../arm-none-eabi/lib/thumb/v7-m/nofp/libc_nano.a(libc_a-findfp.o)
                                                  /usr/lib/gcc/arm-none-eabi/13.2.1/../../../arm-none-eabi/lib/thumb/v7-m/nofp/libc_nano.a(libc_a-fvwrite.o)
                                                  /usr/lib/gcc/arm-none-eabi/13.2.1/../../../arm-none-eabi/lib/thumb/v7-m/nofp/libc_nano.a(libc_a-nano-svfprintf.o)
_malloc_usable_size_r                             /usr/lib/gcc/arm-none-eabi/13.2.1/../../../arm-none-eabi/lib/thumb/v7-m/nofp/libc_nano.a(libc_a-msizer.o)
                                                  /usr/lib/gcc/arm-none-eabi/13.2.1/../../../arm-none-eabi/lib/thumb/v7-m/nofp/libc_nano.a(libc_a-reallocr.o)
_printf_common                                    /usr/lib/gcc/arm-none-eabi/13.2.1/../../../arm-none-eabi/lib/thumb/v7-m/nofp/libc_nano.a(libc_a-nano-vfprintf_i.o)
_printf_float                                     /usr/lib/gcc/arm-none-eabi/13.2.1/../../../arm-none-eabi/lib/thumb/v7-m/nofp/libc_nano.a(libc_a-nano-svfprintf.o)
                                                  /usr/lib/gcc/arm-none-eabi/13.2.1/../../../arm-none-eabi/lib/thumb/v7-m/nofp/libc_nano.a(libc_a-nano-vfprintf.o)
_printf_i                                         /usr/lib/gcc/arm-none-eabi/13.2.1/../../../arm-none-eabi/lib/thumb/v7-m/nofp/libc_nano.a(libc_a-nano-vfprintf_i.o)
                                                  /usr/lib/gcc/arm-none-eabi/13.2.1/../../../arm-none-eabi/lib/thumb/v7-m/nofp/libc_nano.a(libc_a-nano-svfprintf.o)
                                                  /usr/lib/gcc/arm-none-eabi/13.2.1/../../../arm-none-eabi/lib/thumb/v7-m/nofp/libc_nano.a(libc_a-nano-vfprintf.o)
_printf_r                                         /usr/lib/gcc/arm-none-eabi/13.2.1/../../../arm-none-eabi/lib/thumb/v7-m/nofp/libc_nano.a(libc_a-printf.o)
_read                                             /usr/lib/gcc/arm-none-eabi/13.2.1/../../../arm-none-eabi/lib/thumb/v7-m/nofp/libnosys.a(read.o)
                                                  /usr/lib/gcc/arm-none-eabi/13.2.1/../../../arm-none-eabi/lib/thumb/v7-m/nofp/libc_nano.a(libc_a-readr.o)
_read_r                                           /usr/lib/gcc/arm-none-eabi/13.2.1/../../../arm-none-eabi/lib/thumb/v7-m/nofp/libc_nano.a(libc_a-readr.o)
                                                  /usr/lib/gcc/arm-none-eabi/13.2.1/../../../arm-none-eabi/lib/thumb/v7-m/nofp/libc_nano.a(libc_a-stdio.o)
_realloc_r                                        /usr/lib/gcc/arm-none-eabi/13.2.1/../../../arm-none-eabi/lib/thumb/v7-m/nofp/libc_nano.a(libc_a-reallocr.o)
                                                  /usr/lib/gcc/arm-none-eabi/13.2.1/../../../arm-none-eabi/lib/thumb/v7-m/nofp/libc_nano.a(libc_a-fvwrite.o)
                                                  /usr/lib/gcc/arm-none-eabi/13.2.1/../../../arm-none-eabi/lib/thumb/v7-m/nofp/libc_nano.a(libc_a-nano-svfprintf.o)
_reclaim_reent                                    /usr/lib/gcc/arm-none-eabi/13.2.1/../../../arm-none-eabi/lib/thumb/v7-m/nofp/libc_nano.a(libc_a-reent.o)
_sbrk                                             /usr/lib/gcc/arm-none-eabi/13.2.1/../../../arm-none-eabi/lib/thumb/v7-m/nofp/libnosys.a(sbrk.o)
                                                  /usr/lib/gcc/arm-none-eabi/13.2.1/../../../arm-none-eabi/lib/thumb/v7-m/nofp/libc_nano.a(libc_a-sbrkr.o)
_sbrk_r                                           /usr/lib/gcc/arm-none-eabi/13.2.1/../../../arm-none-eabi/lib/thumb/v7-m/nofp/libc_nano.a(libc_a-sbrkr.o)
                                                  /usr/lib/gcc/arm-none-eabi/13.2.1/../../../arm-none-eabi/lib/thumb/v7-m/nofp/libc_nano.a(libc_a-mallocr.o)
_sbss                                             /workspaces/hoverboard-firmware-hack-FOC/build/startup_stm32f103xe.o
_sdata                                            /workspaces/hoverboard-firmware-hack-FOC/build/startup_stm32f103xe.o
_sidata                                           /workspaces/hoverboard-firmware-hack-FOC/build/startup_stm32f103xe.o
_sniprintf_r                                      /usr/lib/gcc/arm-none-eabi/13.2.1/../../../arm-none-eabi/lib/thumb/v7-m/nofp/libc_nano.a(libc_a-snprintf.o)
_snprintf_r                                       /usr/lib/gcc/arm-none-eabi/13.2.1/../../../arm-none-eabi/lib/thumb/v7-m/nofp/libc_nano.a(libc_a-snprintf.o)
_stack_init                                       /usr/lib/gcc/arm-none-eabi/13.2.1/../../../arm-none-eabi/lib/thumb/v7-m/nofp/crt0.o
_start                                            /usr/lib/gcc/arm-none-eabi/13.2.1/../../../arm-none-eabi/lib/thumb/v7-m/nofp/crt0.o
_svfiprintf_r                                     /usr/lib/gcc/arm-none-eabi/13.2.1/../../../arm-none-eabi/lib/thumb/v7-m/nofp/libc_nano.a(libc_a-nano-svfprintf.o)
_svfprintf_r                                      /usr/lib/gcc/arm-none-eabi/13.2.1/../../../arm-none-eabi/lib/thumb/v7-m/nofp/libc_nano.a(libc_a-nano-svfprintf.o)
                                                  /usr/lib/gcc/arm-none-eabi/13.2.1/../../../arm-none-eabi/lib/thumb/v7-m/nofp/libc_nano.a(libc_a-snprintf.o)
_vfiprintf_r                                      /usr/lib/gcc/arm-none-eabi/13.2.1/../../../arm-none-eabi/lib/thumb/v7-m/nofp/libc_nano.a(libc_a-nano-vfprintf.o)
_vfprintf_r                                       /usr/lib/gcc/arm-none-eabi/13.2.1/../../../arm-none-eabi/lib/thumb/v7-m/nofp/libc_nano.a(libc_a-nano-vfprintf.o)
                                                  /usr/lib/gcc/arm-none-eabi/13.2.1/../../../arm-none-eabi/lib/thumb/v7-m/nofp/libc_nano.a(libc_a-printf.o)
_write                                            /usr/lib/gcc/arm-none-eabi/13.2.1/../../../arm-none-eabi/lib/thumb/v7-m/nofp/libnosys.a(write.o)
                                                  /usr/lib/gcc/arm-none-eabi/13.2.1/../../../arm-none-eabi/lib/thumb/v7-m/nofp/libc_nano.a(libc_a-writer.o)
_write_r                                          /usr/lib/gcc/arm-none-eabi/13.2.1/../../../arm-none-eabi/lib/thumb/v7-m/nofp/libc_nano.a(libc_a-writer.o)
                                                  /usr/lib/gcc/arm-none-eabi/13.2.1/../../../arm-none-eabi/lib/thumb/v7-m/nofp/libc_nano.a(libc_a-stdio.o)
adcCalibLim                                       /workspaces/hoverboard-firmware-hack-FOC/build/util.o
adc_buffer                                        /workspaces/hoverboard-firmware-hack-FOC/build/setup.o
                                                  /workspaces/hoverboard-firmware-hack-FOC/build/bldc.o
                                                  /workspaces/hoverboard-firmware-hack-FOC/build/main.o
                                                  /workspaces/hoverboard-firmware-hack-FOC/build/util.o
atexit                                            /usr/lib/gcc/arm-none-eabi/13.2.1/../../../arm-none-eabi/lib/thumb/v7-m/nofp/libc_nano.a(libc_a-atexit.o)
                                                  /usr/lib/gcc/arm-none-eabi/13.2.1/../../../arm-none-eabi/lib/thumb/v7-m/nofp/crt0.o
backwardDrive                                     /workspaces/hoverboard-firmware-hack-FOC/build/main.o
                                                  /workspaces/hoverboard-firmware-hack-FOC/build/util.o
batVoltage                                        /workspaces/hoverboard-firmware-hack-FOC/build/bldc.o
                                                  /workspaces/hoverboard-firmware-hack-FOC/build/main.o
                                                  /workspaces/hoverboard-firmware-hack-FOC/build/util.o
batVoltageCalib                                   /workspaces/hoverboard-firmware-hack-FOC/build/main.o
beepCount                                         /workspaces/hoverboard-firmware-hack-FOC/build/util.o
                                                  /workspaces/hoverboard-firmware-hack-FOC/build/main.o
beepLong                                          /workspaces/hoverboard-firmware-hack-FOC/build/util.o
beepShort                                         /workspaces/hoverboard-firmware-hack-FOC/build/util.o
                                                  /workspaces/hoverboard-firmware-hack-FOC/build/main.o
beepShortMany                                     /workspaces/hoverboard-firmware-hack-FOC/build/util.o
board_temp_deg_c                                  /workspaces/hoverboard-firmware-hack-FOC/build/main.o
buzzerCount                                       /workspaces/hoverboard-firmware-hack-FOC/build/bldc.o
                                                  /workspaces/hoverboard-firmware-hack-FOC/build/util.o
buzzerFreq                                        /workspaces/hoverboard-firmware-hack-FOC/build/bldc.o
                                                  /workspaces/hoverboard-firmware-hack-FOC/build/util.o
buzzerPattern                                     /workspaces/hoverboard-firmware-hack-FOC/build/bldc.o
                                                  /workspaces/hoverboard-firmware-hack-FOC/build/util.o
buzzerTimer                                       /workspaces/hoverboard-firmware-hack-FOC/build/bldc.o
                                                  /workspaces/hoverboard-firmware-hack-FOC/build/main.o
calcAvgSpeed                                      /workspaces/hoverboard-firmware-hack-FOC/build/util.o
                                                  /workspaces/hoverboard-firmware-hack-FOC/build/main.o
calcInputCmd                                      /workspaces/hoverboard-firmware-hack-FOC/build/util.o
checkInputType                                    /workspaces/hoverboard-firmware-hack-FOC/build/util.o
cmdL                                              /workspaces/hoverboard-firmware-hack-FOC/build/main.o
cmdR                                              /workspaces/hoverboard-firmware-hack-FOC/build/main.o
cruiseControl                                     /workspaces/hoverboard-firmware-hack-FOC/build/util.o
                                                  /workspaces/hoverboard-firmware-hack-FOC/build/main.o
ctrlModReq                                        /workspaces/hoverboard-firmware-hack-FOC/build/util.o
                                                  /workspaces/hoverboard-firmware-hack-FOC/build/bldc.o
ctrlModReqRaw                                     /workspaces/hoverboard-firmware-hack-FOC/build/util.o
curL_DC                                           /workspaces/hoverboard-firmware-hack-FOC/build/bldc.o
curL_phaA                                         /workspaces/hoverboard-firmware-hack-FOC/build/bldc.o
curL_phaB                                         /workspaces/hoverboard-firmware-hack-FOC/build/bldc.o
curR_DC                                           /workspaces/hoverboard-firmware-hack-FOC/build/bldc.o
curR_phaB                                         /workspaces/hoverboard-firmware-hack-FOC/build/bldc.o
curR_phaC                                         /workspaces/hoverboard-firmware-hack-FOC/build/bldc.o
dc_curr                                           /workspaces/hoverboard-firmware-hack-FOC/build/main.o
div_nde_s32_floor                                 /workspaces/hoverboard-firmware-hack-FOC/build/BLDC_controller.o
either_edge                                       /workspaces/hoverboard-firmware-hack-FOC/build/BLDC_controller.o
electricBrake                                     /workspaces/hoverboard-firmware-hack-FOC/build/util.o
enable                                            /workspaces/hoverboard-firmware-hack-FOC/build/bldc.o
                                                  /workspaces/hoverboard-firmware-hack-FOC/build/main.o
                                                  /workspaces/hoverboard-firmware-hack-FOC/build/util.o
end                                               /usr/lib/gcc/arm-none-eabi/13.2.1/../../../arm-none-eabi/lib/thumb/v7-m/nofp/libnosys.a(sbrk.o)
errno                                             /usr/lib/gcc/arm-none-eabi/13.2.1/../../../arm-none-eabi/lib/thumb/v7-m/nofp/libc_nano.a(libc_a-reent.o)
                                                  /usr/lib/gcc/arm-none-eabi/13.2.1/../../../arm-none-eabi/lib/thumb/v7-m/nofp/libnosys.a(write.o)
                                                  /usr/lib/gcc/arm-none-eabi/13.2.1/../../../arm-none-eabi/lib/thumb/v7-m/nofp/libnosys.a(read.o)
                                                  /usr/lib/gcc/arm-none-eabi/13.2.1/../../../arm-none-eabi/lib/thumb/v7-m/nofp/libnosys.a(lseek.o)
                                                  /usr/lib/gcc/arm-none-eabi/13.2.1/../../../arm-none-eabi/lib/thumb/v7-m/nofp/libnosys.a(isatty.o)
                                                  /usr/lib/gcc/arm-none-eabi/13.2.1/../../../arm-none-eabi/lib/thumb/v7-m/nofp/libnosys.a(fstat.o)
                                                  /usr/lib/gcc/arm-none-eabi/13.2.1/../../../arm-none-eabi/lib/thumb/v7-m/nofp/libnosys.a(close.o)
                                                  /usr/lib/gcc/arm-none-eabi/13.2.1/../../../arm-none-eabi/lib/thumb/v7-m/nofp/libc_nano.a(libc_a-writer.o)
                                                  /usr/lib/gcc/arm-none-eabi/13.2.1/../../../arm-none-eabi/lib/thumb/v7-m/nofp/libc_nano.a(libc_a-lseekr.o)
                                                  /usr/lib/gcc/arm-none-eabi/13.2.1/../../../arm-none-eabi/lib/thumb/v7-m/nofp/libc_nano.a(libc_a-fstatr.o)
                                                  /usr/lib/gcc/arm-none-eabi/13.2.1/../../../arm-none-eabi/lib/thumb/v7-m/nofp/libc_nano.a(libc_a-readr.o)
                                                  /usr/lib/gcc/arm-none-eabi/13.2.1/../../../arm-none-eabi/lib/thumb/v7-m/nofp/libc_nano.a(libc_a-closer.o)
                                                  /usr/lib/gcc/arm-none-eabi/13.2.1/../../../arm-none-eabi/lib/thumb/v7-m/nofp/libc_nano.a(libc_a-sbrkr.o)
                                                  /usr/lib/gcc/arm-none-eabi/13.2.1/../../../arm-none-eabi/lib/thumb/v7-m/nofp/libc_nano.a(libc_a-isattyr.o)
exit                                              /usr/lib/gcc/arm-none-eabi/13.2.1/../../../arm-none-eabi/lib/thumb/v7-m/nofp/libc_nano.a(libc_a-exit.o)
                                                  /usr/lib/gcc/arm-none-eabi/13.2.1/../../../arm-none-eabi/lib/thumb/v7-m/nofp/crt0.o
feedbackSerialEnabled                             /workspaces/hoverboard-firmware-hack-FOC/build/util.o
                                                  /workspaces/hoverboard-firmware-hack-FOC/build/main.o
fflush                                            /usr/lib/gcc/arm-none-eabi/13.2.1/../../../arm-none-eabi/lib/thumb/v7-m/nofp/libc_nano.a(libc_a-fflush.o)
filtLowPass32                                     /workspaces/hoverboard-firmware-hack-FOC/build/util.o
                                                  /workspaces/hoverboard-firmware-hack-FOC/build/bldc.o
                                                  /workspaces/hoverboard-firmware-hack-FOC/build/main.o
g_pfnVectors                                      /workspaces/hoverboard-firmware-hack-FOC/build/startup_stm32f103xe.o
hadc1                                             /workspaces/hoverboard-firmware-hack-FOC/build/setup.o
                                                  /workspaces/hoverboard-firmware-hack-FOC/build/main.o
hadc2                                             /workspaces/hoverboard-firmware-hack-FOC/build/setup.o
                                                  /workspaces/hoverboard-firmware-hack-FOC/build/main.o
handleTimeout                                     /workspaces/hoverboard-firmware-hack-FOC/build/util.o
hardware_init_hook                                /usr/lib/gcc/arm-none-eabi/13.2.1/../../../arm-none-eabi/lib/thumb/v7-m/nofp/crt0.o
hdma_i2c2_rx                                      /workspaces/hoverboard-firmware-hack-FOC/build/setup.o
hdma_i2c2_tx                                      /workspaces/hoverboard-firmware-hack-FOC/build/setup.o
hdma_usart2_rx                                    /workspaces/hoverboard-firmware-hack-FOC/build/setup.o
hdma_usart2_tx                                    /workspaces/hoverboard-firmware-hack-FOC/build/setup.o
hdma_usart3_rx                                    /workspaces/hoverboard-firmware-hack-FOC/build/setup.o
                                                  /workspaces/hoverboard-firmware-hack-FOC/build/stm32f1xx_it.o
hdma_usart3_tx                                    /workspaces/hoverboard-firmware-hack-FOC/build/setup.o
                                                  /workspaces/hoverboard-firmware-hack-FOC/build/stm32f1xx_it.o
hi2c2                                             /workspaces/hoverboard-firmware-hack-FOC/build/setup.o
                                                  /workspaces/hoverboard-firmware-hack-FOC/build/control.o
htim_left                                         /workspaces/hoverboard-firmware-hack-FOC/build/setup.o
htim_right                                        /workspaces/hoverboard-firmware-hack-FOC/build/setup.o
huart2                                            /workspaces/hoverboard-firmware-hack-FOC/build/setup.o
huart3                                            /workspaces/hoverboard-firmware-hack-FOC/build/setup.o
                                                  /workspaces/hoverboard-firmware-hack-FOC/build/stm32f1xx_it.o
                                                  /workspaces/hoverboard-firmware-hack-FOC/build/main.o
                                                  /workspaces/hoverboard-firmware-hack-FOC/build/util.o
i2cBuffer                                         /workspaces/hoverboard-firmware-hack-FOC/build/control.o
inIdx                                             /workspaces/hoverboard-firmware-hack-FOC/build/util.o
                                                  /workspaces/hoverboard-firmware-hack-FOC/build/main.o
inIdx_prev                                        /workspaces/hoverboard-firmware-hack-FOC/build/util.o
                                                  /workspaces/hoverboard-firmware-hack-FOC/build/main.o
input1                                            /workspaces/hoverboard-firmware-hack-FOC/build/util.o
                                                  /workspaces/hoverboard-firmware-hack-FOC/build/main.o
input2                                            /workspaces/hoverboard-firmware-hack-FOC/build/util.o
                                                  /workspaces/hoverboard-firmware-hack-FOC/build/main.o
iprintf                                           /usr/lib/gcc/arm-none-eabi/13.2.1/../../../arm-none-eabi/lib/thumb/v7-m/nofp/libc_nano.a(libc_a-printf.o)
left_dc_curr                                      /workspaces/hoverboard-firmware-hack-FOC/build/main.o
main                                              /workspaces/hoverboard-firmware-hack-FOC/build/main.o
                                                  /workspaces/hoverboard-firmware-hack-FOC/build/startup_stm32f103xe.o
                                                  /usr/lib/gcc/arm-none-eabi/13.2.1/../../../arm-none-eabi/lib/thumb/v7-m/nofp/crt0.o
main_loop_counter                                 /workspaces/hoverboard-firmware-hack-FOC/build/main.o
                                                  /workspaces/hoverboard-firmware-hack-FOC/build/util.o
malloc                                            /usr/lib/gcc/arm-none-eabi/13.2.1/../../../arm-none-eabi/lib/thumb/v7-m/nofp/libc_nano.a(libc_a-__atexit.o)
memchr                                            /usr/lib/gcc/arm-none-eabi/13.2.1/../../../arm-none-eabi/lib/thumb/v7-m/nofp/libc_nano.a(libc_a-memchr-stub.o)
                                                  /usr/lib/gcc/arm-none-eabi/13.2.1/../../../arm-none-eabi/lib/thumb/v7-m/nofp/libc_nano.a(libc_a-nano-vfprintf_i.o)
                                                  /usr/lib/gcc/arm-none-eabi/13.2.1/../../../arm-none-eabi/lib/thumb/v7-m/nofp/libc_nano.a(libc_a-fvwrite.o)
                                                  /usr/lib/gcc/arm-none-eabi/13.2.1/../../../arm-none-eabi/lib/thumb/v7-m/nofp/libc_nano.a(libc_a-nano-svfprintf.o)
                                                  /usr/lib/gcc/arm-none-eabi/13.2.1/../../../arm-none-eabi/lib/thumb/v7-m/nofp/libc_nano.a(libc_a-nano-vfprintf.o)
memcpy                                            /usr/lib/gcc/arm-none-eabi/13.2.1/../../../arm-none-eabi/lib/thumb/v7-m/nofp/libc_nano.a(libc_a-memcpy.o)
                                                  /usr/lib/gcc/arm-none-eabi/13.2.1/../../../arm-none-eabi/lib/thumb/v7-m/nofp/libc_nano.a(libc_a-reallocr.o)
                                                  /usr/lib/gcc/arm-none-eabi/13.2.1/../../../arm-none-eabi/lib/thumb/v7-m/nofp/libc_nano.a(libc_a-fvwrite.o)
                                                  /usr/lib/gcc/arm-none-eabi/13.2.1/../../../arm-none-eabi/lib/thumb/v7-m/nofp/libc_nano.a(libc_a-nano-svfprintf.o)
                                                  /workspaces/hoverboard-firmware-hack-FOC/build/util.o
memmove                                           /usr/lib/gcc/arm-none-eabi/13.2.1/../../../arm-none-eabi/lib/thumb/v7-m/nofp/libc_nano.a(libc_a-memmove.o)
                                                  /usr/lib/gcc/arm-none-eabi/13.2.1/../../../arm-none-eabi/lib/thumb/v7-m/nofp/libc_nano.a(libc_a-fvwrite.o)
                                                  /usr/lib/gcc/arm-none-eabi/13.2.1/../../../arm-none-eabi/lib/thumb/v7-m/nofp/libc_nano.a(libc_a-nano-svfprintf.o)
memset                                            /usr/lib/gcc/arm-none-eabi/13.2.1/../../../arm-none-eabi/lib/thumb/v7-m/nofp/libc_nano.a(libc_a-memset.o)
                                                  /usr/lib/gcc/arm-none-eabi/13.2.1/../../../arm-none-eabi/lib/thumb/v7-m/nofp/libc_nano.a(libc_a-findfp.o)
                                                  /usr/lib/gcc/arm-none-eabi/13.2.1/../../../arm-none-eabi/lib/thumb/v7-m/nofp/crt0.o
mixerFcn                                          /workspaces/hoverboard-firmware-hack-FOC/build/util.o
                                                  /workspaces/hoverboard-firmware-hack-FOC/build/main.o
multipleTapDet                                    /workspaces/hoverboard-firmware-hack-FOC/build/util.o
                                                  /workspaces/hoverboard-firmware-hack-FOC/build/main.o
nunchukState                                      /workspaces/hoverboard-firmware-hack-FOC/build/control.o
nunchuk_data                                      /workspaces/hoverboard-firmware-hack-FOC/build/control.o
pFlash                                            /workspaces/hoverboard-firmware-hack-FOC/build/stm32f1xx_hal_flash.o
                                                  /workspaces/hoverboard-firmware-hack-FOC/build/stm32f1xx_hal_flash_ex.o
plook_u8s16_evencka                               /workspaces/hoverboard-firmware-hack-FOC/build/BLDC_controller.o
plook_u8u16_evencka                               /workspaces/hoverboard-firmware-hack-FOC/build/BLDC_controller.o
poweroff                                          /workspaces/hoverboard-firmware-hack-FOC/build/util.o
                                                  /workspaces/hoverboard-firmware-hack-FOC/build/main.o
poweroffPressCheck                                /workspaces/hoverboard-firmware-hack-FOC/build/util.o
                                                  /workspaces/hoverboard-firmware-hack-FOC/build/main.o
poweronMelody                                     /workspaces/hoverboard-firmware-hack-FOC/build/util.o
                                                  /workspaces/hoverboard-firmware-hack-FOC/build/main.o
ppm_count                                         /workspaces/hoverboard-firmware-hack-FOC/build/control.o
printf                                            /usr/lib/gcc/arm-none-eabi/13.2.1/../../../arm-none-eabi/lib/thumb/v7-m/nofp/libc_nano.a(libc_a-printf.o)
                                                  /workspaces/hoverboard-firmware-hack-FOC/build/main.o
                                                  /workspaces/hoverboard-firmware-hack-FOC/build/util.o
pwm_count                                         /workspaces/hoverboard-firmware-hack-FOC/build/control.o
pwml                                              /workspaces/hoverboard-firmware-hack-FOC/build/bldc.o
                                                  /workspaces/hoverboard-firmware-hack-FOC/build/main.o
pwmr                                              /workspaces/hoverboard-firmware-hack-FOC/build/bldc.o
                                                  /workspaces/hoverboard-firmware-hack-FOC/build/main.o
rateLimiter16                                     /workspaces/hoverboard-firmware-hack-FOC/build/util.o
                                                  /workspaces/hoverboard-firmware-hack-FOC/build/main.o
readCommand                                       /workspaces/hoverboard-firmware-hack-FOC/build/util.o
                                                  /workspaces/hoverboard-firmware-hack-FOC/build/main.o
readInputRaw                                      /workspaces/hoverboard-firmware-hack-FOC/build/util.o
right_dc_curr                                     /workspaces/hoverboard-firmware-hack-FOC/build/main.o
rtConstP                                          /workspaces/hoverboard-firmware-hack-FOC/build/BLDC_controller_data.o
                                                  /workspaces/hoverboard-firmware-hack-FOC/build/BLDC_controller.o
rtDW_Left                                         /workspaces/hoverboard-firmware-hack-FOC/build/util.o
rtDW_Right                                        /workspaces/hoverboard-firmware-hack-FOC/build/util.o
rtM_Left                                          /workspaces/hoverboard-firmware-hack-FOC/build/util.o
                                                  /workspaces/hoverboard-firmware-hack-FOC/build/bldc.o
rtM_Left_                                         /workspaces/hoverboard-firmware-hack-FOC/build/util.o
rtM_Right                                         /workspaces/hoverboard-firmware-hack-FOC/build/util.o
                                                  /workspaces/hoverboard-firmware-hack-FOC/build/bldc.o
rtM_Right_                                        /workspaces/hoverboard-firmware-hack-FOC/build/util.o
rtP_Left                                          /workspaces/hoverboard-firmware-hack-FOC/build/BLDC_controller_data.o
                                                  /workspaces/hoverboard-firmware-hack-FOC/build/bldc.o
                                                  /workspaces/hoverboard-firmware-hack-FOC/build/main.o
                                                  /workspaces/hoverboard-firmware-hack-FOC/build/util.o
rtP_Right                                         /workspaces/hoverboard-firmware-hack-FOC/build/util.o
                                                  /workspaces/hoverboard-firmware-hack-FOC/build/main.o
rtU_Left                                          /workspaces/hoverboard-firmware-hack-FOC/build/util.o
                                                  /workspaces/hoverboard-firmware-hack-FOC/build/bldc.o
                                                  /workspaces/hoverboard-firmware-hack-FOC/build/main.o
rtU_Right                                         /workspaces/hoverboard-firmware-hack-FOC/build/util.o
                                                  /workspaces/hoverboard-firmware-hack-FOC/build/bldc.o
                                                  /workspaces/hoverboard-firmware-hack-FOC/build/main.o
rtY_Left                                          /workspaces/hoverboard-firmware-hack-FOC/build/util.o
                                                  /workspaces/hoverboard-firmware-hack-FOC/build/bldc.o
                                                  /workspaces/hoverboard-firmware-hack-FOC/build/main.o
rtY_Right                                         /workspaces/hoverboard-firmware-hack-FOC/build/util.o
                                                  /workspaces/hoverboard-firmware-hack-FOC/build/bldc.o
                                                  /workspaces/hoverboard-firmware-hack-FOC/build/main.o
saveConfig                                        /workspaces/hoverboard-firmware-hack-FOC/build/util.o
sideboardLeds                                     /workspaces/hoverboard-firmware-hack-FOC/build/util.o
                                                  /workspaces/hoverboard-firmware-hack-FOC/build/main.o
sideboardSensors                                  /workspaces/hoverboard-firmware-hack-FOC/build/util.o
                                                  /workspaces/hoverboard-firmware-hack-FOC/build/main.o
sniprintf                                         /usr/lib/gcc/arm-none-eabi/13.2.1/../../../arm-none-eabi/lib/thumb/v7-m/nofp/libc_nano.a(libc_a-snprintf.o)
snprintf                                          /usr/lib/gcc/arm-none-eabi/13.2.1/../../../arm-none-eabi/lib/thumb/v7-m/nofp/libc_nano.a(libc_a-snprintf.o)
                                                  /workspaces/hoverboard-firmware-hack-FOC/build/util.o
software_init_hook                                /usr/lib/gcc/arm-none-eabi/13.2.1/../../../arm-none-eabi/lib/thumb/v7-m/nofp/crt0.o
speedAvg                                          /workspaces/hoverboard-firmware-hack-FOC/build/util.o
                                                  /workspaces/hoverboard-firmware-hack-FOC/build/main.o
speedAvgAbs                                       /workspaces/hoverboard-firmware-hack-FOC/build/util.o
                                                  /workspaces/hoverboard-firmware-hack-FOC/build/main.o
standstillHold                                    /workspaces/hoverboard-firmware-hack-FOC/build/util.o
timeoutCntGen                                     /workspaces/hoverboard-firmware-hack-FOC/build/control.o
timeoutFlgADC                                     /workspaces/hoverboard-firmware-hack-FOC/build/util.o
                                                  /workspaces/hoverboard-firmware-hack-FOC/build/main.o
timeoutFlgGen                                     /workspaces/hoverboard-firmware-hack-FOC/build/control.o
                                                  /workspaces/hoverboard-firmware-hack-FOC/build/main.o
                                                  /workspaces/hoverboard-firmware-hack-FOC/build/util.o
timeoutFlgSerial                                  /workspaces/hoverboard-firmware-hack-FOC/build/util.o
                                                  /workspaces/hoverboard-firmware-hack-FOC/build/main.o
uartEchoMode                                      /workspaces/hoverboard-firmware-hack-FOC/build/util.o
uart_buf                                          /workspaces/hoverboard-firmware-hack-FOC/build/main.o
uart_echo_with_timestamp                          /workspaces/hoverboard-firmware-hack-FOC/build/util.o
updateCurSpdLim                                   /workspaces/hoverboard-firmware-hack-FOC/build/util.o
usart2_rx_check                                   /workspaces/hoverboard-firmware-hack-FOC/build/util.o
usart3_rx_check                                   /workspaces/hoverboard-firmware-hack-FOC/build/util.o
                                                  /workspaces/hoverboard-firmware-hack-FOC/build/stm32f1xx_it.o
usart_process_sideboard                           /workspaces/hoverboard-firmware-hack-FOC/build/util.o
uwTick                                            /workspaces/hoverboard-firmware-hack-FOC/build/stm32f1xx_hal.o
vfiprintf                                         /usr/lib/gcc/arm-none-eabi/13.2.1/../../../arm-none-eabi/lib/thumb/v7-m/nofp/libc_nano.a(libc_a-nano-vfprintf.o)
vfprintf                                          /usr/lib/gcc/arm-none-eabi/13.2.1/../../../arm-none-eabi/lib/thumb/v7-m/nofp/libc_nano.a(libc_a-nano-vfprintf.o)
